

Microchip MPLAB XC8 Assembler V2.46 build 20240104201356 
                                                                                               Thu May 29 19:30:13 2025

Microchip MPLAB XC8 C Compiler v2.46 (Free license) build 20240104201356 Og1 
     1                           	processor	16F877A
     2                           	pagewidth 120
     3                           	opt	flic
     4                           	psect	idataCOMMON,global,class=CODE,delta=2,noexec
     5                           	psect	idataBANK0,global,class=CODE,delta=2,noexec
     6                           	psect	idataBANK1,global,class=CODE,delta=2,noexec
     7                           	psect	strings,global,class=STRING,delta=2,noexec
     8                           	psect	stringtext,global,reloc=256,class=STRCODE,delta=2,noexec
     9                           	psect	cinit,global,class=CODE,merge=1,delta=2
    10                           	psect	dataCOMMON,global,class=COMMON,space=1,delta=1,noexec
    11                           	psect	bssBANK0,global,class=BANK0,space=1,delta=1,noexec
    12                           	psect	dataBANK0,global,class=BANK0,space=1,delta=1,noexec
    13                           	psect	bssBANK1,global,class=BANK1,space=1,delta=1,noexec
    14                           	psect	dataBANK1,global,class=BANK1,space=1,delta=1,noexec
    15                           	psect	inittext,global,class=CODE,delta=2
    16                           	psect	clrtext,global,class=CODE,delta=2
    17                           	psect	cstackCOMMON,global,class=COMMON,space=1,delta=1,noexec
    18                           	psect	cstackBANK0,global,class=BANK0,space=1,delta=1,noexec
    19                           	psect	maintext,global,class=CODE,split=1,delta=2
    20                           	psect	text1,local,class=CODE,merge=1,delta=2
    21                           	psect	text2,local,class=CODE,merge=1,delta=2
    22                           	psect	text3,local,class=CODE,merge=1,delta=2,group=2
    23                           	psect	text4,local,class=CODE,merge=1,delta=2
    24                           	psect	text5,local,class=CODE,merge=1,delta=2
    25                           	psect	text6,local,class=CODE,merge=1,delta=2
    26                           	psect	text7,local,class=CODE,merge=1,delta=2
    27                           	psect	text8,local,class=CODE,merge=1,delta=2,group=2
    28                           	psect	text9,local,class=CODE,merge=1,delta=2
    29                           	psect	text10,local,class=CODE,merge=1,delta=2,group=2
    30                           	psect	text11,local,class=CODE,merge=1,delta=2
    31                           	psect	text12,local,class=CODE,merge=1,delta=2
    32                           	psect	text13,local,class=CODE,merge=1,delta=2
    33                           	psect	text14,local,class=CODE,merge=1,delta=2
    34                           	psect	text15,local,class=CODE,merge=1,delta=2
    35                           	psect	text16,local,class=CODE,merge=1,delta=2
    36                           	psect	text17,local,class=CODE,merge=1,delta=2,group=1
    37                           	psect	text18,local,class=CODE,merge=1,delta=2
    38                           	psect	text19,local,class=CODE,merge=1,delta=2
    39                           	psect	text20,local,class=CODE,merge=1,delta=2
    40                           	psect	text21,local,class=CODE,merge=1,delta=2
    41                           	psect	text22,local,class=CODE,merge=1,delta=2
    42                           	psect	text23,local,class=CODE,merge=1,delta=2
    43                           	psect	text24,local,class=CODE,merge=1,delta=2
    44                           	psect	text25,local,class=CODE,merge=1,delta=2
    45                           	psect	text26,local,class=CODE,merge=1,delta=2
    46                           	psect	text27,local,class=CODE,merge=1,delta=2,group=1
    47                           	psect	text28,local,class=CODE,merge=1,delta=2
    48                           	psect	text29,local,class=CODE,merge=1,delta=2
    49                           	psect	text30,local,class=CODE,merge=1,delta=2,group=1
    50                           	psect	text31,local,class=CODE,merge=1,delta=2,group=1
    51                           	psect	text32,local,class=CODE,merge=1,delta=2
    52                           	psect	text33,local,class=CODE,merge=1,delta=2
    53                           	psect	text34,local,class=CODE,merge=1,delta=2
    54                           	psect	text35,local,class=CODE,merge=1,delta=2
    55                           	psect	text36,local,class=CODE,merge=1,delta=2
    56                           	psect	text37,local,class=CODE,merge=1,delta=2
    57                           	psect	text38,local,class=CODE,merge=1,delta=2
    58                           	psect	text39,local,class=CODE,merge=1,delta=2
    59                           	psect	text40,local,class=CODE,merge=1,delta=2
    60                           	psect	text41,local,class=CODE,merge=1,delta=2
    61                           	psect	text42,local,class=CODE,merge=1,delta=2
    62                           	psect	text43,local,class=CODE,merge=1,delta=2
    63                           	psect	text44,local,class=CODE,merge=1,delta=2
    64                           	psect	text45,local,class=CODE,merge=1,delta=2
    65                           	psect	text46,local,class=CODE,merge=1,delta=2
    66                           	psect	text47,local,class=CODE,merge=1,delta=2,group=1
    67                           	psect	text48,local,class=CODE,merge=1,delta=2,group=1
    68                           	psect	text49,local,class=CODE,merge=1,delta=2,group=1
    69                           	psect	text50,local,class=CODE,merge=1,delta=2
    70                           	psect	intentry,global,class=CODE,delta=2
    71                           	psect	config,global,abs,ovrld,class=CONFIG,space=4,delta=2,noexec
    72                           	dabs	1,0x7E,2
    73     0000                     
    74                           ; Version 2.20
    75                           ; Generated 12/02/2020 GMT
    76                           ; 
    77                           ; Copyright © 2020, Microchip Technology Inc. and its subsidiaries ("Microchip")
    78                           ; All rights reserved.
    79                           ; 
    80                           ; This software is developed by Microchip Technology Inc. and its subsidiaries ("Microch
      +                          ip").
    81                           ; 
    82                           ; Redistribution and use in source and binary forms, with or without modification, are
    83                           ; permitted provided that the following conditions are met:
    84                           ; 
    85                           ;     1. Redistributions of source code must retain the above copyright notice, this lis
      +                          t of
    86                           ;        conditions and the following disclaimer.
    87                           ; 
    88                           ;     2. Redistributions in binary form must reproduce the above copyright notice, this 
      +                          list
    89                           ;        of conditions and the following disclaimer in the documentation and/or other
    90                           ;        materials provided with the distribution.
    91                           ; 
    92                           ;     3. Microchip's name may not be used to endorse or promote products derived from th
      +                          is
    93                           ;        software without specific prior written permission.
    94                           ; 
    95                           ; THIS SOFTWARE IS PROVIDED BY MICROCHIP "AS IS" AND ANY EXPRESS OR IMPLIED WARRANTIES,
    96                           ; INCLUDING, BUT NOT LIMITED TO, THE IMPLIED WARRANTIES OF MERCHANTABILITY AND FITNESS F
      +                          OR
    97                           ; PURPOSE ARE DISCLAIMED.  IN NO EVENT SHALL MICROCHIP BE LIABLE FOR ANY DIRECT, INDIREC
      +                          T,
    98                           ; INCIDENTAL, SPECIAL, EXEMPLARY, OR CONSEQUENTIAL DAMAGES (INCLUDING BUT NOT LIMITED TO
    99                           ; PROCUREMENT OF SUBSTITUTE GOODS OR SERVICES; LOSS OF USE, DATA OR PROFITS; OR BUSINESS
   100                           ; INTERRUPTION) HOWSOEVER CAUSED AND ON ANY THEORY OF LIABILITY, WHETHER IN CONTRACT, ST
      +                          RICT
   101                           ; LIABILITY, OR TORT (INCLUDING NEGLIGENCE OR OTHERWISE) ARISING IN ANY WAY OUT OF THE U
      +                          SE OF
   102                           ; THIS SOFTWARE, EVEN IF ADVISED OF THE POSSIBILITY OF SUCH DAMAGE.
   103                           ; 
   104                           ; 
   105                           ; Code-generator required, PIC16F877A Definitions
   106                           ; 
   107                           ; SFR Addresses
   108     0000                     	;# 
   109     0001                     	;# 
   110     0002                     	;# 
   111     0003                     	;# 
   112     0004                     	;# 
   113     0005                     	;# 
   114     0006                     	;# 
   115     0007                     	;# 
   116     0008                     	;# 
   117     0009                     	;# 
   118     000A                     	;# 
   119     000B                     	;# 
   120     000C                     	;# 
   121     000D                     	;# 
   122     000E                     	;# 
   123     000E                     	;# 
   124     000F                     	;# 
   125     0010                     	;# 
   126     0011                     	;# 
   127     0012                     	;# 
   128     0013                     	;# 
   129     0014                     	;# 
   130     0015                     	;# 
   131     0015                     	;# 
   132     0016                     	;# 
   133     0017                     	;# 
   134     0018                     	;# 
   135     0019                     	;# 
   136     001A                     	;# 
   137     001B                     	;# 
   138     001B                     	;# 
   139     001C                     	;# 
   140     001D                     	;# 
   141     001E                     	;# 
   142     001F                     	;# 
   143     0081                     	;# 
   144     0085                     	;# 
   145     0086                     	;# 
   146     0087                     	;# 
   147     0088                     	;# 
   148     0089                     	;# 
   149     008C                     	;# 
   150     008D                     	;# 
   151     008E                     	;# 
   152     0091                     	;# 
   153     0092                     	;# 
   154     0093                     	;# 
   155     0094                     	;# 
   156     0098                     	;# 
   157     0099                     	;# 
   158     009C                     	;# 
   159     009D                     	;# 
   160     009E                     	;# 
   161     009F                     	;# 
   162     010C                     	;# 
   163     010D                     	;# 
   164     010E                     	;# 
   165     010F                     	;# 
   166     018C                     	;# 
   167     018D                     	;# 
   168     0000                     	;# 
   169     0001                     	;# 
   170     0002                     	;# 
   171     0003                     	;# 
   172     0004                     	;# 
   173     0005                     	;# 
   174     0006                     	;# 
   175     0007                     	;# 
   176     0008                     	;# 
   177     0009                     	;# 
   178     000A                     	;# 
   179     000B                     	;# 
   180     000C                     	;# 
   181     000D                     	;# 
   182     000E                     	;# 
   183     000E                     	;# 
   184     000F                     	;# 
   185     0010                     	;# 
   186     0011                     	;# 
   187     0012                     	;# 
   188     0013                     	;# 
   189     0014                     	;# 
   190     0015                     	;# 
   191     0015                     	;# 
   192     0016                     	;# 
   193     0017                     	;# 
   194     0018                     	;# 
   195     0019                     	;# 
   196     001A                     	;# 
   197     001B                     	;# 
   198     001B                     	;# 
   199     001C                     	;# 
   200     001D                     	;# 
   201     001E                     	;# 
   202     001F                     	;# 
   203     0081                     	;# 
   204     0085                     	;# 
   205     0086                     	;# 
   206     0087                     	;# 
   207     0088                     	;# 
   208     0089                     	;# 
   209     008C                     	;# 
   210     008D                     	;# 
   211     008E                     	;# 
   212     0091                     	;# 
   213     0092                     	;# 
   214     0093                     	;# 
   215     0094                     	;# 
   216     0098                     	;# 
   217     0099                     	;# 
   218     009C                     	;# 
   219     009D                     	;# 
   220     009E                     	;# 
   221     009F                     	;# 
   222     010C                     	;# 
   223     010D                     	;# 
   224     010E                     	;# 
   225     010F                     	;# 
   226     018C                     	;# 
   227     018D                     	;# 
   228     0000                     	;# 
   229     0001                     	;# 
   230     0002                     	;# 
   231     0003                     	;# 
   232     0004                     	;# 
   233     0005                     	;# 
   234     0006                     	;# 
   235     0007                     	;# 
   236     0008                     	;# 
   237     0009                     	;# 
   238     000A                     	;# 
   239     000B                     	;# 
   240     000C                     	;# 
   241     000D                     	;# 
   242     000E                     	;# 
   243     000E                     	;# 
   244     000F                     	;# 
   245     0010                     	;# 
   246     0011                     	;# 
   247     0012                     	;# 
   248     0013                     	;# 
   249     0014                     	;# 
   250     0015                     	;# 
   251     0015                     	;# 
   252     0016                     	;# 
   253     0017                     	;# 
   254     0018                     	;# 
   255     0019                     	;# 
   256     001A                     	;# 
   257     001B                     	;# 
   258     001B                     	;# 
   259     001C                     	;# 
   260     001D                     	;# 
   261     001E                     	;# 
   262     001F                     	;# 
   263     0081                     	;# 
   264     0085                     	;# 
   265     0086                     	;# 
   266     0087                     	;# 
   267     0088                     	;# 
   268     0089                     	;# 
   269     008C                     	;# 
   270     008D                     	;# 
   271     008E                     	;# 
   272     0091                     	;# 
   273     0092                     	;# 
   274     0093                     	;# 
   275     0094                     	;# 
   276     0098                     	;# 
   277     0099                     	;# 
   278     009C                     	;# 
   279     009D                     	;# 
   280     009E                     	;# 
   281     009F                     	;# 
   282     010C                     	;# 
   283     010D                     	;# 
   284     010E                     	;# 
   285     010F                     	;# 
   286     018C                     	;# 
   287     018D                     	;# 
   288     0000                     	;# 
   289     0001                     	;# 
   290     0002                     	;# 
   291     0003                     	;# 
   292     0004                     	;# 
   293     0005                     	;# 
   294     0006                     	;# 
   295     0007                     	;# 
   296     0008                     	;# 
   297     0009                     	;# 
   298     000A                     	;# 
   299     000B                     	;# 
   300     000C                     	;# 
   301     000D                     	;# 
   302     000E                     	;# 
   303     000E                     	;# 
   304     000F                     	;# 
   305     0010                     	;# 
   306     0011                     	;# 
   307     0012                     	;# 
   308     0013                     	;# 
   309     0014                     	;# 
   310     0015                     	;# 
   311     0015                     	;# 
   312     0016                     	;# 
   313     0017                     	;# 
   314     0018                     	;# 
   315     0019                     	;# 
   316     001A                     	;# 
   317     001B                     	;# 
   318     001B                     	;# 
   319     001C                     	;# 
   320     001D                     	;# 
   321     001E                     	;# 
   322     001F                     	;# 
   323     0081                     	;# 
   324     0085                     	;# 
   325     0086                     	;# 
   326     0087                     	;# 
   327     0088                     	;# 
   328     0089                     	;# 
   329     008C                     	;# 
   330     008D                     	;# 
   331     008E                     	;# 
   332     0091                     	;# 
   333     0092                     	;# 
   334     0093                     	;# 
   335     0094                     	;# 
   336     0098                     	;# 
   337     0099                     	;# 
   338     009C                     	;# 
   339     009D                     	;# 
   340     009E                     	;# 
   341     009F                     	;# 
   342     010C                     	;# 
   343     010D                     	;# 
   344     010E                     	;# 
   345     010F                     	;# 
   346     018C                     	;# 
   347     018D                     	;# 
   348     0000                     	;# 
   349     0001                     	;# 
   350     0002                     	;# 
   351     0003                     	;# 
   352     0004                     	;# 
   353     0005                     	;# 
   354     0006                     	;# 
   355     0007                     	;# 
   356     0008                     	;# 
   357     0009                     	;# 
   358     000A                     	;# 
   359     000B                     	;# 
   360     000C                     	;# 
   361     000D                     	;# 
   362     000E                     	;# 
   363     000E                     	;# 
   364     000F                     	;# 
   365     0010                     	;# 
   366     0011                     	;# 
   367     0012                     	;# 
   368     0013                     	;# 
   369     0014                     	;# 
   370     0015                     	;# 
   371     0015                     	;# 
   372     0016                     	;# 
   373     0017                     	;# 
   374     0018                     	;# 
   375     0019                     	;# 
   376     001A                     	;# 
   377     001B                     	;# 
   378     001B                     	;# 
   379     001C                     	;# 
   380     001D                     	;# 
   381     001E                     	;# 
   382     001F                     	;# 
   383     0081                     	;# 
   384     0085                     	;# 
   385     0086                     	;# 
   386     0087                     	;# 
   387     0088                     	;# 
   388     0089                     	;# 
   389     008C                     	;# 
   390     008D                     	;# 
   391     008E                     	;# 
   392     0091                     	;# 
   393     0092                     	;# 
   394     0093                     	;# 
   395     0094                     	;# 
   396     0098                     	;# 
   397     0099                     	;# 
   398     009C                     	;# 
   399     009D                     	;# 
   400     009E                     	;# 
   401     009F                     	;# 
   402     010C                     	;# 
   403     010D                     	;# 
   404     010E                     	;# 
   405     010F                     	;# 
   406     018C                     	;# 
   407     018D                     	;# 
   408     0000                     	;# 
   409     0001                     	;# 
   410     0002                     	;# 
   411     0003                     	;# 
   412     0004                     	;# 
   413     0005                     	;# 
   414     0006                     	;# 
   415     0007                     	;# 
   416     0008                     	;# 
   417     0009                     	;# 
   418     000A                     	;# 
   419     000B                     	;# 
   420     000C                     	;# 
   421     000D                     	;# 
   422     000E                     	;# 
   423     000E                     	;# 
   424     000F                     	;# 
   425     0010                     	;# 
   426     0011                     	;# 
   427     0012                     	;# 
   428     0013                     	;# 
   429     0014                     	;# 
   430     0015                     	;# 
   431     0015                     	;# 
   432     0016                     	;# 
   433     0017                     	;# 
   434     0018                     	;# 
   435     0019                     	;# 
   436     001A                     	;# 
   437     001B                     	;# 
   438     001B                     	;# 
   439     001C                     	;# 
   440     001D                     	;# 
   441     001E                     	;# 
   442     001F                     	;# 
   443     0081                     	;# 
   444     0085                     	;# 
   445     0086                     	;# 
   446     0087                     	;# 
   447     0088                     	;# 
   448     0089                     	;# 
   449     008C                     	;# 
   450     008D                     	;# 
   451     008E                     	;# 
   452     0091                     	;# 
   453     0092                     	;# 
   454     0093                     	;# 
   455     0094                     	;# 
   456     0098                     	;# 
   457     0099                     	;# 
   458     009C                     	;# 
   459     009D                     	;# 
   460     009E                     	;# 
   461     009F                     	;# 
   462     010C                     	;# 
   463     010D                     	;# 
   464     010E                     	;# 
   465     010F                     	;# 
   466     018C                     	;# 
   467     018D                     	;# 
   468     0000                     	;# 
   469     0001                     	;# 
   470     0002                     	;# 
   471     0003                     	;# 
   472     0004                     	;# 
   473     0005                     	;# 
   474     0006                     	;# 
   475     0007                     	;# 
   476     0008                     	;# 
   477     0009                     	;# 
   478     000A                     	;# 
   479     000B                     	;# 
   480     000C                     	;# 
   481     000D                     	;# 
   482     000E                     	;# 
   483     000E                     	;# 
   484     000F                     	;# 
   485     0010                     	;# 
   486     0011                     	;# 
   487     0012                     	;# 
   488     0013                     	;# 
   489     0014                     	;# 
   490     0015                     	;# 
   491     0015                     	;# 
   492     0016                     	;# 
   493     0017                     	;# 
   494     0018                     	;# 
   495     0019                     	;# 
   496     001A                     	;# 
   497     001B                     	;# 
   498     001B                     	;# 
   499     001C                     	;# 
   500     001D                     	;# 
   501     001E                     	;# 
   502     001F                     	;# 
   503     0081                     	;# 
   504     0085                     	;# 
   505     0086                     	;# 
   506     0087                     	;# 
   507     0088                     	;# 
   508     0089                     	;# 
   509     008C                     	;# 
   510     008D                     	;# 
   511     008E                     	;# 
   512     0091                     	;# 
   513     0092                     	;# 
   514     0093                     	;# 
   515     0094                     	;# 
   516     0098                     	;# 
   517     0099                     	;# 
   518     009C                     	;# 
   519     009D                     	;# 
   520     009E                     	;# 
   521     009F                     	;# 
   522     010C                     	;# 
   523     010D                     	;# 
   524     010E                     	;# 
   525     010F                     	;# 
   526     018C                     	;# 
   527     018D                     	;# 
   528     0000                     	;# 
   529     0001                     	;# 
   530     0002                     	;# 
   531     0003                     	;# 
   532     0004                     	;# 
   533     0005                     	;# 
   534     0006                     	;# 
   535     0007                     	;# 
   536     0008                     	;# 
   537     0009                     	;# 
   538     000A                     	;# 
   539     000B                     	;# 
   540     000C                     	;# 
   541     000D                     	;# 
   542     000E                     	;# 
   543     000E                     	;# 
   544     000F                     	;# 
   545     0010                     	;# 
   546     0011                     	;# 
   547     0012                     	;# 
   548     0013                     	;# 
   549     0014                     	;# 
   550     0015                     	;# 
   551     0015                     	;# 
   552     0016                     	;# 
   553     0017                     	;# 
   554     0018                     	;# 
   555     0019                     	;# 
   556     001A                     	;# 
   557     001B                     	;# 
   558     001B                     	;# 
   559     001C                     	;# 
   560     001D                     	;# 
   561     001E                     	;# 
   562     001F                     	;# 
   563     0081                     	;# 
   564     0085                     	;# 
   565     0086                     	;# 
   566     0087                     	;# 
   567     0088                     	;# 
   568     0089                     	;# 
   569     008C                     	;# 
   570     008D                     	;# 
   571     008E                     	;# 
   572     0091                     	;# 
   573     0092                     	;# 
   574     0093                     	;# 
   575     0094                     	;# 
   576     0098                     	;# 
   577     0099                     	;# 
   578     009C                     	;# 
   579     009D                     	;# 
   580     009E                     	;# 
   581     009F                     	;# 
   582     010C                     	;# 
   583     010D                     	;# 
   584     010E                     	;# 
   585     010F                     	;# 
   586     018C                     	;# 
   587     018D                     	;# 
   588     0000                     	;# 
   589     0001                     	;# 
   590     0002                     	;# 
   591     0003                     	;# 
   592     0004                     	;# 
   593     0005                     	;# 
   594     0006                     	;# 
   595     0007                     	;# 
   596     0008                     	;# 
   597     0009                     	;# 
   598     000A                     	;# 
   599     000B                     	;# 
   600     000C                     	;# 
   601     000D                     	;# 
   602     000E                     	;# 
   603     000E                     	;# 
   604     000F                     	;# 
   605     0010                     	;# 
   606     0011                     	;# 
   607     0012                     	;# 
   608     0013                     	;# 
   609     0014                     	;# 
   610     0015                     	;# 
   611     0015                     	;# 
   612     0016                     	;# 
   613     0017                     	;# 
   614     0018                     	;# 
   615     0019                     	;# 
   616     001A                     	;# 
   617     001B                     	;# 
   618     001B                     	;# 
   619     001C                     	;# 
   620     001D                     	;# 
   621     001E                     	;# 
   622     001F                     	;# 
   623     0081                     	;# 
   624     0085                     	;# 
   625     0086                     	;# 
   626     0087                     	;# 
   627     0088                     	;# 
   628     0089                     	;# 
   629     008C                     	;# 
   630     008D                     	;# 
   631     008E                     	;# 
   632     0091                     	;# 
   633     0092                     	;# 
   634     0093                     	;# 
   635     0094                     	;# 
   636     0098                     	;# 
   637     0099                     	;# 
   638     009C                     	;# 
   639     009D                     	;# 
   640     009E                     	;# 
   641     009F                     	;# 
   642     010C                     	;# 
   643     010D                     	;# 
   644     010E                     	;# 
   645     010F                     	;# 
   646     018C                     	;# 
   647     018D                     	;# 
   648     0000                     	;# 
   649     0001                     	;# 
   650     0002                     	;# 
   651     0003                     	;# 
   652     0004                     	;# 
   653     0005                     	;# 
   654     0006                     	;# 
   655     0007                     	;# 
   656     0008                     	;# 
   657     0009                     	;# 
   658     000A                     	;# 
   659     000B                     	;# 
   660     000C                     	;# 
   661     000D                     	;# 
   662     000E                     	;# 
   663     000E                     	;# 
   664     000F                     	;# 
   665     0010                     	;# 
   666     0011                     	;# 
   667     0012                     	;# 
   668     0013                     	;# 
   669     0014                     	;# 
   670     0015                     	;# 
   671     0015                     	;# 
   672     0016                     	;# 
   673     0017                     	;# 
   674     0018                     	;# 
   675     0019                     	;# 
   676     001A                     	;# 
   677     001B                     	;# 
   678     001B                     	;# 
   679     001C                     	;# 
   680     001D                     	;# 
   681     001E                     	;# 
   682     001F                     	;# 
   683     0081                     	;# 
   684     0085                     	;# 
   685     0086                     	;# 
   686     0087                     	;# 
   687     0088                     	;# 
   688     0089                     	;# 
   689     008C                     	;# 
   690     008D                     	;# 
   691     008E                     	;# 
   692     0091                     	;# 
   693     0092                     	;# 
   694     0093                     	;# 
   695     0094                     	;# 
   696     0098                     	;# 
   697     0099                     	;# 
   698     009C                     	;# 
   699     009D                     	;# 
   700     009E                     	;# 
   701     009F                     	;# 
   702     010C                     	;# 
   703     010D                     	;# 
   704     010E                     	;# 
   705     010F                     	;# 
   706     018C                     	;# 
   707     018D                     	;# 
   708     0000                     	;# 
   709     0001                     	;# 
   710     0002                     	;# 
   711     0003                     	;# 
   712     0004                     	;# 
   713     0005                     	;# 
   714     0006                     	;# 
   715     0007                     	;# 
   716     0008                     	;# 
   717     0009                     	;# 
   718     000A                     	;# 
   719     000B                     	;# 
   720     000C                     	;# 
   721     000D                     	;# 
   722     000E                     	;# 
   723     000E                     	;# 
   724     000F                     	;# 
   725     0010                     	;# 
   726     0011                     	;# 
   727     0012                     	;# 
   728     0013                     	;# 
   729     0014                     	;# 
   730     0015                     	;# 
   731     0015                     	;# 
   732     0016                     	;# 
   733     0017                     	;# 
   734     0018                     	;# 
   735     0019                     	;# 
   736     001A                     	;# 
   737     001B                     	;# 
   738     001B                     	;# 
   739     001C                     	;# 
   740     001D                     	;# 
   741     001E                     	;# 
   742     001F                     	;# 
   743     0081                     	;# 
   744     0085                     	;# 
   745     0086                     	;# 
   746     0087                     	;# 
   747     0088                     	;# 
   748     0089                     	;# 
   749     008C                     	;# 
   750     008D                     	;# 
   751     008E                     	;# 
   752     0091                     	;# 
   753     0092                     	;# 
   754     0093                     	;# 
   755     0094                     	;# 
   756     0098                     	;# 
   757     0099                     	;# 
   758     009C                     	;# 
   759     009D                     	;# 
   760     009E                     	;# 
   761     009F                     	;# 
   762     010C                     	;# 
   763     010D                     	;# 
   764     010E                     	;# 
   765     010F                     	;# 
   766     018C                     	;# 
   767     018D                     	;# 
   768     0000                     	;# 
   769     0001                     	;# 
   770     0002                     	;# 
   771     0003                     	;# 
   772     0004                     	;# 
   773     0005                     	;# 
   774     0006                     	;# 
   775     0007                     	;# 
   776     0008                     	;# 
   777     0009                     	;# 
   778     000A                     	;# 
   779     000B                     	;# 
   780     000C                     	;# 
   781     000D                     	;# 
   782     000E                     	;# 
   783     000E                     	;# 
   784     000F                     	;# 
   785     0010                     	;# 
   786     0011                     	;# 
   787     0012                     	;# 
   788     0013                     	;# 
   789     0014                     	;# 
   790     0015                     	;# 
   791     0015                     	;# 
   792     0016                     	;# 
   793     0017                     	;# 
   794     0018                     	;# 
   795     0019                     	;# 
   796     001A                     	;# 
   797     001B                     	;# 
   798     001B                     	;# 
   799     001C                     	;# 
   800     001D                     	;# 
   801     001E                     	;# 
   802     001F                     	;# 
   803     0081                     	;# 
   804     0085                     	;# 
   805     0086                     	;# 
   806     0087                     	;# 
   807     0088                     	;# 
   808     0089                     	;# 
   809     008C                     	;# 
   810     008D                     	;# 
   811     008E                     	;# 
   812     0091                     	;# 
   813     0092                     	;# 
   814     0093                     	;# 
   815     0094                     	;# 
   816     0098                     	;# 
   817     0099                     	;# 
   818     009C                     	;# 
   819     009D                     	;# 
   820     009E                     	;# 
   821     009F                     	;# 
   822     010C                     	;# 
   823     010D                     	;# 
   824     010E                     	;# 
   825     010F                     	;# 
   826     018C                     	;# 
   827     018D                     	;# 
   828                           
   829                           	psect	idataCOMMON
   830     13C6                     __pidataCOMMON:
   831                           
   832                           ;initializer for _pos
   833     13C6  34FF               	retlw	255
   834     13C7  34FF               	retlw	255
   835                           
   836                           	psect	idataBANK0
   837     13C4                     __pidataBANK0:
   838                           
   839                           ;initializer for read_digital_keypad@switch_state
   840     13C4  343F               	retlw	63
   841                           
   842                           ;initializer for read_digital_keypad@once
   843     13C5  3401               	retlw	1
   844                           
   845                           	psect	idataBANK1
   846     1497                     __pidataBANK1:
   847                           
   848                           ;initializer for main@F1226
   849     1497  346C               	retlw	low (STR_30| (0+32768))
   850     1498  3489               	retlw	high (STR_30| (0+32768))
   851     1499  346F               	retlw	low (STR_31| (0+32768))
   852     149A  3489               	retlw	high (STR_31| (0+32768))
   853     149B  3460               	retlw	low (STR_32| (0+32768))
   854     149C  3489               	retlw	high (STR_32| (0+32768))
   855     149D  3463               	retlw	low (STR_33| (0+32768))
   856     149E  3489               	retlw	high (STR_33| (0+32768))
   857     149F  3466               	retlw	low (STR_34| (0+32768))
   858     14A0  3489               	retlw	high (STR_34| (0+32768))
   859     14A1  3469               	retlw	low (STR_35| (0+32768))
   860     14A2  3489               	retlw	high (STR_35| (0+32768))
   861                           
   862                           ;initializer for _menu
   863     14A3  343A               	retlw	low (STR_1| (0+32768))
   864     14A4  3489               	retlw	high (STR_1| (0+32768))
   865     14A5  3427               	retlw	low (STR_2| (0+32768))
   866     14A6  3489               	retlw	high (STR_2| (0+32768))
   867     14A7  340D               	retlw	low (STR_3| (0+32768))
   868     14A8  3489               	retlw	high (STR_3| (0+32768))
   869     14A9  3431               	retlw	low (STR_4| (0+32768))
   870     14AA  3489               	retlw	high (STR_4| (0+32768))
   871     14AB  34D7               	retlw	low (STR_5| (0+32768))
   872     14AC  3488               	retlw	high (STR_5| (0+32768))
   873                           
   874                           ;initializer for main@F1220
   875     14AD  344F               	retlw	79
   876     14AE  344E               	retlw	78
   877     14AF  3400               	retlw	0
   878     0019                     _TXREG	set	25
   879     001A                     _RCREG	set	26
   880     0001                     _TMR0	set	1
   881     0013                     _SSPBUF	set	19
   882     0006                     _PORTB	set	6
   883     0008                     _PORTD	set	8
   884     001E                     _ADRESH	set	30
   885     0064                     _TXIF	set	100
   886     0065                     _RCIF	set	101
   887     00C4                     _CREN	set	196
   888     00C7                     _SPEN	set	199
   889     0091                     _T2CKPS1	set	145
   890     0090                     _T2CKPS0	set	144
   891     005D                     _TMR0IE	set	93
   892     0061                     _TMR2IF	set	97
   893     0092                     _TMR2ON	set	146
   894     005E                     _PEIE	set	94
   895     005F                     _GIE	set	95
   896     00A5                     _SSPEN	set	165
   897     00A3                     _SSPM3	set	163
   898     0049                     _RE1	set	73
   899     004A                     _RE2	set	74
   900     00FA                     _nDONE	set	250
   901     00FA                     _GO	set	250
   902     00F8                     _ADON	set	248
   903     0099                     _SPBRG	set	153
   904     0092                     _PR2	set	146
   905     0091                     _SSPCON2	set	145
   906     0093                     _SSPADD	set	147
   907     0086                     _TRISB	set	134
   908     0088                     _TRISD	set	136
   909     009E                     _ADRESL	set	158
   910     0461                     _TMR2IE	set	1121
   911     040B                     _PSA	set	1035
   912     040D                     _T0CS	set	1037
   913     048E                     _ACKSTAT	set	1166
   914     048C                     _ACKEN	set	1164
   915     048D                     _ACKDT	set	1165
   916     048B                     _RCEN	set	1163
   917     048A                     _PEN	set	1162
   918     0488                     _SEN	set	1160
   919     04A2                     _R_nW	set	1186
   920     0449                     _TRISE1	set	1097
   921     044A                     _TRISE2	set	1098
   922     04FF                     _ADFM	set	1279
   923                           
   924                           	psect	strings
   925     1000                     __pstrings:
   926     1000                     stringtab:
   927     1000                     __stringtab:
   928                           
   929                           ;	String table - string pointers are 2 bytes each
   930     1000  1BFF               	btfsc	btemp+1,7
   931     1001  280A               	ljmp	stringcode
   932     1002  1383               	bcf	3,7
   933     1003  187F               	btfsc	btemp+1,0
   934     1004  1783               	bsf	3,7
   935     1005  0800               	movf	0,w
   936     1006  0A84               	incf	4,f
   937     1007  1903               	skipnz
   938     1008  0AFF               	incf	btemp+1,f
   939     1009  0008               	return
   940     100A                     stringcode:
   941     100A  087F               	movf	btemp+1,w
   942     100B  397F               	andlw	127
   943     100C  008A               	movwf	10
   944     100D  0804               	movf	4,w
   945     100E  0A84               	incf	4,f
   946     100F  1903               	skipnz
   947     1010  0AFF               	incf	btemp+1,f
   948     1011  0082               	movwf	2
   949     1012                     __stringbase:
   950     1012                     __end_of__stringtab:
   951                           
   952                           	psect	stringtext
   953     0800                     __pstringtext:
   954     0800                     STR_20:
   955     0800  3423               	retlw	35	;'#'
   956     0801  3420               	retlw	32	;' '
   957     0802  3420               	retlw	32	;' '
   958     0803  3420               	retlw	32	;' '
   959     0804  3420               	retlw	32	;' '
   960     0805  3420               	retlw	32	;' '
   961     0806  3454               	retlw	84	;'T'
   962     0807  3469               	retlw	105	;'i'
   963     0808  346D               	retlw	109	;'m'
   964     0809  3465               	retlw	101	;'e'
   965     080A  3420               	retlw	32	;' '
   966     080B  3420               	retlw	32	;' '
   967     080C  3420               	retlw	32	;' '
   968     080D  3420               	retlw	32	;' '
   969     080E  3420               	retlw	32	;' '
   970     080F  3420               	retlw	32	;' '
   971     0810  3420               	retlw	32	;' '
   972     0811  3420               	retlw	32	;' '
   973     0812  3445               	retlw	69	;'E'
   974     0813  3476               	retlw	118	;'v'
   975     0814  3465               	retlw	101	;'e'
   976     0815  346E               	retlw	110	;'n'
   977     0816  3474               	retlw	116	;'t'
   978     0817  3420               	retlw	32	;' '
   979     0818  3420               	retlw	32	;' '
   980     0819  3420               	retlw	32	;' '
   981     081A  3420               	retlw	32	;' '
   982     081B  3420               	retlw	32	;' '
   983     081C  3420               	retlw	32	;' '
   984     081D  3420               	retlw	32	;' '
   985     081E  3453               	retlw	83	;'S'
   986     081F  3470               	retlw	112	;'p'
   987     0820  3465               	retlw	101	;'e'
   988     0821  3465               	retlw	101	;'e'
   989     0822  3464               	retlw	100	;'d'
   990     0823  3400               	retlw	0
   991     0824                     STR_18:
   992     0824  344E               	retlw	78	;'N'
   993     0825  346F               	retlw	111	;'o'
   994     0826  3420               	retlw	32	;' '
   995     0827  346C               	retlw	108	;'l'
   996     0828  346F               	retlw	111	;'o'
   997     0829  3467               	retlw	103	;'g'
   998     082A  3473               	retlw	115	;'s'
   999     082B  3420               	retlw	32	;' '
  1000     082C  3461               	retlw	97	;'a'
  1001     082D  3476               	retlw	118	;'v'
  1002     082E  3461               	retlw	97	;'a'
  1003     082F  3469               	retlw	105	;'i'
  1004     0830  346C               	retlw	108	;'l'
  1005     0831  3461               	retlw	97	;'a'
  1006     0832  3462               	retlw	98	;'b'
  1007     0833  346C               	retlw	108	;'l'
  1008     0834  3465               	retlw	101	;'e'
  1009     0835  3400               	retlw	0
  1010     0836                     STR_39:
  1011     0836  3420               	retlw	32	;' '
  1012     0837  3420               	retlw	32	;' '
  1013     0838  3420               	retlw	32	;' '
  1014     0839  3420               	retlw	32	;' '
  1015     083A  3420               	retlw	32	;' '
  1016     083B  3420               	retlw	32	;' '
  1017     083C  344F               	retlw	79	;'O'
  1018     083D  3470               	retlw	112	;'p'
  1019     083E  3465               	retlw	101	;'e'
  1020     083F  346E               	retlw	110	;'n'
  1021     0840  3420               	retlw	32	;' '
  1022     0841  3420               	retlw	32	;' '
  1023     0842  3420               	retlw	32	;' '
  1024     0843  3420               	retlw	32	;' '
  1025     0844  3420               	retlw	32	;' '
  1026     0845  3420               	retlw	32	;' '
  1027     0846  3400               	retlw	0
  1028     0847                     STR_40:
  1029     0847  3420               	retlw	32	;' '
  1030     0848  3420               	retlw	32	;' '
  1031     0849  3420               	retlw	32	;' '
  1032     084A  3420               	retlw	32	;' '
  1033     084B  3420               	retlw	32	;' '
  1034     084C  3443               	retlw	67	;'C'
  1035     084D  3475               	retlw	117	;'u'
  1036     084E  3474               	retlw	116	;'t'
  1037     084F  3465               	retlw	101	;'e'
  1038     0850  3463               	retlw	99	;'c'
  1039     0851  346F               	retlw	111	;'o'
  1040     0852  346D               	retlw	109	;'m'
  1041     0853  3420               	retlw	32	;' '
  1042     0854  3420               	retlw	32	;' '
  1043     0855  3420               	retlw	32	;' '
  1044     0856  3420               	retlw	32	;' '
  1045     0857  3400               	retlw	0
  1046     0858                     STR_17:
  1047     0858  3420               	retlw	32	;' '
  1048     0859  3420               	retlw	32	;' '
  1049     085A  346C               	retlw	108	;'l'
  1050     085B  346F               	retlw	111	;'o'
  1051     085C  3467               	retlw	103	;'g'
  1052     085D  3473               	retlw	115	;'s'
  1053     085E  3420               	retlw	32	;' '
  1054     085F  3463               	retlw	99	;'c'
  1055     0860  346C               	retlw	108	;'l'
  1056     0861  3465               	retlw	101	;'e'
  1057     0862  3461               	retlw	97	;'a'
  1058     0863  3472               	retlw	114	;'r'
  1059     0864  3465               	retlw	101	;'e'
  1060     0865  3464               	retlw	100	;'d'
  1061     0866  3420               	retlw	32	;' '
  1062     0867  3420               	retlw	32	;' '
  1063     0868  3400               	retlw	0
  1064     0869                     STR_14:
  1065     0869  3423               	retlw	35	;'#'
  1066     086A  3420               	retlw	32	;' '
  1067     086B  3454               	retlw	84	;'T'
  1068     086C  3449               	retlw	73	;'I'
  1069     086D  344D               	retlw	77	;'M'
  1070     086E  3445               	retlw	69	;'E'
  1071     086F  3420               	retlw	32	;' '
  1072     0870  3420               	retlw	32	;' '
  1073     0871  3420               	retlw	32	;' '
  1074     0872  3420               	retlw	32	;' '
  1075     0873  3420               	retlw	32	;' '
  1076     0874  3445               	retlw	69	;'E'
  1077     0875  3420               	retlw	32	;' '
  1078     0876  3420               	retlw	32	;' '
  1079     0877  3453               	retlw	83	;'S'
  1080     0878  3450               	retlw	80	;'P'
  1081     0879  3400               	retlw	0
  1082     087A                     STR_16:
  1083     087A  344E               	retlw	78	;'N'
  1084     087B  346F               	retlw	111	;'o'
  1085     087C  3420               	retlw	32	;' '
  1086     087D  346C               	retlw	108	;'l'
  1087     087E  346F               	retlw	111	;'o'
  1088     087F  3467               	retlw	103	;'g'
  1089     0880  3473               	retlw	115	;'s'
  1090     0881  3420               	retlw	32	;' '
  1091     0882  3461               	retlw	97	;'a'
  1092     0883  3476               	retlw	118	;'v'
  1093     0884  3461               	retlw	97	;'a'
  1094     0885  346C               	retlw	108	;'l'
  1095     0886  3461               	retlw	97	;'a'
  1096     0887  3462               	retlw	98	;'b'
  1097     0888  346C               	retlw	108	;'l'
  1098     0889  3465               	retlw	101	;'e'
  1099     088A  3400               	retlw	0
  1100     088B                     STR_24:
  1101     088B  3454               	retlw	84	;'T'
  1102     088C  3469               	retlw	105	;'i'
  1103     088D  346D               	retlw	109	;'m'
  1104     088E  3465               	retlw	101	;'e'
  1105     088F  3420               	retlw	32	;' '
  1106     0890  3428               	retlw	40	;'('
  1107     0891  3448               	retlw	72	;'H'
  1108     0892  3448               	retlw	72	;'H'
  1109     0893  343A               	retlw	58	;':'
  1110     0894  344D               	retlw	77	;'M'
  1111     0895  344D               	retlw	77	;'M'
  1112     0896  343A               	retlw	58	;':'
  1113     0897  3453               	retlw	83	;'S'
  1114     0898  3453               	retlw	83	;'S'
  1115     0899  3429               	retlw	41	;')'
  1116     089A  3400               	retlw	0
  1117     089B                     STR_10:
  1118     089B  3459               	retlw	89	;'Y'
  1119     089C  346F               	retlw	111	;'o'
  1120     089D  3475               	retlw	117	;'u'
  1121     089E  3420               	retlw	32	;' '
  1122     089F  3461               	retlw	97	;'a'
  1123     08A0  3472               	retlw	114	;'r'
  1124     08A1  3465               	retlw	101	;'e'
  1125     08A2  3420               	retlw	32	;' '
  1126     08A3  3462               	retlw	98	;'b'
  1127     08A4  346C               	retlw	108	;'l'
  1128     08A5  346F               	retlw	111	;'o'
  1129     08A6  3463               	retlw	99	;'c'
  1130     08A7  346B               	retlw	107	;'k'
  1131     08A8  3465               	retlw	101	;'e'
  1132     08A9  3464               	retlw	100	;'d'
  1133     08AA  3400               	retlw	0
  1134     08AB                     STR_8:
  1135     08AB  3457               	retlw	87	;'W'
  1136     08AC  3472               	retlw	114	;'r'
  1137     08AD  346F               	retlw	111	;'o'
  1138     08AE  346E               	retlw	110	;'n'
  1139     08AF  3467               	retlw	103	;'g'
  1140     08B0  3420               	retlw	32	;' '
  1141     08B1  3470               	retlw	112	;'p'
  1142     08B2  3461               	retlw	97	;'a'
  1143     08B3  3473               	retlw	115	;'s'
  1144     08B4  3473               	retlw	115	;'s'
  1145     08B5  3477               	retlw	119	;'w'
  1146     08B6  3472               	retlw	114	;'r'
  1147     08B7  346F               	retlw	111	;'o'
  1148     08B8  3464               	retlw	100	;'d'
  1149     08B9  3400               	retlw	0
  1150     08BA                     STR_13:
  1151     08BA  3445               	retlw	69	;'E'
  1152     08BB  346E               	retlw	110	;'n'
  1153     08BC  3474               	retlw	116	;'t'
  1154     08BD  3465               	retlw	101	;'e'
  1155     08BE  3472               	retlw	114	;'r'
  1156     08BF  3420               	retlw	32	;' '
  1157     08C0  3450               	retlw	80	;'P'
  1158     08C1  3461               	retlw	97	;'a'
  1159     08C2  3473               	retlw	115	;'s'
  1160     08C3  3473               	retlw	115	;'s'
  1161     08C4  3477               	retlw	119	;'w'
  1162     08C5  346F               	retlw	111	;'o'
  1163     08C6  3472               	retlw	114	;'r'
  1164     08C7  3464               	retlw	100	;'d'
  1165     08C8  3400               	retlw	0
  1166     08C9                     STR_7:
  1167     08C9  344C               	retlw	76	;'L'
  1168     08CA  344F               	retlw	79	;'O'
  1169     08CB  3447               	retlw	71	;'G'
  1170     08CC  3449               	retlw	73	;'I'
  1171     08CD  344E               	retlw	78	;'N'
  1172     08CE  3420               	retlw	32	;' '
  1173     08CF  3453               	retlw	83	;'S'
  1174     08D0  3455               	retlw	85	;'U'
  1175     08D1  3443               	retlw	67	;'C'
  1176     08D2  3443               	retlw	67	;'C'
  1177     08D3  3445               	retlw	69	;'E'
  1178     08D4  3453               	retlw	83	;'S'
  1179     08D5  3453               	retlw	83	;'S'
  1180     08D6  3400               	retlw	0
  1181     08D7                     STR_5:
  1182     08D7  3443               	retlw	67	;'C'
  1183     08D8  3468               	retlw	104	;'h'
  1184     08D9  3461               	retlw	97	;'a'
  1185     08DA  346E               	retlw	110	;'n'
  1186     08DB  3467               	retlw	103	;'g'
  1187     08DC  3465               	retlw	101	;'e'
  1188     08DD  3420               	retlw	32	;' '
  1189     08DE  3470               	retlw	112	;'p'
  1190     08DF  3461               	retlw	97	;'a'
  1191     08E0  3473               	retlw	115	;'s'
  1192     08E1  3473               	retlw	115	;'s'
  1193     08E2  3477               	retlw	119	;'w'
  1194     08E3  3464               	retlw	100	;'d'
  1195     08E4  3400               	retlw	0
  1196     08E5                     STR_9:
  1197     08E5  3461               	retlw	97	;'a'
  1198     08E6  3474               	retlw	116	;'t'
  1199     08E7  3474               	retlw	116	;'t'
  1200     08E8  3465               	retlw	101	;'e'
  1201     08E9  346D               	retlw	109	;'m'
  1202     08EA  3470               	retlw	112	;'p'
  1203     08EB  3474               	retlw	116	;'t'
  1204     08EC  3473               	retlw	115	;'s'
  1205     08ED  3420               	retlw	32	;' '
  1206     08EE  346C               	retlw	108	;'l'
  1207     08EF  3465               	retlw	101	;'e'
  1208     08F0  3466               	retlw	102	;'f'
  1209     08F1  3474               	retlw	116	;'t'
  1210     08F2  3400               	retlw	0
  1211     08F3                     STR_23:
  1212     08F3  3420               	retlw	32	;' '
  1213     08F4  3420               	retlw	32	;' '
  1214     08F5  3420               	retlw	32	;' '
  1215     08F6  3420               	retlw	32	;' '
  1216     08F7  3420               	retlw	32	;' '
  1217     08F8  3420               	retlw	32	;' '
  1218     08F9  3420               	retlw	32	;' '
  1219     08FA  3420               	retlw	32	;' '
  1220     08FB  3420               	retlw	32	;' '
  1221     08FC  3420               	retlw	32	;' '
  1222     08FD  3420               	retlw	32	;' '
  1223     08FE  3420               	retlw	32	;' '
  1224     08FF  3400               	retlw	0
  1225     0900                     STR_25:
  1226     0900  3454               	retlw	84	;'T'
  1227     0901  3469               	retlw	105	;'i'
  1228     0902  346D               	retlw	109	;'m'
  1229     0903  3465               	retlw	101	;'e'
  1230     0904  3420               	retlw	32	;' '
  1231     0905  3463               	retlw	99	;'c'
  1232     0906  3468               	retlw	104	;'h'
  1233     0907  3461               	retlw	97	;'a'
  1234     0908  346E               	retlw	110	;'n'
  1235     0909  3467               	retlw	103	;'g'
  1236     090A  3465               	retlw	101	;'e'
  1237     090B  3464               	retlw	100	;'d'
  1238     090C  3400               	retlw	0
  1239     090D                     STR_3:
  1240     090D  3444               	retlw	68	;'D'
  1241     090E  346F               	retlw	111	;'o'
  1242     090F  3477               	retlw	119	;'w'
  1243     0910  346E               	retlw	110	;'n'
  1244     0911  346C               	retlw	108	;'l'
  1245     0912  346F               	retlw	111	;'o'
  1246     0913  3461               	retlw	97	;'a'
  1247     0914  3464               	retlw	100	;'d'
  1248     0915  3420               	retlw	32	;' '
  1249     0916  346C               	retlw	108	;'l'
  1250     0917  346F               	retlw	111	;'o'
  1251     0918  3467               	retlw	103	;'g'
  1252     0919  3400               	retlw	0
  1253     091A                     STR_26:
  1254     091A  3453               	retlw	83	;'S'
  1255     091B  3475               	retlw	117	;'u'
  1256     091C  3463               	retlw	99	;'c'
  1257     091D  3463               	retlw	99	;'c'
  1258     091E  3465               	retlw	101	;'e'
  1259     091F  3473               	retlw	115	;'s'
  1260     0920  3473               	retlw	115	;'s'
  1261     0921  3466               	retlw	102	;'f'
  1262     0922  3475               	retlw	117	;'u'
  1263     0923  346C               	retlw	108	;'l'
  1264     0924  346C               	retlw	108	;'l'
  1265     0925  3479               	retlw	121	;'y'
  1266     0926  3400               	retlw	0
  1267     0927                     STR_2:
  1268     0927  3443               	retlw	67	;'C'
  1269     0928  346C               	retlw	108	;'l'
  1270     0929  3465               	retlw	101	;'e'
  1271     092A  3461               	retlw	97	;'a'
  1272     092B  3472               	retlw	114	;'r'
  1273     092C  3420               	retlw	32	;' '
  1274     092D  346C               	retlw	108	;'l'
  1275     092E  346F               	retlw	111	;'o'
  1276     092F  3467               	retlw	103	;'g'
  1277     0930  3400               	retlw	0
  1278     0931                     STR_4:
  1279     0931  3453               	retlw	83	;'S'
  1280     0932  3465               	retlw	101	;'e'
  1281     0933  3474               	retlw	116	;'t'
  1282     0934  3420               	retlw	32	;' '
  1283     0935  3474               	retlw	116	;'t'
  1284     0936  3469               	retlw	105	;'i'
  1285     0937  346D               	retlw	109	;'m'
  1286     0938  3465               	retlw	101	;'e'
  1287     0939  3400               	retlw	0
  1288     093A                     STR_1:
  1289     093A  3456               	retlw	86	;'V'
  1290     093B  3469               	retlw	105	;'i'
  1291     093C  3465               	retlw	101	;'e'
  1292     093D  3477               	retlw	119	;'w'
  1293     093E  3420               	retlw	32	;' '
  1294     093F  346C               	retlw	108	;'l'
  1295     0940  346F               	retlw	111	;'o'
  1296     0941  3467               	retlw	103	;'g'
  1297     0942  3400               	retlw	0
  1298     0943                     STR_11:
  1299     0943  3477               	retlw	119	;'w'
  1300     0944  3461               	retlw	97	;'a'
  1301     0945  3469               	retlw	105	;'i'
  1302     0946  3474               	retlw	116	;'t'
  1303     0947  3420               	retlw	32	;' '
  1304     0948  3466               	retlw	102	;'f'
  1305     0949  346F               	retlw	111	;'o'
  1306     094A  3472               	retlw	114	;'r'
  1307     094B  3400               	retlw	0
  1308     094C                     STR_19:
  1309     094C  344C               	retlw	76	;'L'
  1310     094D  346F               	retlw	111	;'o'
  1311     094E  3467               	retlw	103	;'g'
  1312     094F  3473               	retlw	115	;'s'
  1313     0950  3420               	retlw	32	;' '
  1314     0951  343A               	retlw	58	;':'
  1315     0952  3400               	retlw	0
  1316     0953                     STR_36:
  1317     0953  3431               	retlw	49	;'1'
  1318     0954  3431               	retlw	49	;'1'
  1319     0955  3431               	retlw	49	;'1'
  1320     0956  3431               	retlw	49	;'1'
  1321     0957  3400               	retlw	0
  1322     0958                     STR_12:
  1323     0958  3473               	retlw	115	;'s'
  1324     0959  3465               	retlw	101	;'e'
  1325     095A  3463               	retlw	99	;'c'
  1326     095B  3473               	retlw	115	;'s'
  1327     095C  3400               	retlw	0
  1328     095D                     STR_37:
  1329     095D  3443               	retlw	67	;'C'
  1330     095E  3420               	retlw	32	;' '
  1331     095F  3400               	retlw	0
  1332     0960                     STR_32:
  1333     0960  3447               	retlw	71	;'G'
  1334     0961  3431               	retlw	49	;'1'
  1335     0962  3400               	retlw	0
  1336     0963                     STR_33:
  1337     0963  3447               	retlw	71	;'G'
  1338     0964  3432               	retlw	50	;'2'
  1339     0965  3400               	retlw	0
  1340     0966                     STR_34:
  1341     0966  3447               	retlw	71	;'G'
  1342     0967  3433               	retlw	51	;'3'
  1343     0968  3400               	retlw	0
  1344     0969                     STR_35:
  1345     0969  3447               	retlw	71	;'G'
  1346     096A  3434               	retlw	52	;'4'
  1347     096B  3400               	retlw	0
  1348     096C                     STR_30:
  1349     096C  3447               	retlw	71	;'G'
  1350     096D  344E               	retlw	78	;'N'
  1351     096E  3400               	retlw	0
  1352     096F                     STR_31:
  1353     096F  3447               	retlw	71	;'G'
  1354     0970  3452               	retlw	82	;'R'
  1355     0971  3400               	retlw	0
  1356     08FD                     
  1357                           	psect	cinit
  1358     000F                     start_initialization:	
  1359                           ; #config settings
  1360                           
  1361     000F                     __initialization:
  1362                           
  1363                           ; Initialize objects allocated to BANK1
  1364     000F  1383               	bcf	3,7	;select IRP bank0
  1365     0010  30B9               	movlw	low (__pdataBANK1+25)
  1366     0011  00FD               	movwf	btemp+-1
  1367     0012  3014               	movlw	high __pidataBANK1
  1368     0013  00FE               	movwf	btemp
  1369     0014  3097               	movlw	low __pidataBANK1
  1370     0015  00FF               	movwf	btemp+1
  1371     0016  30A0               	movlw	low __pdataBANK1
  1372     0017  0084               	movwf	4
  1373     0018  160A  118A  245E  120A  118A  	fcall	init_ram0
  1374                           
  1375                           ; Initialize objects allocated to BANK0
  1376     001D  160A  118A  23C4  120A  118A  	fcall	__pidataBANK0	;fetch initializer
  1377     0022  00EE               	movwf	__pdataBANK0& (0+127)
  1378     0023  160A  118A  23C5  120A  118A  	fcall	__pidataBANK0+1	;fetch initializer
  1379     0028  00EF               	movwf	(__pdataBANK0+1)& (0+127)
  1380                           
  1381                           ; Initialize objects allocated to COMMON
  1382     0029  160A  118A  23C6  120A  118A  	fcall	__pidataCOMMON	;fetch initializer
  1383     002E  00FA               	movwf	__pdataCOMMON& (0+127)
  1384     002F  160A  118A  23C7  120A  118A  	fcall	__pidataCOMMON+1	;fetch initializer
  1385     0034  00FB               	movwf	(__pdataCOMMON+1)& (0+127)
  1386                           
  1387                           ; Clear objects allocated to BANK1
  1388     0035  30B9               	movlw	low __pbssBANK1
  1389     0036  0084               	movwf	4
  1390     0037  30C8               	movlw	low (__pbssBANK1+15)
  1391     0038  160A  118A  23CF  120A  118A  	fcall	clear_ram0
  1392                           
  1393                           ; Clear objects allocated to BANK0
  1394     003D  304B               	movlw	low __pbssBANK0
  1395     003E  0084               	movwf	4
  1396     003F  306E               	movlw	low (__pbssBANK0+35)
  1397     0040  160A  118A  23CF  120A  118A  	fcall	clear_ram0
  1398     0045                     end_of_initialization:	
  1399                           ;End of C runtime variable initialization code
  1400                           
  1401     0045                     __end_of__initialization:
  1402     0045  0183               	clrf	3
  1403     0046  120A  118A  2B17   	ljmp	_main	;jump to C main() function
  1404                           
  1405                           	psect	dataCOMMON
  1406     007A                     __pdataCOMMON:
  1407     007A                     _pos:
  1408     007A                     	ds	2
  1409                           
  1410                           	psect	bssBANK0
  1411     004B                     __pbssBANK0:
  1412     004B                     change_time@new_time:
  1413     004B                     	ds	6
  1414     0051                     _clock_reg:
  1415     0051                     	ds	3
  1416     0054                     isr@count:
  1417     0054                     	ds	2
  1418     0056                     read_digital_keypad@long_press:
  1419     0056                     	ds	2
  1420     0058                     change_time@blink_pos:
  1421     0058                     	ds	2
  1422     005A                     _index:
  1423     005A                     	ds	2
  1424     005C                     _roll_over_flag:
  1425     005C                     	ds	2
  1426     005E                     change_time@t_done:
  1427     005E                     	ds	1
  1428     005F                     change_time@blink:
  1429     005F                     	ds	1
  1430     0060                     change_time@wait:
  1431     0060                     	ds	1
  1432     0061                     login@attempt_left:
  1433     0061                     	ds	1
  1434     0062                     login@i:
  1435     0062                     	ds	1
  1436     0063                     menu_screen@menu_pos:
  1437     0063                     	ds	1
  1438     0064                     _ret_time:
  1439     0064                     	ds	1
  1440     0065                     _sec:
  1441     0065                     	ds	1
  1442     0066                     _ret_time_edit:
  1443     0066                     	ds	1
  1444     0067                     _time:
  1445     0067                     	ds	7
  1446                           
  1447                           	psect	dataBANK0
  1448     006E                     __pdataBANK0:
  1449     006E                     read_digital_keypad@switch_state:
  1450     006E                     	ds	1
  1451     006F                     read_digital_keypad@once:
  1452     006F                     	ds	1
  1453                           
  1454                           	psect	bssBANK1
  1455     00B9                     __pbssBANK1:
  1456     00B9                     _log:
  1457     00B9                     	ds	11
  1458     00C4                     login@u_password:
  1459     00C4                     	ds	4
  1460                           
  1461                           	psect	dataBANK1
  1462     00A0                     __pdataBANK1:
  1463     00A0                     main@F1226:
  1464     00A0                     	ds	12
  1465     00AC                     _menu:
  1466     00AC                     	ds	10
  1467     00B6                     main@F1220:
  1468     00B6                     	ds	3
  1469                           
  1470                           	psect	inittext
  1471     145A                     init_fetch0:	
  1472                           ;	Called with low address in FSR and high address in W
  1473                           
  1474     145A  087E               	movf	btemp,w
  1475     145B  008A               	movwf	10
  1476     145C  087F               	movf	btemp+1,w
  1477     145D  0082               	movwf	2
  1478     145E                     init_ram0:	
  1479                           ;Called with:
  1480                           ;	high address of idata address in btemp 
  1481                           ;	low address of idata address in btemp+1 
  1482                           ;	low address of data in FSR
  1483                           ;	high address + 1 of data in btemp-1
  1484                           
  1485     145E  160A  118A  245A  160A  118A  	fcall	init_fetch0
  1486     1463  0080               	movwf	0
  1487     1464  0A84               	incf	4,f
  1488     1465  0804               	movf	4,w
  1489     1466  067D               	xorwf	btemp+-1,w
  1490     1467  1903               	btfsc	3,2
  1491     1468  3400               	retlw	0
  1492     1469  0AFF               	incf	btemp+1,f
  1493     146A  1903               	btfsc	3,2
  1494     146B  0AFE               	incf	btemp,f
  1495     146C  2C5E               	goto	init_ram0
  1496                           
  1497                           	psect	clrtext
  1498     13CF                     clear_ram0:	
  1499                           ;	Called with FSR containing the base address, and
  1500                           ;	W with the last address+1
  1501                           
  1502     13CF  0064               	clrwdt	;clear the watchdog before getting into this loop
  1503     13D0                     clrloop0:
  1504     13D0  0180               	clrf	0	;clear RAM location pointed to by FSR
  1505     13D1  0A84               	incf	4,f	;increment pointer
  1506     13D2  0604               	xorwf	4,w	;XOR with final address
  1507     13D3  1903               	btfsc	3,2	;have we reached the end yet?
  1508     13D4  3400               	retlw	0	;all done for this memory range, return
  1509     13D5  0604               	xorwf	4,w	;XOR again to restore value
  1510     13D6  2BD0               	goto	clrloop0	;do the next byte
  1511                           
  1512                           	psect	cstackCOMMON
  1513     0070                     __pcstackCOMMON:
  1514     0070                     ?_read_ds1307:
  1515     0070                     ?_clear_screen:	
  1516                           ; 1 bytes @ 0x0
  1517                           
  1518     0070                     ?_eeprom_at24c04_read:	
  1519                           ; 1 bytes @ 0x0
  1520                           
  1521     0070                     ?_putchar:	
  1522                           ; 1 bytes @ 0x0
  1523                           
  1524     0070                     ?_i2c_start:	
  1525                           ; 1 bytes @ 0x0
  1526                           
  1527     0070                     ?_i2c_rep_start:	
  1528                           ; 1 bytes @ 0x0
  1529                           
  1530     0070                     ?_i2c_read:	
  1531                           ; 1 bytes @ 0x0
  1532                           
  1533     0070                     ?_i2c_stop:	
  1534                           ; 1 bytes @ 0x0
  1535                           
  1536     0070                     ?_init_timer2:	
  1537                           ; 1 bytes @ 0x0
  1538                           
  1539     0070                     ?_init_adc:	
  1540                           ; 1 bytes @ 0x0
  1541                           
  1542     0070                     ?_get_time:	
  1543                           ; 1 bytes @ 0x0
  1544                           
  1545     0070                     ?_display_time:	
  1546                           ; 1 bytes @ 0x0
  1547                           
  1548     0070                     ?_log_event:	
  1549                           ; 1 bytes @ 0x0
  1550                           
  1551     0070                     ?_clear_log:	
  1552                           ; 1 bytes @ 0x0
  1553                           
  1554     0070                     ?_download_log:	
  1555                           ; 1 bytes @ 0x0
  1556                           
  1557     0070                     ?_init_display_controller:	
  1558                           ; 1 bytes @ 0x0
  1559                           
  1560     0070                     ?_init_clcd:	
  1561                           ; 1 bytes @ 0x0
  1562                           
  1563     0070                     ?_init_digital_keypad:	
  1564                           ; 1 bytes @ 0x0
  1565                           
  1566     0070                     ?_read_digital_keypad:	
  1567                           ; 1 bytes @ 0x0
  1568                           
  1569     0070                     ?_init_ds1307:	
  1570                           ; 1 bytes @ 0x0
  1571                           
  1572     0070                     ?_i2c_wait_for_idle:	
  1573                           ; 1 bytes @ 0x0
  1574                           
  1575     0070                     ?_init_config:	
  1576                           ; 1 bytes @ 0x0
  1577                           
  1578     0070                     ?_main:	
  1579                           ; 1 bytes @ 0x0
  1580                           
  1581     0070                     ?_isr:	
  1582                           ; 1 bytes @ 0x0
  1583                           
  1584     0070                     ??_isr:	
  1585                           ; 1 bytes @ 0x0
  1586                           
  1587     0070                     ?_i2c_write:	
  1588                           ; 1 bytes @ 0x0
  1589                           
  1590                           
  1591                           ; 2 bytes @ 0x0
  1592     0070                     	ds	2
  1593     0072                     ?_strncpy:
  1594     0072                     ?_clcd_write:	
  1595                           ; 1 bytes @ 0x2
  1596                           
  1597     0072                     ??_putchar:	
  1598                           ; 1 bytes @ 0x2
  1599                           
  1600     0072                     ??_i2c_start:	
  1601                           ; 1 bytes @ 0x2
  1602                           
  1603     0072                     ??_i2c_write:	
  1604                           ; 1 bytes @ 0x2
  1605                           
  1606     0072                     ??_i2c_rep_start:	
  1607                           ; 1 bytes @ 0x2
  1608                           
  1609     0072                     ??_i2c_read:	
  1610                           ; 1 bytes @ 0x2
  1611                           
  1612     0072                     ??_i2c_stop:	
  1613                           ; 1 bytes @ 0x2
  1614                           
  1615     0072                     ??_init_timer2:	
  1616                           ; 1 bytes @ 0x2
  1617                           
  1618     0072                     ?_strcpy:	
  1619                           ; 1 bytes @ 0x2
  1620                           
  1621     0072                     ??_init_adc:	
  1622                           ; 1 bytes @ 0x2
  1623                           
  1624     0072                     ??_init_digital_keypad:	
  1625                           ; 1 bytes @ 0x2
  1626                           
  1627     0072                     ??_read_digital_keypad:	
  1628                           ; 1 bytes @ 0x2
  1629                           
  1630     0072                     ??_i2c_wait_for_idle:	
  1631                           ; 1 bytes @ 0x2
  1632                           
  1633     0072                     ?___bmul:	
  1634                           ; 1 bytes @ 0x2
  1635                           
  1636     0072                     ?_strncmp:	
  1637                           ; 1 bytes @ 0x2
  1638                           
  1639     0072                     ?_read_adc:	
  1640                           ; 2 bytes @ 0x2
  1641                           
  1642     0072                     ?___wmul:	
  1643                           ; 2 bytes @ 0x2
  1644                           
  1645     0072                     ?___awdiv:	
  1646                           ; 2 bytes @ 0x2
  1647                           
  1648     0072                     ?___awmod:	
  1649                           ; 2 bytes @ 0x2
  1650                           
  1651     0072                     ?___lwmod:	
  1652                           ; 2 bytes @ 0x2
  1653                           
  1654     0072                     ?___lldiv:	
  1655                           ; 2 bytes @ 0x2
  1656                           
  1657     0072                     clcd_write@mode:	
  1658                           ; 4 bytes @ 0x2
  1659                           
  1660     0072                     read_digital_keypad@mode:	
  1661                           ; 1 bytes @ 0x2
  1662                           
  1663     0072                     i2c_read@ack:	
  1664                           ; 1 bytes @ 0x2
  1665                           
  1666     0072                     i2c_write@data:	
  1667                           ; 1 bytes @ 0x2
  1668                           
  1669     0072                     putchar@data:	
  1670                           ; 1 bytes @ 0x2
  1671                           
  1672     0072                     ___bmul@multiplicand:	
  1673                           ; 1 bytes @ 0x2
  1674                           
  1675     0072                     strncmp@r:	
  1676                           ; 1 bytes @ 0x2
  1677                           
  1678     0072                     strncpy@s:	
  1679                           ; 1 bytes @ 0x2
  1680                           
  1681     0072                     ___wmul@multiplier:	
  1682                           ; 1 bytes @ 0x2
  1683                           
  1684     0072                     ___awdiv@divisor:	
  1685                           ; 2 bytes @ 0x2
  1686                           
  1687     0072                     ___awmod@divisor:	
  1688                           ; 2 bytes @ 0x2
  1689                           
  1690     0072                     ___lwmod@divisor:	
  1691                           ; 2 bytes @ 0x2
  1692                           
  1693     0072                     strcpy@src:	
  1694                           ; 2 bytes @ 0x2
  1695                           
  1696     0072                     ___lldiv@divisor:	
  1697                           ; 2 bytes @ 0x2
  1698                           
  1699                           
  1700                           ; 4 bytes @ 0x2
  1701     0072                     	ds	1
  1702     0073                     ??_clcd_write:
  1703     0073                     ?_puts:	
  1704                           ; 1 bytes @ 0x3
  1705                           
  1706     0073                     ?_write_ds1307:	
  1707                           ; 1 bytes @ 0x3
  1708                           
  1709     0073                     ?_eeprom_at24c04_byte_write:	
  1710                           ; 1 bytes @ 0x3
  1711                           
  1712     0073                     ??___bmul:	
  1713                           ; 1 bytes @ 0x3
  1714                           
  1715     0073                     write_ds1307@data:	
  1716                           ; 1 bytes @ 0x3
  1717                           
  1718     0073                     eeprom_at24c04_byte_write@data:	
  1719                           ; 1 bytes @ 0x3
  1720                           
  1721     0073                     i2c_read@data:	
  1722                           ; 1 bytes @ 0x3
  1723                           
  1724     0073                     ___bmul@product:	
  1725                           ; 1 bytes @ 0x3
  1726                           
  1727     0073                     _read_digital_keypad$221:	
  1728                           ; 1 bytes @ 0x3
  1729                           
  1730     0073                     puts@s:	
  1731                           ; 2 bytes @ 0x3
  1732                           
  1733     0073                     strncmp@n:	
  1734                           ; 2 bytes @ 0x3
  1735                           
  1736     0073                     strncpy@n:	
  1737                           ; 2 bytes @ 0x3
  1738                           
  1739                           
  1740                           ; 2 bytes @ 0x3
  1741     0073                     	ds	1
  1742     0074                     ??_read_ds1307:
  1743     0074                     ??_eeprom_at24c04_read:	
  1744                           ; 1 bytes @ 0x4
  1745                           
  1746     0074                     ??_write_ds1307:	
  1747                           ; 1 bytes @ 0x4
  1748                           
  1749     0074                     ??_eeprom_at24c04_byte_write:	
  1750                           ; 1 bytes @ 0x4
  1751                           
  1752     0074                     ??_strcpy:	
  1753                           ; 1 bytes @ 0x4
  1754                           
  1755     0074                     ??_read_adc:	
  1756                           ; 1 bytes @ 0x4
  1757                           
  1758     0074                     read_ds1307@addr:	
  1759                           ; 1 bytes @ 0x4
  1760                           
  1761     0074                     write_ds1307@addr:	
  1762                           ; 1 bytes @ 0x4
  1763                           
  1764     0074                     eeprom_at24c04_read@addr:	
  1765                           ; 1 bytes @ 0x4
  1766                           
  1767     0074                     eeprom_at24c04_byte_write@addr:	
  1768                           ; 1 bytes @ 0x4
  1769                           
  1770     0074                     ___bmul@multiplier:	
  1771                           ; 1 bytes @ 0x4
  1772                           
  1773     0074                     read_adc@adc_reg_val:	
  1774                           ; 1 bytes @ 0x4
  1775                           
  1776     0074                     ___wmul@multiplicand:	
  1777                           ; 2 bytes @ 0x4
  1778                           
  1779     0074                     ___awdiv@dividend:	
  1780                           ; 2 bytes @ 0x4
  1781                           
  1782     0074                     ___awmod@dividend:	
  1783                           ; 2 bytes @ 0x4
  1784                           
  1785     0074                     ___lwmod@dividend:	
  1786                           ; 2 bytes @ 0x4
  1787                           
  1788                           
  1789                           ; 2 bytes @ 0x4
  1790     0074                     	ds	1
  1791     0075                     ?_eeprom_at24c04_str_write:
  1792     0075                     ??_strncpy:	
  1793                           ; 1 bytes @ 0x5
  1794                           
  1795     0075                     ??_strncmp:	
  1796                           ; 1 bytes @ 0x5
  1797                           
  1798     0075                     ??_puts:	
  1799                           ; 1 bytes @ 0x5
  1800                           
  1801     0075                     clcd_write@byte:	
  1802                           ; 1 bytes @ 0x5
  1803                           
  1804     0075                     read_digital_keypad@temp:	
  1805                           ; 1 bytes @ 0x5
  1806                           
  1807     0075                     read_ds1307@data:	
  1808                           ; 1 bytes @ 0x5
  1809                           
  1810     0075                     eeprom_at24c04_read@data:	
  1811                           ; 1 bytes @ 0x5
  1812                           
  1813     0075                     strncpy@d:	
  1814                           ; 1 bytes @ 0x5
  1815                           
  1816     0075                     eeprom_at24c04_str_write@data:	
  1817                           ; 1 bytes @ 0x5
  1818                           
  1819                           
  1820                           ; 2 bytes @ 0x5
  1821     0075                     	ds	1
  1822     0076                     ?_clcd_print:
  1823     0076                     ??_clear_screen:	
  1824                           ; 1 bytes @ 0x6
  1825                           
  1826     0076                     ??_get_time:	
  1827                           ; 1 bytes @ 0x6
  1828                           
  1829     0076                     ??_download_log:	
  1830                           ; 1 bytes @ 0x6
  1831                           
  1832     0076                     ??_init_display_controller:	
  1833                           ; 1 bytes @ 0x6
  1834                           
  1835     0076                     ??_init_ds1307:	
  1836                           ; 1 bytes @ 0x6
  1837                           
  1838     0076                     ??___wmul:	
  1839                           ; 1 bytes @ 0x6
  1840                           
  1841     0076                     ??___awdiv:	
  1842                           ; 1 bytes @ 0x6
  1843                           
  1844     0076                     ??___awmod:	
  1845                           ; 1 bytes @ 0x6
  1846                           
  1847     0076                     ??___lwmod:	
  1848                           ; 1 bytes @ 0x6
  1849                           
  1850     0076                     ?___lwdiv:	
  1851                           ; 1 bytes @ 0x6
  1852                           
  1853     0076                     read_digital_keypad@key:	
  1854                           ; 2 bytes @ 0x6
  1855                           
  1856     0076                     init_ds1307@dummy:	
  1857                           ; 1 bytes @ 0x6
  1858                           
  1859     0076                     ___awdiv@counter:	
  1860                           ; 1 bytes @ 0x6
  1861                           
  1862     0076                     ___awmod@counter:	
  1863                           ; 1 bytes @ 0x6
  1864                           
  1865     0076                     ___lwmod@counter:	
  1866                           ; 1 bytes @ 0x6
  1867                           
  1868     0076                     strcpy@d:	
  1869                           ; 1 bytes @ 0x6
  1870                           
  1871     0076                     strncpy@cp:	
  1872                           ; 1 bytes @ 0x6
  1873                           
  1874     0076                     clcd_print@str:	
  1875                           ; 1 bytes @ 0x6
  1876                           
  1877     0076                     ___wmul@product:	
  1878                           ; 2 bytes @ 0x6
  1879                           
  1880     0076                     ___lwdiv@divisor:	
  1881                           ; 2 bytes @ 0x6
  1882                           
  1883     0076                     ___lldiv@dividend:	
  1884                           ; 2 bytes @ 0x6
  1885                           
  1886                           
  1887                           ; 4 bytes @ 0x6
  1888     0076                     	ds	1
  1889     0077                     ??_eeprom_at24c04_str_write:
  1890     0077                     eeprom_at24c04_str_write@addr:	
  1891                           ; 1 bytes @ 0x7
  1892                           
  1893     0077                     ___awdiv@sign:	
  1894                           ; 1 bytes @ 0x7
  1895                           
  1896     0077                     ___awmod@sign:	
  1897                           ; 1 bytes @ 0x7
  1898                           
  1899     0077                     strcpy@dest:	
  1900                           ; 1 bytes @ 0x7
  1901                           
  1902     0077                     strncmp@l:	
  1903                           ; 1 bytes @ 0x7
  1904                           
  1905                           
  1906                           ; 1 bytes @ 0x7
  1907     0077                     	ds	1
  1908     0078                     ??_log_event:
  1909     0078                     ??_init_clcd:	
  1910                           ; 1 bytes @ 0x8
  1911                           
  1912     0078                     log_event@addr:	
  1913                           ; 1 bytes @ 0x8
  1914                           
  1915     0078                     clcd_print@addr:	
  1916                           ; 1 bytes @ 0x8
  1917                           
  1918     0078                     ___awdiv@quotient:	
  1919                           ; 1 bytes @ 0x8
  1920                           
  1921     0078                     ___lwdiv@dividend:	
  1922                           ; 2 bytes @ 0x8
  1923                           
  1924                           
  1925                           ; 2 bytes @ 0x8
  1926     0078                     	ds	1
  1927     0079                     ??_clcd_print:
  1928                           
  1929                           ; 1 bytes @ 0x9
  1930     0079                     	ds	1
  1931     007A                     ??_clcd_putch:
  1932     007A                     ??_display_time:	
  1933                           ; 1 bytes @ 0xA
  1934                           
  1935     007A                     ??_display_logs:	
  1936                           ; 1 bytes @ 0xA
  1937                           
  1938     007A                     ??_init_config:	
  1939                           ; 1 bytes @ 0xA
  1940                           
  1941     007A                     ??___lwdiv:	
  1942                           ; 1 bytes @ 0xA
  1943                           
  1944                           
  1945                           	psect	cstackBANK0
  1946     0020                     __pcstackBANK0:	
  1947                           ; 1 bytes @ 0xA
  1948                           
  1949     0020                     ?_log_car_event:
  1950     0020                     ??_clear_log:	
  1951                           ; 1 bytes @ 0x0
  1952                           
  1953     0020                     ??___lldiv:	
  1954                           ; 1 bytes @ 0x0
  1955                           
  1956     0020                     log_car_event@speed:	
  1957                           ; 1 bytes @ 0x0
  1958                           
  1959     0020                     ___lwdiv@quotient:	
  1960                           ; 1 bytes @ 0x0
  1961                           
  1962     0020                     download_log@log:	
  1963                           ; 2 bytes @ 0x0
  1964                           
  1965                           
  1966                           ; 11 bytes @ 0x0
  1967     0020                     	ds	1
  1968     0021                     ??_log_car_event:
  1969     0021                     ___lldiv@quotient:	
  1970                           ; 1 bytes @ 0x1
  1971                           
  1972                           
  1973                           ; 4 bytes @ 0x1
  1974     0021                     	ds	1
  1975     0022                     ___lwdiv@counter:
  1976                           
  1977                           ; 1 bytes @ 0x2
  1978     0022                     	ds	1
  1979     0023                     ?_clcd_putch:
  1980     0023                     log_car_event@event:	
  1981                           ; 1 bytes @ 0x3
  1982                           
  1983     0023                     clcd_putch@addr:	
  1984                           ; 1 bytes @ 0x3
  1985                           
  1986                           
  1987                           ; 1 bytes @ 0x3
  1988     0023                     	ds	1
  1989     0024                     clcd_putch@data:
  1990                           
  1991                           ; 1 bytes @ 0x4
  1992     0024                     	ds	1
  1993     0025                     ?_display_dashboard:
  1994     0025                     ?_menu_screen:	
  1995                           ; 1 bytes @ 0x5
  1996                           
  1997     0025                     ?_login:	
  1998                           ; 1 bytes @ 0x5
  1999                           
  2000     0025                     ?_display_logs:	
  2001                           ; 1 bytes @ 0x5
  2002                           
  2003     0025                     ?_change_time:	
  2004                           ; 1 bytes @ 0x5
  2005                           
  2006     0025                     display_dashboard@speed:	
  2007                           ; 2 bytes @ 0x5
  2008                           
  2009     0025                     menu_screen@reset_flag:	
  2010                           ; 1 bytes @ 0x5
  2011                           
  2012     0025                     login@reset_flag:	
  2013                           ; 1 bytes @ 0x5
  2014                           
  2015     0025                     change_time@reset_time:	
  2016                           ; 1 bytes @ 0x5
  2017                           
  2018     0025                     ___lldiv@counter:	
  2019                           ; 1 bytes @ 0x5
  2020                           
  2021     0025                     display_logs@i:	
  2022                           ; 1 bytes @ 0x5
  2023                           
  2024                           
  2025                           ; 2 bytes @ 0x5
  2026     0025                     	ds	1
  2027     0026                     ??_display_dashboard:
  2028     0026                     ??_menu_screen:	
  2029                           ; 1 bytes @ 0x6
  2030                           
  2031     0026                     ??_login:	
  2032                           ; 1 bytes @ 0x6
  2033                           
  2034     0026                     ?_init_i2c:	
  2035                           ; 1 bytes @ 0x6
  2036                           
  2037     0026                     init_i2c@baud:	
  2038                           ; 1 bytes @ 0x6
  2039                           
  2040                           
  2041                           ; 4 bytes @ 0x6
  2042     0026                     	ds	1
  2043     0027                     ?_view_log:
  2044     0027                     ??_change_time:	
  2045                           ; 1 bytes @ 0x7
  2046                           
  2047     0027                     view_log@reset_flag:	
  2048                           ; 1 bytes @ 0x7
  2049                           
  2050                           
  2051                           ; 1 bytes @ 0x7
  2052     0027                     	ds	1
  2053     0028                     ??_view_log:
  2054     0028                     display_dashboard@event:	
  2055                           ; 1 bytes @ 0x8
  2056                           
  2057     0028                     menu_screen@key:	
  2058                           ; 1 bytes @ 0x8
  2059                           
  2060                           
  2061                           ; 1 bytes @ 0x8
  2062     0028                     	ds	1
  2063     0029                     login@s_password:
  2064                           
  2065                           ; 4 bytes @ 0x9
  2066     0029                     	ds	1
  2067     002A                     ??_init_i2c:
  2068     002A                     change_time@key:	
  2069                           ; 1 bytes @ 0xA
  2070                           
  2071                           
  2072                           ; 1 bytes @ 0xA
  2073     002A                     	ds	1
  2074     002B                     view_log@key:
  2075     002B                     download_log@add:	
  2076                           ; 1 bytes @ 0xB
  2077                           
  2078     002B                     change_time@buffer:	
  2079                           ; 1 bytes @ 0xB
  2080                           
  2081                           
  2082                           ; 1 bytes @ 0xB
  2083     002B                     	ds	1
  2084     002C                     download_log@position:
  2085                           
  2086                           ; 2 bytes @ 0xC
  2087     002C                     	ds	1
  2088     002D                     login@key:
  2089                           
  2090                           ; 1 bytes @ 0xD
  2091     002D                     	ds	1
  2092     002E                     login@j:
  2093     002E                     download_log@index:	
  2094                           ; 2 bytes @ 0xE
  2095                           
  2096                           
  2097                           ; 2 bytes @ 0xE
  2098     002E                     	ds	2
  2099     0030                     download_log@i:
  2100                           
  2101                           ; 2 bytes @ 0x10
  2102     0030                     	ds	2
  2103     0032                     ??_main:
  2104                           
  2105                           ; 1 bytes @ 0x12
  2106     0032                     	ds	4
  2107     0036                     main@gear:
  2108                           
  2109                           ; 12 bytes @ 0x16
  2110     0036                     	ds	12
  2111     0042                     main@menu:
  2112                           
  2113                           ; 1 bytes @ 0x22
  2114     0042                     	ds	1
  2115     0043                     main@event:
  2116                           
  2117                           ; 3 bytes @ 0x23
  2118     0043                     	ds	3
  2119     0046                     main@gr:
  2120                           
  2121                           ; 1 bytes @ 0x26
  2122     0046                     	ds	1
  2123     0047                     main@speed:
  2124                           
  2125                           ; 1 bytes @ 0x27
  2126     0047                     	ds	1
  2127     0048                     main@reset_flag:
  2128                           
  2129                           ; 1 bytes @ 0x28
  2130     0048                     	ds	1
  2131     0049                     main@control_flag:
  2132                           
  2133                           ; 1 bytes @ 0x29
  2134     0049                     	ds	1
  2135     004A                     main@key:
  2136                           
  2137                           ; 1 bytes @ 0x2A
  2138     004A                     	ds	1
  2139                           
  2140                           	psect	maintext
  2141     0317                     __pmaintext:	
  2142 ;;
  2143 ;;Main: autosize = 0, tempsize = 4, incstack = 0, save=0
  2144 ;;
  2145 ;; *************** function _main *****************
  2146 ;; Defined at:
  2147 ;;		line 28 in file "main.c"
  2148 ;; Parameters:    Size  Location     Type
  2149 ;;		None
  2150 ;; Auto vars:     Size  Location     Type
  2151 ;;  gear           12   22[BANK0 ] PTR unsigned char [6]
  2152 ;;		 -> STR_35(3), STR_34(3), STR_33(3), STR_32(3), 
  2153 ;;		 -> STR_31(3), STR_30(3), 
  2154 ;;  l_press         4    0        unsigned long 
  2155 ;;  event           3   35[BANK0 ] unsigned char [3]
  2156 ;;  key             1   42[BANK0 ] unsigned char 
  2157 ;;  control_flag    1   41[BANK0 ] unsigned char 
  2158 ;;  reset_flag      1   40[BANK0 ] unsigned char 
  2159 ;;  speed           1   39[BANK0 ] unsigned char 
  2160 ;;  gr              1   38[BANK0 ] unsigned char 
  2161 ;;  menu            1   34[BANK0 ] unsigned char 
  2162 ;;  key_st          1    0        unsigned char 
  2163 ;; Return value:  Size  Location     Type
  2164 ;;                  1    wreg      void 
  2165 ;; Registers used:
  2166 ;;		wreg, fsr0l, fsr0h, status,2, status,0, btemp+1, pclath, cstack
  2167 ;; Tracked objects:
  2168 ;;		On entry : B00/0
  2169 ;;		On exit  : 0/0
  2170 ;;		Unchanged: 0/0
  2171 ;; Data sizes:     COMMON   BANK0   BANK1   BANK3   BANK2
  2172 ;;      Params:         0       0       0       0       0
  2173 ;;      Locals:         0      21       0       0       0
  2174 ;;      Temps:          0       4       0       0       0
  2175 ;;      Totals:         0      25       0       0       0
  2176 ;;Total ram usage:       25 bytes
  2177 ;; Hardware stack levels required when called: 8
  2178 ;; This function calls:
  2179 ;;		___lwdiv
  2180 ;;		_change_time
  2181 ;;		_clcd_print
  2182 ;;		_clcd_write
  2183 ;;		_clear_log
  2184 ;;		_clear_screen
  2185 ;;		_display_dashboard
  2186 ;;		_download_log
  2187 ;;		_eeprom_at24c04_str_write
  2188 ;;		_init_config
  2189 ;;		_log_car_event
  2190 ;;		_login
  2191 ;;		_menu_screen
  2192 ;;		_read_adc
  2193 ;;		_read_digital_keypad
  2194 ;;		_strcpy
  2195 ;;		_view_log
  2196 ;; This function is called by:
  2197 ;;		Startup code after reset
  2198 ;; This function uses a non-reentrant model
  2199 ;;
  2200                           
  2201     0317                     _main:	
  2202                           ;psect for function _main
  2203                           
  2204     0317                     l4306:	
  2205                           ;incstack = 0
  2206                           ; Regs used in _main: [wreg-fsr0h+status,2+status,0+btemp+1+pclath+cstack]
  2207                           
  2208                           
  2209                           ;main.c: 29:     while (1) {
  2210     0317  160A  118A  25F8  120A  118A  	fcall	_init_config
  2211     031C                     l4308:
  2212                           
  2213                           ;main.c: 30:         key = read_digital_keypad(1);
  2214     031C  3010               	movlw	16
  2215     031D  1283               	bcf	3,5	;RP0=0, select bank0
  2216     031E  1303               	bcf	3,6	;RP1=0, select bank0
  2217     031F  00C9               	movwf	main@control_flag
  2218     0320                     l4310:
  2219                           
  2220                           ;main.c: 31:         _delay((unsigned long)((20)*(20000000/4000.0)));
  2221     0320  1683               	bsf	3,5	;RP0=1, select bank1
  2222     0321  1303               	bcf	3,6	;RP1=0, select bank1
  2223     0322  0836               	movf	main@F1220^(0+128),w
  2224     0323  1283               	bcf	3,5	;RP0=0, select bank0
  2225     0324  1303               	bcf	3,6	;RP1=0, select bank0
  2226     0325  00C3               	movwf	main@event
  2227     0326  1683               	bsf	3,5	;RP0=1, select bank1
  2228     0327  1303               	bcf	3,6	;RP1=0, select bank1
  2229     0328  0837               	movf	(main@F1220+1)^(0+128),w
  2230     0329  1283               	bcf	3,5	;RP0=0, select bank0
  2231     032A  1303               	bcf	3,6	;RP1=0, select bank0
  2232     032B  00C4               	movwf	main@event+1
  2233     032C  1683               	bsf	3,5	;RP0=1, select bank1
  2234     032D  1303               	bcf	3,6	;RP1=0, select bank1
  2235     032E  0838               	movf	(main@F1220+2)^(0+128),w
  2236     032F  1283               	bcf	3,5	;RP0=0, select bank0
  2237     0330  1303               	bcf	3,6	;RP1=0, select bank0
  2238     0331  00C5               	movwf	main@event+2
  2239     0332                     l4312:
  2240     0332                     l4314:
  2241     0332  01C6               	clrf	main@gr
  2242     0333                     l4316:
  2243     0333  3036               	movlw	main@gear& (0+255)
  2244     0334  0084               	movwf	4
  2245     0335  30A0               	movlw	low main@F1226
  2246     0336  00B2               	movwf	??_main
  2247     0337  0804               	movf	4,w
  2248     0338  00B3               	movwf	??_main+1
  2249     0339  300C               	movlw	12
  2250     033A  00B4               	movwf	??_main+2
  2251     033B                     u3940:
  2252     033B  0832               	movf	??_main,w
  2253     033C  0084               	movwf	4
  2254     033D  1383               	bcf	3,7	;select IRP bank1
  2255     033E  0800               	movf	0,w
  2256     033F  00B5               	movwf	??_main+3
  2257     0340  0AB2               	incf	??_main,f
  2258     0341  0833               	movf	??_main+1,w
  2259     0342  0084               	movwf	4
  2260     0343  0835               	movf	??_main+3,w
  2261     0344  0080               	movwf	0
  2262     0345  0AB3               	incf	??_main+1,f
  2263     0346  0BB4               	decfsz	??_main+2,f
  2264     0347  2B3B               	goto	u3940
  2265     0348                     l4318:
  2266     0348                     l4320:
  2267     0348                     l4322:
  2268     0348  3053               	movlw	low (STR_36| (0+32768))
  2269     0349  00F5               	movwf	eeprom_at24c04_str_write@data
  2270     034A  3089               	movlw	high (STR_36| (0+32768))
  2271     034B  00F6               	movwf	eeprom_at24c04_str_write@data+1
  2272     034C  3000               	movlw	0
  2273     034D  160A  118A  264F  120A  118A  	fcall	_eeprom_at24c04_str_write
  2274     0352                     l4324:
  2275     0352  3001               	movlw	1
  2276     0353  120A  158A  24AA  120A  118A  	fcall	_read_digital_keypad
  2277     0358  1283               	bcf	3,5	;RP0=0, select bank0
  2278     0359  1303               	bcf	3,6	;RP1=0, select bank0
  2279     035A  00CA               	movwf	main@key
  2280     035B                     l4326:
  2281     035B  3082               	movlw	130
  2282     035C  1283               	bcf	3,5	;RP0=0, select bank0
  2283     035D  1303               	bcf	3,6	;RP1=0, select bank0
  2284     035E  00B3               	movwf	??_main+1
  2285     035F  30DD               	movlw	221
  2286     0360  00B2               	movwf	??_main
  2287     0361                     u4127:
  2288     0361  0BB2               	decfsz	??_main,f
  2289     0362  2B61               	goto	u4127
  2290     0363  0BB3               	decfsz	??_main+1,f
  2291     0364  2B61               	goto	u4127
  2292     0365                     l4328:
  2293                           
  2294                           ;main.c: 69:         speed = read_adc() / 10;
  2295     0365  300A               	movlw	10
  2296     0366  00F6               	movwf	___lwdiv@divisor
  2297     0367  3000               	movlw	0
  2298     0368  00F7               	movwf	___lwdiv@divisor+1
  2299     0369  160A  118A  2435  120A  118A  	fcall	_read_adc
  2300     036E  0873               	movf	?_read_adc+1,w
  2301     036F  00F9               	movwf	___lwdiv@dividend+1
  2302     0370  0872               	movf	?_read_adc,w
  2303     0371  00F8               	movwf	___lwdiv@dividend
  2304     0372  160A  118A  27BA  120A  118A  	fcall	___lwdiv
  2305     0377  0876               	movf	?___lwdiv,w
  2306     0378  1283               	bcf	3,5	;RP0=0, select bank0
  2307     0379  1303               	bcf	3,6	;RP1=0, select bank0
  2308     037A  00C7               	movwf	main@speed
  2309     037B                     l4330:
  2310                           
  2311                           ;main.c: 70:         if (speed > 99) {
  2312     037B  3064               	movlw	100
  2313     037C  0247               	subwf	main@speed,w
  2314     037D  1C03               	skipc
  2315     037E  2B80               	goto	u3951
  2316     037F  2B81               	goto	u3950
  2317     0380                     u3951:
  2318     0380  2B83               	goto	l4334
  2319     0381                     u3950:
  2320     0381                     l4332:
  2321                           
  2322                           ;main.c: 71:             speed = 99;
  2323     0381  3063               	movlw	99
  2324     0382  00C7               	movwf	main@speed
  2325     0383                     l4334:
  2326                           
  2327                           ;main.c: 73:         if (key == 0x3E) {
  2328     0383  303E               	movlw	62
  2329     0384  064A               	xorwf	main@key,w
  2330     0385  1D03               	btfss	3,2
  2331     0386  2B88               	goto	u3961
  2332     0387  2B89               	goto	u3960
  2333     0388                     u3961:
  2334     0388  2B9E               	goto	l4338
  2335     0389                     u3960:
  2336     0389                     l4336:
  2337                           
  2338                           ;main.c: 74:             strcpy(event, "C ");
  2339     0389  305D               	movlw	low (STR_37| (0+32768))
  2340     038A  00F2               	movwf	strcpy@src
  2341     038B  3089               	movlw	high (STR_37| (0+32768))
  2342     038C  00F3               	movwf	strcpy@src+1
  2343     038D  3043               	movlw	(low (main@event| 0))& (0+255)
  2344     038E  160A  118A  250D  120A  118A  	fcall	_strcpy
  2345                           
  2346                           ;main.c: 75:             log_car_event(event, speed);
  2347     0393  1283               	bcf	3,5	;RP0=0, select bank0
  2348     0394  1303               	bcf	3,6	;RP1=0, select bank0
  2349     0395  0847               	movf	main@speed,w
  2350     0396  00A0               	movwf	log_car_event@speed
  2351     0397  3043               	movlw	(low (main@event| 0))& (0+255)
  2352     0398  120A  158A  22C8  120A  118A  	fcall	_log_car_event
  2353                           
  2354                           ;main.c: 76:         } else if (key == 0x3D && gr < 6) {
  2355     039D  2D7E               	goto	l4490
  2356     039E                     l4338:
  2357     039E  303D               	movlw	61
  2358     039F  064A               	xorwf	main@key,w
  2359     03A0  1D03               	btfss	3,2
  2360     03A1  2BA3               	goto	u3971
  2361     03A2  2BA4               	goto	u3970
  2362     03A3                     u3971:
  2363     03A3  2BCB               	goto	l4348
  2364     03A4                     u3970:
  2365     03A4                     l4340:
  2366     03A4  3006               	movlw	6
  2367     03A5  0246               	subwf	main@gr,w
  2368     03A6  1803               	skipnc
  2369     03A7  2BA9               	goto	u3981
  2370     03A8  2BAA               	goto	u3980
  2371     03A9                     u3981:
  2372     03A9  2BCB               	goto	l4348
  2373     03AA                     u3980:
  2374     03AA                     l4342:
  2375                           
  2376                           ;main.c: 77:             strcpy(event, gear[gr]);
  2377     03AA  0846               	movf	main@gr,w
  2378     03AB  00B2               	movwf	??_main
  2379     03AC  0732               	addwf	??_main,w
  2380     03AD  3E36               	addlw	(low (main@gear| 0))& (0+255)
  2381     03AE  0084               	movwf	4
  2382     03AF  1383               	bcf	3,7	;select IRP bank0
  2383     03B0  0800               	movf	0,w
  2384     03B1  00F2               	movwf	strcpy@src
  2385     03B2  0A84               	incf	4,f
  2386     03B3  0800               	movf	0,w
  2387     03B4  0384               	decf	4,f
  2388     03B5  00F3               	movwf	strcpy@src+1
  2389     03B6  3043               	movlw	(low (main@event| 0))& (0+255)
  2390     03B7  160A  118A  250D  120A  118A  	fcall	_strcpy
  2391     03BC                     l4344:
  2392                           
  2393                           ;main.c: 78:             gr++;
  2394     03BC  3001               	movlw	1
  2395     03BD  00FF               	movwf	btemp+1
  2396     03BE  087F               	movf	btemp+1,w
  2397     03BF  1283               	bcf	3,5	;RP0=0, select bank0
  2398     03C0  1303               	bcf	3,6	;RP1=0, select bank0
  2399     03C1  07C6               	addwf	main@gr,f
  2400     03C2                     l4346:
  2401                           
  2402                           ;main.c: 79:             log_car_event(event, speed);
  2403     03C2  0847               	movf	main@speed,w
  2404     03C3  00A0               	movwf	log_car_event@speed
  2405     03C4  3043               	movlw	(low (main@event| 0))& (0+255)
  2406     03C5  120A  158A  22C8  120A  118A  	fcall	_log_car_event
  2407                           
  2408                           ;main.c: 80:         } else if (key == 0x3B && gr > 0) {
  2409     03CA  2D7E               	goto	l4490
  2410     03CB                     l4348:
  2411     03CB  303B               	movlw	59
  2412     03CC  064A               	xorwf	main@key,w
  2413     03CD  1D03               	btfss	3,2
  2414     03CE  2BD0               	goto	u3991
  2415     03CF  2BD1               	goto	u3990
  2416     03D0                     u3991:
  2417     03D0  2BF5               	goto	l4358
  2418     03D1                     u3990:
  2419     03D1                     l4350:
  2420     03D1  0846               	movf	main@gr,w
  2421     03D2  1903               	btfsc	3,2
  2422     03D3  2BD5               	goto	u4001
  2423     03D4  2BD6               	goto	u4000
  2424     03D5                     u4001:
  2425     03D5  2BF5               	goto	l4358
  2426     03D6                     u4000:
  2427     03D6                     l4352:
  2428                           
  2429                           ;main.c: 81:             gr--;
  2430     03D6  3001               	movlw	1
  2431     03D7  02C6               	subwf	main@gr,f
  2432     03D8                     l4354:
  2433                           
  2434                           ;main.c: 82:             strcpy(event, gear[gr]);
  2435     03D8  0846               	movf	main@gr,w
  2436     03D9  00B2               	movwf	??_main
  2437     03DA  0732               	addwf	??_main,w
  2438     03DB  3E36               	addlw	(low (main@gear| 0))& (0+255)
  2439     03DC  0084               	movwf	4
  2440     03DD  1383               	bcf	3,7	;select IRP bank0
  2441     03DE  0800               	movf	0,w
  2442     03DF  00F2               	movwf	strcpy@src
  2443     03E0  0A84               	incf	4,f
  2444     03E1  0800               	movf	0,w
  2445     03E2  0384               	decf	4,f
  2446     03E3  00F3               	movwf	strcpy@src+1
  2447     03E4  3043               	movlw	(low (main@event| 0))& (0+255)
  2448     03E5  160A  118A  250D  120A  118A  	fcall	_strcpy
  2449     03EA                     l4356:
  2450                           
  2451                           ;main.c: 83:             log_car_event(event, speed);
  2452     03EA  1283               	bcf	3,5	;RP0=0, select bank0
  2453     03EB  1303               	bcf	3,6	;RP1=0, select bank0
  2454     03EC  0847               	movf	main@speed,w
  2455     03ED  00A0               	movwf	log_car_event@speed
  2456     03EE  3043               	movlw	(low (main@event| 0))& (0+255)
  2457     03EF  120A  158A  22C8  120A  118A  	fcall	_log_car_event
  2458                           
  2459                           ;main.c: 84:         } else if ((key == 0x37 || key == 0x2F) && control_flag == 0x10) {
  2460     03F4  2D7E               	goto	l4490
  2461     03F5                     l4358:
  2462     03F5  3037               	movlw	55
  2463     03F6  064A               	xorwf	main@key,w
  2464     03F7  1903               	btfsc	3,2
  2465     03F8  2BFA               	goto	u4011
  2466     03F9  2BFB               	goto	u4010
  2467     03FA                     u4011:
  2468     03FA  2C01               	goto	l4362
  2469     03FB                     u4010:
  2470     03FB                     l4360:
  2471     03FB  302F               	movlw	47
  2472     03FC  064A               	xorwf	main@key,w
  2473     03FD  1D03               	btfss	3,2
  2474     03FE  2C00               	goto	u4021
  2475     03FF  2C01               	goto	u4020
  2476     0400                     u4021:
  2477     0400  2C2D               	goto	l4378
  2478     0401                     u4020:
  2479     0401                     l4362:
  2480     0401  3010               	movlw	16
  2481     0402  0649               	xorwf	main@control_flag,w
  2482     0403  1D03               	btfss	3,2
  2483     0404  2C06               	goto	u4031
  2484     0405  2C07               	goto	u4030
  2485     0406                     u4031:
  2486     0406  2C2D               	goto	l4378
  2487     0407                     u4030:
  2488     0407                     l4364:
  2489                           
  2490                           ;main.c: 85:             control_flag = 0x12;
  2491     0407  3012               	movlw	18
  2492     0408  00C9               	movwf	main@control_flag
  2493     0409                     l4366:
  2494                           
  2495                           ;main.c: 86:             clear_screen();
  2496     0409  160A  118A  2424  120A  118A  	fcall	_clear_screen
  2497     040E                     l4368:
  2498                           
  2499                           ;main.c: 87:             clcd_print("Enter Password", (0x80 + 0));
  2500     040E  30BA               	movlw	low (STR_13| (0+32768))
  2501     040F  00F6               	movwf	clcd_print@str
  2502     0410  3088               	movlw	high (STR_13| (0+32768))
  2503     0411  00F7               	movwf	clcd_print@str+1
  2504     0412  3080               	movlw	128
  2505     0413  00F8               	movwf	clcd_print@addr
  2506     0414  160A  118A  267C  120A  118A  	fcall	_clcd_print
  2507     0419                     l4370:
  2508                           
  2509                           ;main.c: 88:             clcd_write((0xC0 + 4), 0);
  2510     0419  01F2               	clrf	clcd_write@mode
  2511     041A  30C4               	movlw	196
  2512     041B  160A  118A  270F  120A  118A  	fcall	_clcd_write
  2513     0420                     l4372:
  2514                           
  2515                           ;main.c: 89:             clcd_write(0x0F, 0);
  2516     0420  01F2               	clrf	clcd_write@mode
  2517     0421  300F               	movlw	15
  2518     0422  160A  118A  270F  120A  118A  	fcall	_clcd_write
  2519     0427                     l4374:
  2520                           
  2521                           ;main.c: 90:             reset_flag = 0X03;
  2522     0427  3003               	movlw	3
  2523     0428  1283               	bcf	3,5	;RP0=0, select bank0
  2524     0429  1303               	bcf	3,6	;RP1=0, select bank0
  2525     042A  00C8               	movwf	main@reset_flag
  2526     042B                     l4376:
  2527                           
  2528                           ;main.c: 91:             TMR2ON = 1;
  2529     042B  1512               	bsf	18,2	;volatile
  2530                           
  2531                           ;main.c: 93:         } else if ((control_flag == 0x13) && (key == 0x44)) {
  2532     042C  2D7E               	goto	l4490
  2533     042D                     l4378:
  2534     042D  3013               	movlw	19
  2535     042E  0649               	xorwf	main@control_flag,w
  2536     042F  1D03               	btfss	3,2
  2537     0430  2C32               	goto	u4041
  2538     0431  2C33               	goto	u4040
  2539     0432                     u4041:
  2540     0432  2CA0               	goto	l4420
  2541     0433                     u4040:
  2542     0433                     l4380:
  2543     0433  3044               	movlw	68
  2544     0434  064A               	xorwf	main@key,w
  2545     0435  1D03               	btfss	3,2
  2546     0436  2C38               	goto	u4051
  2547     0437  2C39               	goto	u4050
  2548     0438                     u4051:
  2549     0438  2CA0               	goto	l4420
  2550     0439                     u4050:
  2551     0439  2C8F               	goto	l4418
  2552     043A                     l4384:
  2553                           
  2554                           ;main.c: 96:                     control_flag = 0x14;
  2555     043A  3014               	movlw	20
  2556     043B  00C9               	movwf	main@control_flag
  2557                           
  2558                           ;main.c: 97:                     reset_flag = 0x06;
  2559     043C  3006               	movlw	6
  2560     043D  00C8               	movwf	main@reset_flag
  2561                           
  2562                           ;main.c: 99:                     break;
  2563     043E  2D7E               	goto	l4490
  2564     043F                     l4386:
  2565                           
  2566                           ;main.c: 101:                     clear_screen();
  2567     043F  160A  118A  2424  120A  118A  	fcall	_clear_screen
  2568     0444                     l4388:
  2569                           
  2570                           ;main.c: 102:                     control_flag = 0x15;
  2571     0444  3015               	movlw	21
  2572     0445  1283               	bcf	3,5	;RP0=0, select bank0
  2573     0446  1303               	bcf	3,6	;RP1=0, select bank0
  2574     0447  00C9               	movwf	main@control_flag
  2575     0448                     l4390:
  2576                           
  2577                           ;main.c: 103:                     reset_flag = 0x09;
  2578     0448  3009               	movlw	9
  2579     0449  00C8               	movwf	main@reset_flag
  2580                           
  2581                           ;main.c: 104:                     break;
  2582     044A  2D7E               	goto	l4490
  2583     044B                     l4392:
  2584                           
  2585                           ;main.c: 106:                     clear_screen();
  2586     044B  160A  118A  2424  120A  118A  	fcall	_clear_screen
  2587     0450                     l4394:
  2588                           
  2589                           ;main.c: 108:                     clcd_print("      Open      ", (0x80 + 0));
  2590     0450  3036               	movlw	low (STR_39| (0+32768))
  2591     0451  00F6               	movwf	clcd_print@str
  2592     0452  3088               	movlw	high (STR_39| (0+32768))
  2593     0453  00F7               	movwf	clcd_print@str+1
  2594     0454  3080               	movlw	128
  2595     0455  00F8               	movwf	clcd_print@addr
  2596     0456  160A  118A  267C  120A  118A  	fcall	_clcd_print
  2597     045B                     l4396:
  2598                           
  2599                           ;main.c: 109:                     clcd_print("     Cutecom    ", (0xC0 + 0));
  2600     045B  3047               	movlw	low (STR_40| (0+32768))
  2601     045C  00F6               	movwf	clcd_print@str
  2602     045D  3088               	movlw	high (STR_40| (0+32768))
  2603     045E  00F7               	movwf	clcd_print@str+1
  2604     045F  30C0               	movlw	192
  2605     0460  00F8               	movwf	clcd_print@addr
  2606     0461  160A  118A  267C  120A  118A  	fcall	_clcd_print
  2607     0466                     l4398:
  2608                           
  2609                           ;main.c: 110:                     download_log();
  2610     0466  120A  158A  26E4  120A  118A  	fcall	_download_log
  2611     046B                     l4400:
  2612                           
  2613                           ;main.c: 111:                     _delay((unsigned long)((2000)*(20000000/4000.0)));
  2614     046B  3033               	movlw	51
  2615     046C  1283               	bcf	3,5	;RP0=0, select bank0
  2616     046D  1303               	bcf	3,6	;RP1=0, select bank0
  2617     046E  00B4               	movwf	??_main+2
  2618     046F  30BB               	movlw	187
  2619     0470  00B3               	movwf	??_main+1
  2620     0471  30DF               	movlw	223
  2621     0472  00B2               	movwf	??_main
  2622     0473                     u4137:
  2623     0473  0BB2               	decfsz	??_main,f
  2624     0474  2C73               	goto	u4137
  2625     0475  0BB3               	decfsz	??_main+1,f
  2626     0476  2C73               	goto	u4137
  2627     0477  0BB4               	decfsz	??_main+2,f
  2628     0478  2C73               	goto	u4137
  2629     0479                     l4402:
  2630                           
  2631                           ;main.c: 112:                     control_flag = 0x13;
  2632     0479  3013               	movlw	19
  2633     047A  1283               	bcf	3,5	;RP0=0, select bank0
  2634     047B  1303               	bcf	3,6	;RP1=0, select bank0
  2635     047C  00C9               	movwf	main@control_flag
  2636     047D                     l4404:
  2637                           
  2638                           ;main.c: 113:                     reset_flag = 0x05;
  2639     047D  3005               	movlw	5
  2640     047E  00C8               	movwf	main@reset_flag
  2641                           
  2642                           ;main.c: 114:                     break;
  2643     047F  2D7E               	goto	l4490
  2644     0480                     l4406:
  2645     0480                     l4408:
  2646                           
  2647                           ;main.c: 117:                     clear_screen();
  2648     0480  160A  118A  2424  120A  118A  	fcall	_clear_screen
  2649     0485                     l4410:
  2650                           
  2651                           ;main.c: 118:                     control_flag = 0x17;
  2652     0485  3017               	movlw	23
  2653     0486  1283               	bcf	3,5	;RP0=0, select bank0
  2654     0487  1303               	bcf	3,6	;RP1=0, select bank0
  2655     0488  00C9               	movwf	main@control_flag
  2656     0489                     l4412:
  2657                           
  2658                           ;main.c: 119:                     reset_flag = 0x0A;
  2659     0489  300A               	movlw	10
  2660     048A  00C8               	movwf	main@reset_flag
  2661                           
  2662                           ;main.c: 120:                     break;
  2663     048B  2D7E               	goto	l4490
  2664     048C                     l4414:
  2665                           
  2666                           ;main.c: 122:                     control_flag = 0x18;
  2667     048C  3018               	movlw	24
  2668     048D  00C9               	movwf	main@control_flag
  2669                           
  2670                           ;main.c: 124:                     break;
  2671     048E  2D7E               	goto	l4490
  2672     048F                     l4418:
  2673     048F  0842               	movf	main@menu,w
  2674                           
  2675                           ; Switch size 1, requested type "simple"
  2676                           ; Number of cases is 5, Range of values is 0 to 4
  2677                           ; switch strategies available:
  2678                           ; Name         Instructions Cycles
  2679                           ; simple_byte           16     9 (average)
  2680                           ; direct_byte           23     8 (fixed)
  2681                           ; jumptable            260     6 (fixed)
  2682                           ;	Chosen strategy is simple_byte
  2683     0490  3A00               	xorlw	0	; case 0
  2684     0491  1903               	skipnz
  2685     0492  2C3A               	goto	l4384
  2686     0493  3A01               	xorlw	1	; case 1
  2687     0494  1903               	skipnz
  2688     0495  2C3F               	goto	l4386
  2689     0496  3A03               	xorlw	3	; case 2
  2690     0497  1903               	skipnz
  2691     0498  2C4B               	goto	l4392
  2692     0499  3A01               	xorlw	1	; case 3
  2693     049A  1903               	skipnz
  2694     049B  2C80               	goto	l4406
  2695     049C  3A07               	xorlw	7	; case 4
  2696     049D  1903               	skipnz
  2697     049E  2C8C               	goto	l4414
  2698     049F  2D7E               	goto	l4490
  2699     04A0                     l4420:
  2700     04A0  3014               	movlw	20
  2701     04A1  0649               	xorwf	main@control_flag,w
  2702     04A2  1D03               	btfss	3,2
  2703     04A3  2CA5               	goto	u4061
  2704     04A4  2CA6               	goto	u4060
  2705     04A5                     u4061:
  2706     04A5  2CB1               	goto	l4426
  2707     04A6                     u4060:
  2708     04A6                     l4422:
  2709     04A6  3044               	movlw	68
  2710     04A7  064A               	xorwf	main@key,w
  2711     04A8  1D03               	btfss	3,2
  2712     04A9  2CAB               	goto	u4071
  2713     04AA  2CAC               	goto	u4070
  2714     04AB                     u4071:
  2715     04AB  2CB1               	goto	l4426
  2716     04AC                     u4070:
  2717     04AC                     l4424:
  2718                           
  2719                           ;main.c: 128:             control_flag = 0x13;
  2720     04AC  3013               	movlw	19
  2721     04AD  00C9               	movwf	main@control_flag
  2722                           
  2723                           ;main.c: 129:             reset_flag = 0x05;
  2724     04AE  3005               	movlw	5
  2725     04AF  00C8               	movwf	main@reset_flag
  2726                           
  2727                           ;main.c: 130:         }
  2728     04B0  2D7E               	goto	l4490
  2729     04B1                     l4426:
  2730     04B1  3013               	movlw	19
  2731     04B2  0649               	xorwf	main@control_flag,w
  2732     04B3  1D03               	btfss	3,2
  2733     04B4  2CB6               	goto	u4081
  2734     04B5  2CB7               	goto	u4080
  2735     04B6                     u4081:
  2736     04B6  2CC9               	goto	l436
  2737     04B7                     u4080:
  2738     04B7                     l4428:
  2739     04B7  3055               	movlw	85
  2740     04B8  064A               	xorwf	main@key,w
  2741     04B9  1D03               	btfss	3,2
  2742     04BA  2CBC               	goto	u4091
  2743     04BB  2CBD               	goto	u4090
  2744     04BC                     u4091:
  2745     04BC  2CC9               	goto	l436
  2746     04BD                     u4090:
  2747     04BD                     l4430:
  2748                           
  2749                           ;main.c: 132:             clear_screen();
  2750     04BD  160A  118A  2424  120A  118A  	fcall	_clear_screen
  2751     04C2                     l4432:
  2752                           
  2753                           ;main.c: 133:             control_flag = 0x10;
  2754     04C2  3010               	movlw	16
  2755     04C3  1283               	bcf	3,5	;RP0=0, select bank0
  2756     04C4  1303               	bcf	3,6	;RP1=0, select bank0
  2757     04C5  00C9               	movwf	main@control_flag
  2758     04C6                     l4434:
  2759                           
  2760                           ;main.c: 134:             ret_time_edit = 1;
  2761     04C6  01E6               	clrf	_ret_time_edit
  2762     04C7  0AE6               	incf	_ret_time_edit,f
  2763     04C8  2D7E               	goto	l4490
  2764     04C9                     l436:
  2765     04C9  2D7E               	goto	l4490
  2766     04CA                     l4436:
  2767                           
  2768                           ;main.c: 139:                 display_dashboard(event, speed);
  2769     04CA  0847               	movf	main@speed,w
  2770     04CB  00A5               	movwf	display_dashboard@speed
  2771     04CC  3043               	movlw	(low (main@event| 0))& (0+255)
  2772     04CD  120A  158A  2271  120A  118A  	fcall	_display_dashboard
  2773                           
  2774                           ;main.c: 142:                 break;
  2775     04D2  2D97               	goto	l4492
  2776     04D3                     l4438:
  2777                           
  2778                           ;main.c: 147:                         clear_screen();
  2779     04D3  160A  118A  2424  120A  118A  	fcall	_clear_screen
  2780     04D8                     l4440:
  2781                           
  2782                           ;main.c: 148:                         control_flag = 0x10;
  2783     04D8  3010               	movlw	16
  2784     04D9  1283               	bcf	3,5	;RP0=0, select bank0
  2785     04DA  1303               	bcf	3,6	;RP1=0, select bank0
  2786     04DB  00C9               	movwf	main@control_flag
  2787     04DC                     l4442:
  2788                           
  2789                           ;main.c: 149:                         clcd_write(0x0C, 0);
  2790     04DC  01F2               	clrf	clcd_write@mode
  2791     04DD  300C               	movlw	12
  2792     04DE  160A  118A  270F  120A  118A  	fcall	_clcd_write
  2793     04E3                     l4444:
  2794                           
  2795                           ;main.c: 150:                         TMR2ON = 0;
  2796     04E3  1283               	bcf	3,5	;RP0=0, select bank0
  2797     04E4  1303               	bcf	3,6	;RP1=0, select bank0
  2798     04E5  1112               	bcf	18,2	;volatile
  2799                           
  2800                           ;main.c: 151:                         break;
  2801     04E6  2D97               	goto	l4492
  2802     04E7                     l4446:
  2803                           
  2804                           ;main.c: 153:                         clear_screen();
  2805     04E7  160A  118A  2424  120A  118A  	fcall	_clear_screen
  2806                           
  2807                           ;main.c: 154:                         clcd_write(0x0C, 0);
  2808     04EC  01F2               	clrf	clcd_write@mode
  2809     04ED  300C               	movlw	12
  2810     04EE  160A  118A  270F  120A  118A  	fcall	_clcd_write
  2811     04F3                     l4448:
  2812                           
  2813                           ;main.c: 155:                         TMR2ON = 0;
  2814     04F3  1283               	bcf	3,5	;RP0=0, select bank0
  2815     04F4  1303               	bcf	3,6	;RP1=0, select bank0
  2816     04F5  1112               	bcf	18,2	;volatile
  2817     04F6                     l4450:
  2818                           
  2819                           ;main.c: 156:                         control_flag = 0x13;
  2820     04F6  3013               	movlw	19
  2821     04F7  00C9               	movwf	main@control_flag
  2822     04F8                     l4452:
  2823                           
  2824                           ;main.c: 157:                         reset_flag = 0x05;
  2825     04F8  3005               	movlw	5
  2826     04F9  00C8               	movwf	main@reset_flag
  2827                           
  2828                           ;main.c: 159:                         continue;
  2829     04FA  2B52               	goto	l4324
  2830     04FB                     l4456:
  2831     04FB  0848               	movf	main@reset_flag,w
  2832     04FC  00A5               	movwf	login@reset_flag
  2833     04FD  084A               	movf	main@key,w
  2834     04FE  120A  118A  259F  120A  118A  	fcall	_login
  2835                           
  2836                           ; Switch size 1, requested type "simple"
  2837                           ; Number of cases is 2, Range of values is 1 to 2
  2838                           ; switch strategies available:
  2839                           ; Name         Instructions Cycles
  2840                           ; simple_byte            7     4 (average)
  2841                           ; direct_byte           17    11 (fixed)
  2842                           ; jumptable            263     9 (fixed)
  2843                           ;	Chosen strategy is simple_byte
  2844     0503  3A01               	xorlw	1	; case 1
  2845     0504  1903               	skipnz
  2846     0505  2CE7               	goto	l4446
  2847     0506  3A03               	xorlw	3	; case 2
  2848     0507  1903               	skipnz
  2849     0508  2CD3               	goto	l4438
  2850     0509  2D97               	goto	l4492
  2851     050A                     l4458:
  2852                           
  2853                           ;main.c: 164:                 menu = menu_screen(key, reset_flag);
  2854     050A  0848               	movf	main@reset_flag,w
  2855     050B  00A5               	movwf	menu_screen@reset_flag
  2856     050C  084A               	movf	main@key,w
  2857     050D  120A  158A  252F  120A  118A  	fcall	_menu_screen
  2858     0512  1283               	bcf	3,5	;RP0=0, select bank0
  2859     0513  1303               	bcf	3,6	;RP1=0, select bank0
  2860     0514  00C2               	movwf	main@menu
  2861                           
  2862                           ;main.c: 165:                 break;
  2863     0515  2D97               	goto	l4492
  2864     0516                     l4460:
  2865                           
  2866                           ;main.c: 168:                 view_log(key, reset_flag);
  2867     0516  0848               	movf	main@reset_flag,w
  2868     0517  00A7               	movwf	view_log@reset_flag
  2869     0518  084A               	movf	main@key,w
  2870     0519  120A  118A  273D  120A  118A  	fcall	_view_log
  2871                           
  2872                           ;main.c: 169:                 break;
  2873     051E  2D97               	goto	l4492
  2874     051F                     l4462:
  2875                           
  2876                           ;main.c: 172:                 clear_log();
  2877     051F  160A  118A  257B  120A  118A  	fcall	_clear_log
  2878     0524                     l4464:
  2879                           
  2880                           ;main.c: 173:                 control_flag = 0x13;
  2881     0524  3013               	movlw	19
  2882     0525  1283               	bcf	3,5	;RP0=0, select bank0
  2883     0526  1303               	bcf	3,6	;RP1=0, select bank0
  2884     0527  00C9               	movwf	main@control_flag
  2885     0528                     l4466:
  2886                           
  2887                           ;main.c: 175:                 clear_screen();
  2888     0528  160A  118A  2424  120A  118A  	fcall	_clear_screen
  2889                           
  2890                           ;main.c: 176:                 break;
  2891     052D  2D97               	goto	l4492
  2892     052E                     l4468:
  2893                           
  2894                           ;main.c: 179:                 clear_screen();
  2895     052E  160A  118A  2424  120A  118A  	fcall	_clear_screen
  2896     0533                     l4470:
  2897                           
  2898                           ;main.c: 180:                 clcd_print("      Open      ", (0x80 + 0));
  2899     0533  3036               	movlw	low (STR_39| (0+32768))
  2900     0534  00F6               	movwf	clcd_print@str
  2901     0535  3088               	movlw	high (STR_39| (0+32768))
  2902     0536  00F7               	movwf	clcd_print@str+1
  2903     0537  3080               	movlw	128
  2904     0538  00F8               	movwf	clcd_print@addr
  2905     0539  160A  118A  267C  120A  118A  	fcall	_clcd_print
  2906     053E                     l4472:
  2907                           
  2908                           ;main.c: 181:                 clcd_print("     Cutecom    ", (0xC0 + 0));
  2909     053E  3047               	movlw	low (STR_40| (0+32768))
  2910     053F  00F6               	movwf	clcd_print@str
  2911     0540  3088               	movlw	high (STR_40| (0+32768))
  2912     0541  00F7               	movwf	clcd_print@str+1
  2913     0542  30C0               	movlw	192
  2914     0543  00F8               	movwf	clcd_print@addr
  2915     0544  160A  118A  267C  120A  118A  	fcall	_clcd_print
  2916     0549                     l4474:
  2917                           
  2918                           ;main.c: 182:                 download_log();
  2919     0549  120A  158A  26E4  120A  118A  	fcall	_download_log
  2920     054E                     l4476:
  2921                           
  2922                           ;main.c: 183:                 _delay((unsigned long)((2000)*(20000000/4000.0)));
  2923     054E  3033               	movlw	51
  2924     054F  1283               	bcf	3,5	;RP0=0, select bank0
  2925     0550  1303               	bcf	3,6	;RP1=0, select bank0
  2926     0551  00B4               	movwf	??_main+2
  2927     0552  30BB               	movlw	187
  2928     0553  00B3               	movwf	??_main+1
  2929     0554  30DF               	movlw	223
  2930     0555  00B2               	movwf	??_main
  2931     0556                     u4147:
  2932     0556  0BB2               	decfsz	??_main,f
  2933     0557  2D56               	goto	u4147
  2934     0558  0BB3               	decfsz	??_main+1,f
  2935     0559  2D56               	goto	u4147
  2936     055A  0BB4               	decfsz	??_main+2,f
  2937     055B  2D56               	goto	u4147
  2938     055C                     l4478:
  2939                           
  2940                           ;main.c: 184:                 control_flag = 0x13;
  2941     055C  3013               	movlw	19
  2942     055D  1283               	bcf	3,5	;RP0=0, select bank0
  2943     055E  1303               	bcf	3,6	;RP1=0, select bank0
  2944     055F  00C9               	movwf	main@control_flag
  2945     0560                     l4480:
  2946                           
  2947                           ;main.c: 185:                 reset_flag = 0x05;
  2948     0560  3005               	movlw	5
  2949     0561  00C8               	movwf	main@reset_flag
  2950                           
  2951                           ;main.c: 186:                 break;
  2952     0562  2D97               	goto	l4492
  2953     0563                     l4482:
  2954                           
  2955                           ;main.c: 188:                 if (change_time(key, reset_flag) == 0x1F)
  2956     0563  0848               	movf	main@reset_flag,w
  2957     0564  00A5               	movwf	change_time@reset_time
  2958     0565  084A               	movf	main@key,w
  2959     0566  120A  118A  2049  120A  118A  	fcall	_change_time
  2960     056B  301F               	movlw	31
  2961     056C  1283               	bcf	3,5	;RP0=0, select bank0
  2962     056D  1303               	bcf	3,6	;RP1=0, select bank0
  2963     056E  0625               	xorwf	?_change_time,w
  2964     056F  0426               	iorwf	?_change_time+1,w
  2965     0570  1D03               	btfss	3,2
  2966     0571  2D73               	goto	u4101
  2967     0572  2D74               	goto	u4100
  2968     0573                     u4101:
  2969     0573  2D97               	goto	l4492
  2970     0574                     u4100:
  2971     0574                     l4484:
  2972                           
  2973                           ;main.c: 189:                 {;main.c: 190:                     control_flag = 0x13;
  2974     0574  3013               	movlw	19
  2975     0575  00C9               	movwf	main@control_flag
  2976                           
  2977                           ;main.c: 191:                     reset_flag = 0x05;
  2978     0576  3005               	movlw	5
  2979     0577  00C8               	movwf	main@reset_flag
  2980     0578                     l4486:
  2981                           
  2982                           ;main.c: 192:                     clear_screen();
  2983     0578  160A  118A  2424  120A  118A  	fcall	_clear_screen
  2984                           
  2985                           ;main.c: 193:                     continue;
  2986     057D  2B52               	goto	l4324
  2987     057E                     l4490:
  2988     057E  1283               	bcf	3,5	;RP0=0, select bank0
  2989     057F  1303               	bcf	3,6	;RP1=0, select bank0
  2990     0580  0849               	movf	main@control_flag,w
  2991                           
  2992                           ; Switch size 1, requested type "simple"
  2993                           ; Number of cases is 7, Range of values is 16 to 23
  2994                           ; switch strategies available:
  2995                           ; Name         Instructions Cycles
  2996                           ; simple_byte           22    12 (average)
  2997                           ; direct_byte           35    11 (fixed)
  2998                           ; jumptable            263     9 (fixed)
  2999                           ;	Chosen strategy is simple_byte
  3000     0581  3A10               	xorlw	16	; case 16
  3001     0582  1903               	skipnz
  3002     0583  2CCA               	goto	l4436
  3003     0584  3A02               	xorlw	2	; case 18
  3004     0585  1903               	skipnz
  3005     0586  2CFB               	goto	l4456
  3006     0587  3A01               	xorlw	1	; case 19
  3007     0588  1903               	skipnz
  3008     0589  2D0A               	goto	l4458
  3009     058A  3A07               	xorlw	7	; case 20
  3010     058B  1903               	skipnz
  3011     058C  2D16               	goto	l4460
  3012     058D  3A01               	xorlw	1	; case 21
  3013     058E  1903               	skipnz
  3014     058F  2D1F               	goto	l4462
  3015     0590  3A03               	xorlw	3	; case 22
  3016     0591  1903               	skipnz
  3017     0592  2D2E               	goto	l4468
  3018     0593  3A01               	xorlw	1	; case 23
  3019     0594  1903               	skipnz
  3020     0595  2D63               	goto	l4482
  3021     0596  2D97               	goto	l4492
  3022     0597                     l4492:
  3023                           
  3024                           ;main.c: 199:         reset_flag = 0X04;
  3025     0597  3004               	movlw	4
  3026     0598  1283               	bcf	3,5	;RP0=0, select bank0
  3027     0599  1303               	bcf	3,6	;RP1=0, select bank0
  3028     059A  00C8               	movwf	main@reset_flag
  3029     059B  2B52               	goto	l4324
  3030     059C  120A  118A  280C   	ljmp	start
  3031     059F                     __end_of_main:
  3032                           
  3033                           	psect	text1
  3034     073D                     __ptext1:	
  3035 ;; *************** function _view_log *****************
  3036 ;; Defined at:
  3037 ;;		line 276 in file "car_black_box.c"
  3038 ;; Parameters:    Size  Location     Type
  3039 ;;  key             1    wreg     unsigned char 
  3040 ;;  reset_flag      1    7[BANK0 ] unsigned char 
  3041 ;; Auto vars:     Size  Location     Type
  3042 ;;  key             1   11[BANK0 ] unsigned char 
  3043 ;; Return value:  Size  Location     Type
  3044 ;;                  1    wreg      void 
  3045 ;; Registers used:
  3046 ;;		wreg, fsr0l, fsr0h, status,2, status,0, btemp+1, pclath, cstack
  3047 ;; Tracked objects:
  3048 ;;		On entry : 0/0
  3049 ;;		On exit  : 0/0
  3050 ;;		Unchanged: 0/0
  3051 ;; Data sizes:     COMMON   BANK0   BANK1   BANK3   BANK2
  3052 ;;      Params:         0       1       0       0       0
  3053 ;;      Locals:         0       1       0       0       0
  3054 ;;      Temps:          0       3       0       0       0
  3055 ;;      Totals:         0       5       0       0       0
  3056 ;;Total ram usage:        5 bytes
  3057 ;; Hardware stack levels used: 1
  3058 ;; Hardware stack levels required when called: 6
  3059 ;; This function calls:
  3060 ;;		_clcd_print
  3061 ;;		_display_logs
  3062 ;; This function is called by:
  3063 ;;		_main
  3064 ;; This function uses a non-reentrant model
  3065 ;;
  3066                           
  3067     073D                     _view_log:	
  3068                           ;psect for function _view_log
  3069                           
  3070                           
  3071                           ;incstack = 0
  3072                           ; Regs used in _view_log: [wreg-fsr0h+status,2+status,0+btemp+1+pclath+cstack]
  3073                           ;view_log@key stored from wreg
  3074     073D  1283               	bcf	3,5	;RP0=0, select bank0
  3075     073E  1303               	bcf	3,6	;RP1=0, select bank0
  3076     073F  00AB               	movwf	view_log@key
  3077     0740                     l4036:
  3078                           
  3079                           ;car_black_box.c: 279:     clcd_print("# TIME     E  SP", (0x80 + 0));
  3080     0740  3069               	movlw	low (STR_14| (0+32768))
  3081     0741  00F6               	movwf	clcd_print@str
  3082     0742  3088               	movlw	high (STR_14| (0+32768))
  3083     0743  00F7               	movwf	clcd_print@str+1
  3084     0744  3080               	movlw	128
  3085     0745  00F8               	movwf	clcd_print@addr
  3086     0746  160A  118A  267C  120A  118A  	fcall	_clcd_print
  3087     074B                     l4038:
  3088                           
  3089                           ;car_black_box.c: 280:     if (pos == -1) {
  3090     074B  0A7A               	incf	_pos,w
  3091     074C  1D03               	skipz
  3092     074D  2F52               	goto	u3681
  3093     074E  0A7B               	incf	_pos+1,w
  3094     074F  1D03               	btfss	3,2
  3095     0750  2F52               	goto	u3681
  3096     0751  2F53               	goto	u3680
  3097     0752                     u3681:
  3098     0752  2F5F               	goto	l4042
  3099     0753                     u3680:
  3100     0753                     l4040:
  3101                           
  3102                           ;car_black_box.c: 281:         clcd_print("No logs avalable", (0xC0 + 0));
  3103     0753  307A               	movlw	low (STR_16| (0+32768))
  3104     0754  00F6               	movwf	clcd_print@str
  3105     0755  3088               	movlw	high (STR_16| (0+32768))
  3106     0756  00F7               	movwf	clcd_print@str+1
  3107     0757  30C0               	movlw	192
  3108     0758  00F8               	movwf	clcd_print@addr
  3109     0759  160A  118A  267C  120A  118A  	fcall	_clcd_print
  3110                           
  3111                           ;car_black_box.c: 282:     } else {
  3112     075E  2FF9               	goto	l146
  3113     075F                     l4042:
  3114                           
  3115                           ;car_black_box.c: 284:         if (reset_flag == 0x06) {
  3116     075F  3006               	movlw	6
  3117     0760  1283               	bcf	3,5	;RP0=0, select bank0
  3118     0761  1303               	bcf	3,6	;RP1=0, select bank0
  3119     0762  0627               	xorwf	view_log@reset_flag,w
  3120     0763  1D03               	btfss	3,2
  3121     0764  2F66               	goto	u3691
  3122     0765  2F67               	goto	u3690
  3123     0766                     u3691:
  3124     0766  2F81               	goto	l4050
  3125     0767                     u3690:
  3126     0767                     l4044:
  3127                           
  3128                           ;car_black_box.c: 285:             index = 0;
  3129     0767  01DA               	clrf	_index
  3130     0768  01DB               	clrf	_index+1
  3131     0769                     l4046:
  3132                           
  3133                           ;car_black_box.c: 286:             display_logs(index);
  3134     0769  3000               	movlw	0
  3135     076A  00A5               	movwf	display_logs@i
  3136     076B  00A6               	movwf	display_logs@i+1
  3137     076C  120A  158A  25CE  120A  118A  	fcall	_display_logs
  3138     0771                     l4048:
  3139                           
  3140                           ;car_black_box.c: 287:             _delay((unsigned long)((1500)*(20000000/4000.0)));
  3141     0771  3027               	movlw	39
  3142     0772  1283               	bcf	3,5	;RP0=0, select bank0
  3143     0773  1303               	bcf	3,6	;RP1=0, select bank0
  3144     0774  00AA               	movwf	??_view_log+2
  3145     0775  300D               	movlw	13
  3146     0776  00A9               	movwf	??_view_log+1
  3147     0777  3025               	movlw	37
  3148     0778  00A8               	movwf	??_view_log
  3149     0779                     u4157:
  3150     0779  0BA8               	decfsz	??_view_log,f
  3151     077A  2F79               	goto	u4157
  3152     077B  0BA9               	decfsz	??_view_log+1,f
  3153     077C  2F79               	goto	u4157
  3154     077D  0BAA               	decfsz	??_view_log+2,f
  3155     077E  2F79               	goto	u4157
  3156     077F  2F80               	nop2
  3157                           
  3158                           ;car_black_box.c: 288:         } else {
  3159     0780  2FF9               	goto	l146
  3160     0781                     l4050:
  3161                           
  3162                           ;car_black_box.c: 290:             if (key == 0x37) {
  3163     0781  3037               	movlw	55
  3164     0782  062B               	xorwf	view_log@key,w
  3165     0783  1D03               	btfss	3,2
  3166     0784  2F86               	goto	u3701
  3167     0785  2F87               	goto	u3700
  3168     0786                     u3701:
  3169     0786  2FC0               	goto	l4066
  3170     0787                     u3700:
  3171     0787                     l4052:
  3172                           
  3173                           ;car_black_box.c: 291:                 if (roll_over_flag) {
  3174     0787  085C               	movf	_roll_over_flag,w
  3175     0788  045D               	iorwf	_roll_over_flag+1,w
  3176     0789  1903               	btfsc	3,2
  3177     078A  2F8C               	goto	u3711
  3178     078B  2F8D               	goto	u3710
  3179     078C                     u3711:
  3180     078C  2F9F               	goto	l4060
  3181     078D                     u3710:
  3182     078D                     l4054:
  3183                           
  3184                           ;car_black_box.c: 292:                     index++;
  3185     078D  3001               	movlw	1
  3186     078E  07DA               	addwf	_index,f
  3187     078F  1803               	skipnc
  3188     0790  0ADB               	incf	_index+1,f
  3189     0791  3000               	movlw	0
  3190     0792  07DB               	addwf	_index+1,f
  3191     0793                     l4056:
  3192                           
  3193                           ;car_black_box.c: 293:                     if (index == 10) {
  3194     0793  300A               	movlw	10
  3195     0794  065A               	xorwf	_index,w
  3196     0795  045B               	iorwf	_index+1,w
  3197     0796  1D03               	btfss	3,2
  3198     0797  2F99               	goto	u3721
  3199     0798  2F9A               	goto	u3720
  3200     0799                     u3721:
  3201     0799  2FB4               	goto	l4064
  3202     079A                     u3720:
  3203     079A                     l4058:
  3204                           
  3205                           ;car_black_box.c: 294:                         index = 0;
  3206     079A  1283               	bcf	3,5	;RP0=0, select bank0
  3207     079B  1303               	bcf	3,6	;RP1=0, select bank0
  3208     079C  01DA               	clrf	_index
  3209     079D  01DB               	clrf	_index+1
  3210     079E  2FB4               	goto	l4064
  3211     079F                     l4060:
  3212                           
  3213                           ;car_black_box.c: 297:                     index++;
  3214     079F  3001               	movlw	1
  3215     07A0  07DA               	addwf	_index,f
  3216     07A1  1803               	skipnc
  3217     07A2  0ADB               	incf	_index+1,f
  3218     07A3  3000               	movlw	0
  3219     07A4  07DB               	addwf	_index+1,f
  3220                           
  3221                           ;car_black_box.c: 298:                     if (index > pos) {
  3222     07A5  087B               	movf	_pos+1,w
  3223     07A6  3A80               	xorlw	128
  3224     07A7  00A8               	movwf	??_view_log
  3225     07A8  085B               	movf	_index+1,w
  3226     07A9  3A80               	xorlw	128
  3227     07AA  0228               	subwf	??_view_log,w
  3228     07AB  1D03               	skipz
  3229     07AC  2FAF               	goto	u3735
  3230     07AD  085A               	movf	_index,w
  3231     07AE  027A               	subwf	_pos,w
  3232     07AF                     u3735:
  3233     07AF  1803               	skipnc
  3234     07B0  2FB2               	goto	u3731
  3235     07B1  2FB3               	goto	u3730
  3236     07B2                     u3731:
  3237     07B2  2FB4               	goto	l4064
  3238     07B3                     u3730:
  3239     07B3  2F9A               	goto	l4058
  3240     07B4                     l4064:
  3241                           
  3242                           ;car_black_box.c: 302:                 display_logs(index);
  3243     07B4  1283               	bcf	3,5	;RP0=0, select bank0
  3244     07B5  1303               	bcf	3,6	;RP1=0, select bank0
  3245     07B6  085B               	movf	_index+1,w
  3246     07B7  00A6               	movwf	display_logs@i+1
  3247     07B8  085A               	movf	_index,w
  3248     07B9  00A5               	movwf	display_logs@i
  3249     07BA  120A  158A  25CE  120A  118A  	fcall	_display_logs
  3250                           
  3251                           ;car_black_box.c: 303:             } else if (key == 0x2F) {
  3252     07BF  2FF9               	goto	l146
  3253     07C0                     l4066:
  3254     07C0  302F               	movlw	47
  3255     07C1  062B               	xorwf	view_log@key,w
  3256     07C2  1D03               	btfss	3,2
  3257     07C3  2FC5               	goto	u3741
  3258     07C4  2FC6               	goto	u3740
  3259     07C5                     u3741:
  3260     07C5  2FF9               	goto	l132
  3261     07C6                     u3740:
  3262     07C6                     l4068:
  3263                           
  3264                           ;car_black_box.c: 304:                 if (roll_over_flag) {
  3265     07C6  085C               	movf	_roll_over_flag,w
  3266     07C7  045D               	iorwf	_roll_over_flag+1,w
  3267     07C8  1903               	btfsc	3,2
  3268     07C9  2FCB               	goto	u3751
  3269     07CA  2FCC               	goto	u3750
  3270     07CB                     u3751:
  3271     07CB  2FDF               	goto	l4076
  3272     07CC                     u3750:
  3273     07CC                     l4070:
  3274                           
  3275                           ;car_black_box.c: 305:                     index--;
  3276     07CC  30FF               	movlw	255
  3277     07CD  07DA               	addwf	_index,f
  3278     07CE  1803               	skipnc
  3279     07CF  0ADB               	incf	_index+1,f
  3280     07D0  30FF               	movlw	255
  3281     07D1  07DB               	addwf	_index+1,f
  3282     07D2                     l4072:
  3283                           
  3284                           ;car_black_box.c: 306:                     if (index == -1) {
  3285     07D2  0A5A               	incf	_index,w
  3286     07D3  1D03               	skipz
  3287     07D4  2FD9               	goto	u3761
  3288     07D5  0A5B               	incf	_index+1,w
  3289     07D6  1D03               	btfss	3,2
  3290     07D7  2FD9               	goto	u3761
  3291     07D8  2FDA               	goto	u3760
  3292     07D9                     u3761:
  3293     07D9  2FB4               	goto	l4064
  3294     07DA                     u3760:
  3295     07DA                     l4074:
  3296                           
  3297                           ;car_black_box.c: 307:                         index = 9;
  3298     07DA  3009               	movlw	9
  3299     07DB  00DA               	movwf	_index
  3300     07DC  3000               	movlw	0
  3301     07DD  00DB               	movwf	_index+1
  3302     07DE  2FB4               	goto	l4064
  3303     07DF                     l4076:
  3304                           
  3305                           ;car_black_box.c: 310:                     if (reset_flag == 0x06) {
  3306     07DF  3006               	movlw	6
  3307     07E0  0627               	xorwf	view_log@reset_flag,w
  3308     07E1  1D03               	btfss	3,2
  3309     07E2  2FE4               	goto	u3771
  3310     07E3  2FE5               	goto	u3770
  3311     07E4                     u3771:
  3312     07E4  2FEA               	goto	l4080
  3313     07E5                     u3770:
  3314     07E5                     l4078:
  3315                           
  3316                           ;car_black_box.c: 311:                         (index = pos);
  3317     07E5  087B               	movf	_pos+1,w
  3318     07E6  00DB               	movwf	_index+1
  3319     07E7  087A               	movf	_pos,w
  3320     07E8  00DA               	movwf	_index
  3321                           
  3322                           ;car_black_box.c: 312:                     } else {
  3323     07E9  2FB4               	goto	l4064
  3324     07EA                     l4080:
  3325                           
  3326                           ;car_black_box.c: 313:                         index--;
  3327     07EA  30FF               	movlw	255
  3328     07EB  07DA               	addwf	_index,f
  3329     07EC  1803               	skipnc
  3330     07ED  0ADB               	incf	_index+1,f
  3331     07EE  30FF               	movlw	255
  3332     07EF  07DB               	addwf	_index+1,f
  3333     07F0                     l4082:
  3334                           
  3335                           ;car_black_box.c: 315:                         if (index == -1) {
  3336     07F0  0A5A               	incf	_index,w
  3337     07F1  1D03               	skipz
  3338     07F2  2FF7               	goto	u3781
  3339     07F3  0A5B               	incf	_index+1,w
  3340     07F4  1D03               	btfss	3,2
  3341     07F5  2FF7               	goto	u3781
  3342     07F6  2FF8               	goto	u3780
  3343     07F7                     u3781:
  3344     07F7  2FB4               	goto	l4064
  3345     07F8                     u3780:
  3346     07F8  2FE5               	goto	l4078
  3347     07F9                     l132:	
  3348                           ;car_black_box.c: 322:         }
  3349                           
  3350     07F9                     l146:
  3351     07F9  0008               	return
  3352     07FA                     __end_of_view_log:
  3353                           
  3354                           	psect	text2
  3355     0DCE                     __ptext2:	
  3356 ;; *************** function _display_logs *****************
  3357 ;; Defined at:
  3358 ;;		line 253 in file "car_black_box.c"
  3359 ;; Parameters:    Size  Location     Type
  3360 ;;  i               2    5[BANK0 ] int 
  3361 ;; Auto vars:     Size  Location     Type
  3362 ;;		None
  3363 ;; Return value:  Size  Location     Type
  3364 ;;                  1    wreg      void 
  3365 ;; Registers used:
  3366 ;;		wreg, fsr0l, fsr0h, status,2, status,0, btemp+1, pclath, cstack
  3367 ;; Tracked objects:
  3368 ;;		On entry : 0/0
  3369 ;;		On exit  : 0/0
  3370 ;;		Unchanged: 0/0
  3371 ;; Data sizes:     COMMON   BANK0   BANK1   BANK3   BANK2
  3372 ;;      Params:         0       2       0       0       0
  3373 ;;      Locals:         0       0       0       0       0
  3374 ;;      Temps:          0       0       0       0       0
  3375 ;;      Totals:         0       2       0       0       0
  3376 ;;Total ram usage:        2 bytes
  3377 ;; Hardware stack levels used: 1
  3378 ;; Hardware stack levels required when called: 5
  3379 ;; This function calls:
  3380 ;;		___bmul
  3381 ;;		_clcd_print
  3382 ;;		_clcd_putch
  3383 ;;		_clear_screen
  3384 ;;		_eeprom_at24c04_read
  3385 ;; This function is called by:
  3386 ;;		_view_log
  3387 ;; This function uses a non-reentrant model
  3388 ;;
  3389                           
  3390     0DCE                     _display_logs:	
  3391                           ;psect for function _display_logs
  3392                           
  3393     0DCE                     l3730:	
  3394                           ;incstack = 0
  3395                           ; Regs used in _display_logs: [wreg-fsr0h+status,2+status,0+btemp+1+pclath+cstack]
  3396                           
  3397                           
  3398                           ;car_black_box.c: 254:     clear_screen();
  3399     0DCE  160A  118A  2424  120A  158A  	fcall	_clear_screen
  3400     0DD3                     l3732:
  3401                           
  3402                           ;car_black_box.c: 256:     clcd_print("# TIME     E  SP", (0x80 + 0));
  3403     0DD3  3069               	movlw	low (STR_14| (0+32768))
  3404     0DD4  00F6               	movwf	clcd_print@str
  3405     0DD5  3088               	movlw	high (STR_14| (0+32768))
  3406     0DD6  00F7               	movwf	clcd_print@str+1
  3407     0DD7  3080               	movlw	128
  3408     0DD8  00F8               	movwf	clcd_print@addr
  3409     0DD9  160A  118A  267C  120A  158A  	fcall	_clcd_print
  3410     0DDE                     l3734:
  3411                           
  3412                           ;car_black_box.c: 257:     clcd_putch(i + '0', (0xC0 + 0));
  3413     0DDE  30C0               	movlw	192
  3414     0DDF  1283               	bcf	3,5	;RP0=0, select bank0
  3415     0DE0  1303               	bcf	3,6	;RP1=0, select bank0
  3416     0DE1  00A3               	movwf	clcd_putch@addr
  3417     0DE2  0825               	movf	display_logs@i,w
  3418     0DE3  3E30               	addlw	48
  3419     0DE4  160A  118A  246D  120A  158A  	fcall	_clcd_putch
  3420     0DE9                     l3736:
  3421                           
  3422                           ;car_black_box.c: 259:     clcd_putch(eeprom_at24c04_read(0x05 + (i * 10)), (0xC0 + 2));
  3423     0DE9  30C2               	movlw	194
  3424     0DEA  1283               	bcf	3,5	;RP0=0, select bank0
  3425     0DEB  1303               	bcf	3,6	;RP1=0, select bank0
  3426     0DEC  00A3               	movwf	clcd_putch@addr
  3427     0DED  300A               	movlw	10
  3428     0DEE  00F2               	movwf	___bmul@multiplicand
  3429     0DEF  0825               	movf	display_logs@i,w
  3430     0DF0  160A  118A  2482  120A  158A  	fcall	___bmul
  3431     0DF5  3E05               	addlw	5
  3432     0DF6  160A  118A  25CD  120A  158A  	fcall	_eeprom_at24c04_read
  3433     0DFB  160A  118A  246D  120A  158A  	fcall	_clcd_putch
  3434     0E00                     l3738:
  3435                           
  3436                           ;car_black_box.c: 260:     clcd_putch(eeprom_at24c04_read(0x05 + (i * 10) + 1), (0xC0 + 
      +                          3));
  3437     0E00  30C3               	movlw	195
  3438     0E01  1283               	bcf	3,5	;RP0=0, select bank0
  3439     0E02  1303               	bcf	3,6	;RP1=0, select bank0
  3440     0E03  00A3               	movwf	clcd_putch@addr
  3441     0E04  300A               	movlw	10
  3442     0E05  00F2               	movwf	___bmul@multiplicand
  3443     0E06  0825               	movf	display_logs@i,w
  3444     0E07  160A  118A  2482  120A  158A  	fcall	___bmul
  3445     0E0C  3E06               	addlw	6
  3446     0E0D  160A  118A  25CD  120A  158A  	fcall	_eeprom_at24c04_read
  3447     0E12  160A  118A  246D  120A  158A  	fcall	_clcd_putch
  3448     0E17                     l3740:
  3449                           
  3450                           ;car_black_box.c: 261:     clcd_putch(':', (0xC0 + 4));
  3451     0E17  30C4               	movlw	196
  3452     0E18  1283               	bcf	3,5	;RP0=0, select bank0
  3453     0E19  1303               	bcf	3,6	;RP1=0, select bank0
  3454     0E1A  00A3               	movwf	clcd_putch@addr
  3455     0E1B  303A               	movlw	58
  3456     0E1C  160A  118A  246D  120A  158A  	fcall	_clcd_putch
  3457     0E21                     l3742:
  3458                           
  3459                           ;car_black_box.c: 262:     clcd_putch(eeprom_at24c04_read(0x05 + (i * 10) + 2), (0xC0 + 
      +                          5));
  3460     0E21  30C5               	movlw	197
  3461     0E22  1283               	bcf	3,5	;RP0=0, select bank0
  3462     0E23  1303               	bcf	3,6	;RP1=0, select bank0
  3463     0E24  00A3               	movwf	clcd_putch@addr
  3464     0E25  300A               	movlw	10
  3465     0E26  00F2               	movwf	___bmul@multiplicand
  3466     0E27  0825               	movf	display_logs@i,w
  3467     0E28  160A  118A  2482  120A  158A  	fcall	___bmul
  3468     0E2D  3E07               	addlw	7
  3469     0E2E  160A  118A  25CD  120A  158A  	fcall	_eeprom_at24c04_read
  3470     0E33  160A  118A  246D  120A  158A  	fcall	_clcd_putch
  3471     0E38                     l3744:
  3472                           
  3473                           ;car_black_box.c: 263:     clcd_putch(eeprom_at24c04_read(0x05 + (i * 10) + 3), (0xC0 + 
      +                          6));
  3474     0E38  30C6               	movlw	198
  3475     0E39  1283               	bcf	3,5	;RP0=0, select bank0
  3476     0E3A  1303               	bcf	3,6	;RP1=0, select bank0
  3477     0E3B  00A3               	movwf	clcd_putch@addr
  3478     0E3C  300A               	movlw	10
  3479     0E3D  00F2               	movwf	___bmul@multiplicand
  3480     0E3E  0825               	movf	display_logs@i,w
  3481     0E3F  160A  118A  2482  120A  158A  	fcall	___bmul
  3482     0E44  3E08               	addlw	8
  3483     0E45  160A  118A  25CD  120A  158A  	fcall	_eeprom_at24c04_read
  3484     0E4A  160A  118A  246D  120A  158A  	fcall	_clcd_putch
  3485     0E4F                     l3746:
  3486                           
  3487                           ;car_black_box.c: 264:     clcd_putch(':', (0xC0 + 7));
  3488     0E4F  30C7               	movlw	199
  3489     0E50  1283               	bcf	3,5	;RP0=0, select bank0
  3490     0E51  1303               	bcf	3,6	;RP1=0, select bank0
  3491     0E52  00A3               	movwf	clcd_putch@addr
  3492     0E53  303A               	movlw	58
  3493     0E54  160A  118A  246D  120A  158A  	fcall	_clcd_putch
  3494     0E59                     l3748:
  3495                           
  3496                           ;car_black_box.c: 265:     clcd_putch(eeprom_at24c04_read(0x05 + (i * 10) + 4), (0xC0 + 
      +                          8));
  3497     0E59  30C8               	movlw	200
  3498     0E5A  1283               	bcf	3,5	;RP0=0, select bank0
  3499     0E5B  1303               	bcf	3,6	;RP1=0, select bank0
  3500     0E5C  00A3               	movwf	clcd_putch@addr
  3501     0E5D  300A               	movlw	10
  3502     0E5E  00F2               	movwf	___bmul@multiplicand
  3503     0E5F  0825               	movf	display_logs@i,w
  3504     0E60  160A  118A  2482  120A  158A  	fcall	___bmul
  3505     0E65  3E09               	addlw	9
  3506     0E66  160A  118A  25CD  120A  158A  	fcall	_eeprom_at24c04_read
  3507     0E6B  160A  118A  246D  120A  158A  	fcall	_clcd_putch
  3508     0E70                     l3750:
  3509                           
  3510                           ;car_black_box.c: 266:     clcd_putch(eeprom_at24c04_read(0x05 + (i * 10) + 5), (0xC0 + 
      +                          9));
  3511     0E70  30C9               	movlw	201
  3512     0E71  1283               	bcf	3,5	;RP0=0, select bank0
  3513     0E72  1303               	bcf	3,6	;RP1=0, select bank0
  3514     0E73  00A3               	movwf	clcd_putch@addr
  3515     0E74  300A               	movlw	10
  3516     0E75  00F2               	movwf	___bmul@multiplicand
  3517     0E76  0825               	movf	display_logs@i,w
  3518     0E77  160A  118A  2482  120A  158A  	fcall	___bmul
  3519     0E7C  3E0A               	addlw	10
  3520     0E7D  160A  118A  25CD  120A  158A  	fcall	_eeprom_at24c04_read
  3521     0E82  160A  118A  246D  120A  158A  	fcall	_clcd_putch
  3522     0E87                     l3752:
  3523                           
  3524                           ;car_black_box.c: 269:     clcd_putch(eeprom_at24c04_read(0x05 + (i * 10) + 6), (0xC0 + 
      +                          11));
  3525     0E87  30CB               	movlw	203
  3526     0E88  1283               	bcf	3,5	;RP0=0, select bank0
  3527     0E89  1303               	bcf	3,6	;RP1=0, select bank0
  3528     0E8A  00A3               	movwf	clcd_putch@addr
  3529     0E8B  300A               	movlw	10
  3530     0E8C  00F2               	movwf	___bmul@multiplicand
  3531     0E8D  0825               	movf	display_logs@i,w
  3532     0E8E  160A  118A  2482  120A  158A  	fcall	___bmul
  3533     0E93  3E0B               	addlw	11
  3534     0E94  160A  118A  25CD  120A  158A  	fcall	_eeprom_at24c04_read
  3535     0E99  160A  118A  246D  120A  158A  	fcall	_clcd_putch
  3536     0E9E                     l3754:
  3537                           
  3538                           ;car_black_box.c: 270:     clcd_putch(eeprom_at24c04_read(0x05 + (i * 10) + 7), (0xC0 + 
      +                          12));
  3539     0E9E  30CC               	movlw	204
  3540     0E9F  1283               	bcf	3,5	;RP0=0, select bank0
  3541     0EA0  1303               	bcf	3,6	;RP1=0, select bank0
  3542     0EA1  00A3               	movwf	clcd_putch@addr
  3543     0EA2  300A               	movlw	10
  3544     0EA3  00F2               	movwf	___bmul@multiplicand
  3545     0EA4  0825               	movf	display_logs@i,w
  3546     0EA5  160A  118A  2482  120A  158A  	fcall	___bmul
  3547     0EAA  3E0C               	addlw	12
  3548     0EAB  160A  118A  25CD  120A  158A  	fcall	_eeprom_at24c04_read
  3549     0EB0  160A  118A  246D  120A  158A  	fcall	_clcd_putch
  3550     0EB5                     l3756:
  3551                           
  3552                           ;car_black_box.c: 272:     clcd_putch(eeprom_at24c04_read(0x05 + (i * 10) + 8), (0xC0 + 
      +                          14));
  3553     0EB5  30CE               	movlw	206
  3554     0EB6  1283               	bcf	3,5	;RP0=0, select bank0
  3555     0EB7  1303               	bcf	3,6	;RP1=0, select bank0
  3556     0EB8  00A3               	movwf	clcd_putch@addr
  3557     0EB9  300A               	movlw	10
  3558     0EBA  00F2               	movwf	___bmul@multiplicand
  3559     0EBB  0825               	movf	display_logs@i,w
  3560     0EBC  160A  118A  2482  120A  158A  	fcall	___bmul
  3561     0EC1  3E0D               	addlw	13
  3562     0EC2  160A  118A  25CD  120A  158A  	fcall	_eeprom_at24c04_read
  3563     0EC7  160A  118A  246D  120A  158A  	fcall	_clcd_putch
  3564     0ECC                     l3758:
  3565                           
  3566                           ;car_black_box.c: 273:     clcd_putch(eeprom_at24c04_read(0x05 + (i * 10) + 9), (0xC0 + 
      +                          15));
  3567     0ECC  30CF               	movlw	207
  3568     0ECD  1283               	bcf	3,5	;RP0=0, select bank0
  3569     0ECE  1303               	bcf	3,6	;RP1=0, select bank0
  3570     0ECF  00A3               	movwf	clcd_putch@addr
  3571     0ED0  300A               	movlw	10
  3572     0ED1  00F2               	movwf	___bmul@multiplicand
  3573     0ED2  0825               	movf	display_logs@i,w
  3574     0ED3  160A  118A  2482  120A  158A  	fcall	___bmul
  3575     0ED8  3E0E               	addlw	14
  3576     0ED9  160A  118A  25CD  120A  158A  	fcall	_eeprom_at24c04_read
  3577     0EDE  160A  118A  246D  120A  158A  	fcall	_clcd_putch
  3578     0EE3                     l126:
  3579     0EE3  0008               	return
  3580     0EE4                     __end_of_display_logs:
  3581                           
  3582                           	psect	text3
  3583     150D                     __ptext3:	
  3584 ;; *************** function _strcpy *****************
  3585 ;; Defined at:
  3586 ;;		line 3 in file "C:\Program Files\Microchip\xc8\v2.46\pic\sources\c99\common\strcpy.c"
  3587 ;; Parameters:    Size  Location     Type
  3588 ;;  dest            1    wreg     PTR unsigned char 
  3589 ;;		 -> main@event(3), 
  3590 ;;  src             2    2[COMMON] PTR const unsigned char 
  3591 ;;		 -> STR_37(3), STR_35(3), STR_34(3), STR_33(3), 
  3592 ;;		 -> STR_32(3), STR_31(3), STR_30(3), 
  3593 ;; Auto vars:     Size  Location     Type
  3594 ;;  dest            1    7[COMMON] PTR unsigned char 
  3595 ;;		 -> main@event(3), 
  3596 ;;  d               1    6[COMMON] PTR unsigned char 
  3597 ;;		 -> main@event(3), 
  3598 ;; Return value:  Size  Location     Type
  3599 ;;                  1    wreg      PTR unsigned char 
  3600 ;; Registers used:
  3601 ;;		wreg, fsr0l, fsr0h, status,2, status,0, btemp+1, pclath
  3602 ;; Tracked objects:
  3603 ;;		On entry : 0/0
  3604 ;;		On exit  : 0/0
  3605 ;;		Unchanged: 0/0
  3606 ;; Data sizes:     COMMON   BANK0   BANK1   BANK3   BANK2
  3607 ;;      Params:         2       0       0       0       0
  3608 ;;      Locals:         2       0       0       0       0
  3609 ;;      Temps:          2       0       0       0       0
  3610 ;;      Totals:         6       0       0       0       0
  3611 ;;Total ram usage:        6 bytes
  3612 ;; Hardware stack levels used: 2
  3613 ;; Hardware stack levels required when called: 1
  3614 ;; This function calls:
  3615 ;;		Nothing
  3616 ;; This function is called by:
  3617 ;;		_main
  3618 ;; This function uses a non-reentrant model
  3619 ;;
  3620                           
  3621     150D                     _strcpy:	
  3622                           ;psect for function _strcpy
  3623                           
  3624                           
  3625                           ;incstack = 0
  3626                           ; Regs used in _strcpy: [wreg-fsr0h+status,2+status,0+btemp+1+pclath]
  3627                           ;strcpy@dest stored from wreg
  3628     150D  00F7               	movwf	strcpy@dest
  3629     150E                     l3284:
  3630     150E  0877               	movf	strcpy@dest,w
  3631     150F  00F6               	movwf	strcpy@d
  3632     1510                     l3286:
  3633     1510  0873               	movf	strcpy@src+1,w
  3634     1511  00F5               	movwf	??_strcpy+1
  3635     1512  0872               	movf	strcpy@src,w
  3636     1513  00F4               	movwf	??_strcpy
  3637     1514  0AF2               	incf	strcpy@src,f
  3638     1515  1903               	skipnz
  3639     1516  0AF3               	incf	strcpy@src+1,f
  3640     1517  0875               	movf	??_strcpy+1,w
  3641     1518  1283               	bcf	3,5	;RP0=0, select bank0
  3642     1519  1303               	bcf	3,6	;RP1=0, select bank0
  3643     151A  00FF               	movwf	btemp+1
  3644     151B  0874               	movf	??_strcpy,w
  3645     151C  0084               	movwf	4
  3646     151D  160A  118A  2000  160A  118A  	fcall	stringtab
  3647     1522  00FF               	movwf	btemp+1
  3648     1523  0876               	movf	strcpy@d,w
  3649     1524  0084               	movwf	4
  3650     1525  3001               	movlw	1
  3651     1526  07F6               	addwf	strcpy@d,f
  3652     1527  087F               	movf	btemp+1,w
  3653     1528  1383               	bcf	3,7	;select IRP bank0
  3654     1529  0080               	movwf	0
  3655     152A  0800               	movf	0,w
  3656     152B  1D03               	btfss	3,2
  3657     152C  2D2E               	goto	u2811
  3658     152D  2D2F               	goto	u2810
  3659     152E                     u2811:
  3660     152E  2D10               	goto	l3286
  3661     152F                     u2810:
  3662     152F                     l1089:
  3663     152F  0008               	return
  3664     1530                     __end_of_strcpy:
  3665                           
  3666                           	psect	text4
  3667     0CAA                     __ptext4:	
  3668 ;; *************** function _read_digital_keypad *****************
  3669 ;; Defined at:
  3670 ;;		line 18 in file "digital_keypad.c"
  3671 ;; Parameters:    Size  Location     Type
  3672 ;;  mode            1    wreg     unsigned char 
  3673 ;; Auto vars:     Size  Location     Type
  3674 ;;  mode            1    2[COMMON] unsigned char 
  3675 ;;  temp            1    5[COMMON] unsigned char 
  3676 ;;  key             1    6[COMMON] unsigned char 
  3677 ;; Return value:  Size  Location     Type
  3678 ;;                  1    wreg      unsigned char 
  3679 ;; Registers used:
  3680 ;;		wreg, status,2, status,0
  3681 ;; Tracked objects:
  3682 ;;		On entry : 0/0
  3683 ;;		On exit  : 0/0
  3684 ;;		Unchanged: 0/0
  3685 ;; Data sizes:     COMMON   BANK0   BANK1   BANK3   BANK2
  3686 ;;      Params:         0       0       0       0       0
  3687 ;;      Locals:         5       0       0       0       0
  3688 ;;      Temps:          0       0       0       0       0
  3689 ;;      Totals:         5       0       0       0       0
  3690 ;;Total ram usage:        5 bytes
  3691 ;; Hardware stack levels used: 1
  3692 ;; Hardware stack levels required when called: 1
  3693 ;; This function calls:
  3694 ;;		Nothing
  3695 ;; This function is called by:
  3696 ;;		_main
  3697 ;; This function uses a non-reentrant model
  3698 ;;
  3699                           
  3700     0CAA                     _read_digital_keypad:	
  3701                           ;psect for function _read_digital_keypad
  3702                           
  3703                           
  3704                           ;incstack = 0
  3705                           ; Regs used in _read_digital_keypad: [wreg+status,2+status,0]
  3706                           ;read_digital_keypad@mode stored from wreg
  3707     0CAA  00F2               	movwf	read_digital_keypad@mode
  3708     0CAB                     l3196:
  3709                           
  3710                           ;digital_keypad.c: 18: unsigned char read_digital_keypad(unsigned char mode);digital_key
      +                          pad.c: 19: {;digital_keypad.c: 20:     static unsigned char once = 1;;digital_keypad.c: 
      +                          21:     static unsigned int long_press = 0;;digital_keypad.c: 22:     static unsigned ch
      +                          ar switch_state = 0x3F;;digital_keypad.c: 24:     unsigned char key = PORTB & 0x3F;
  3711     0CAB  1283               	bcf	3,5	;RP0=0, select bank0
  3712     0CAC  1303               	bcf	3,6	;RP1=0, select bank0
  3713     0CAD  0806               	movf	6,w	;volatile
  3714     0CAE  393F               	andlw	63
  3715     0CAF  00F6               	movwf	read_digital_keypad@key
  3716     0CB0                     l3198:
  3717                           
  3718                           ;digital_keypad.c: 26:     if (mode == 0)
  3719     0CB0  0872               	movf	read_digital_keypad@mode,w
  3720     0CB1  1D03               	btfss	3,2
  3721     0CB2  2CB4               	goto	u2671
  3722     0CB3  2CB5               	goto	u2670
  3723     0CB4                     u2671:
  3724     0CB4  2CB7               	goto	l3206
  3725     0CB5                     u2670:
  3726     0CB5                     l3200:
  3727                           
  3728                           ;digital_keypad.c: 27:     {;digital_keypad.c: 28:         return key;
  3729     0CB5  0876               	movf	read_digital_keypad@key,w
  3730     0CB6  2D2E               	goto	l238
  3731     0CB7                     l3206:
  3732                           
  3733                           ;digital_keypad.c: 31:     {;digital_keypad.c: 33:         if (key == 0x37 || key == 0x2
      +                          F)
  3734     0CB7  3037               	movlw	55
  3735     0CB8  0676               	xorwf	read_digital_keypad@key,w
  3736     0CB9  1903               	btfsc	3,2
  3737     0CBA  2CBC               	goto	u2681
  3738     0CBB  2CBD               	goto	u2680
  3739     0CBC                     u2681:
  3740     0CBC  2CC3               	goto	l3210
  3741     0CBD                     u2680:
  3742     0CBD                     l3208:
  3743     0CBD  302F               	movlw	47
  3744     0CBE  0676               	xorwf	read_digital_keypad@key,w
  3745     0CBF  1D03               	btfss	3,2
  3746     0CC0  2CC2               	goto	u2691
  3747     0CC1  2CC3               	goto	u2690
  3748     0CC2                     u2691:
  3749     0CC2  2CF8               	goto	l3232
  3750     0CC3                     u2690:
  3751     0CC3                     l3210:
  3752                           
  3753                           ;digital_keypad.c: 34:         {;digital_keypad.c: 35:             if (key == switch_sta
      +                          te)
  3754     0CC3  0876               	movf	read_digital_keypad@key,w
  3755     0CC4  066E               	xorwf	read_digital_keypad@switch_state,w
  3756     0CC5  1D03               	skipz
  3757     0CC6  2CC8               	goto	u2701
  3758     0CC7  2CC9               	goto	u2700
  3759     0CC8                     u2701:
  3760     0CC8  2CED               	goto	l3226
  3761     0CC9                     u2700:
  3762     0CC9                     l3212:
  3763                           
  3764                           ;digital_keypad.c: 36:             {;digital_keypad.c: 37:                 long_press++;
  3765     0CC9  3001               	movlw	1
  3766     0CCA  07D6               	addwf	read_digital_keypad@long_press,f
  3767     0CCB  1803               	skipnc
  3768     0CCC  0AD7               	incf	read_digital_keypad@long_press+1,f
  3769     0CCD  3000               	movlw	0
  3770     0CCE  07D7               	addwf	read_digital_keypad@long_press+1,f
  3771                           
  3772                           ;digital_keypad.c: 38:                 if (long_press > 20)
  3773     0CCF  3000               	movlw	0
  3774     0CD0  0257               	subwf	read_digital_keypad@long_press+1,w
  3775     0CD1  3015               	movlw	21
  3776     0CD2  1903               	skipnz
  3777     0CD3  0256               	subwf	read_digital_keypad@long_press,w
  3778     0CD4  1C03               	skipc
  3779     0CD5  2CD7               	goto	u2711
  3780     0CD6  2CD8               	goto	u2710
  3781     0CD7                     u2711:
  3782     0CD7  2D0C               	goto	l3244
  3783     0CD8                     u2710:
  3784     0CD8                     l3214:
  3785                           
  3786                           ;digital_keypad.c: 39:                 {;digital_keypad.c: 40:                     long_
      +                          press = 0;
  3787     0CD8  01D6               	clrf	read_digital_keypad@long_press
  3788     0CD9  01D7               	clrf	read_digital_keypad@long_press+1
  3789     0CDA                     l3216:
  3790                           
  3791                           ;digital_keypad.c: 41:                     switch_state = 0x3F;
  3792     0CDA  303F               	movlw	63
  3793     0CDB  00EE               	movwf	read_digital_keypad@switch_state
  3794     0CDC                     l3218:
  3795                           
  3796                           ;digital_keypad.c: 42:                     return (key == 0x37) ? 0x44 : 0x55;
  3797     0CDC  3037               	movlw	55
  3798     0CDD  0676               	xorwf	read_digital_keypad@key,w
  3799     0CDE  1903               	btfsc	3,2
  3800     0CDF  2CE1               	goto	u2721
  3801     0CE0  2CE2               	goto	u2720
  3802     0CE1                     u2721:
  3803     0CE1  2CE7               	goto	l3222
  3804     0CE2                     u2720:
  3805     0CE2                     l3220:
  3806     0CE2  3055               	movlw	85
  3807     0CE3  00F3               	movwf	_read_digital_keypad$221
  3808     0CE4  3000               	movlw	0
  3809     0CE5  00F4               	movwf	_read_digital_keypad$221+1
  3810     0CE6  2CEB               	goto	l248
  3811     0CE7                     l3222:
  3812     0CE7  3044               	movlw	68
  3813     0CE8  00F3               	movwf	_read_digital_keypad$221
  3814     0CE9  3000               	movlw	0
  3815     0CEA  00F4               	movwf	_read_digital_keypad$221+1
  3816     0CEB                     l248:
  3817     0CEB  0873               	movf	_read_digital_keypad$221,w
  3818     0CEC  2D2E               	goto	l238
  3819     0CED                     l3226:
  3820     0CED  303F               	movlw	63
  3821     0CEE  066E               	xorwf	read_digital_keypad@switch_state,w
  3822     0CEF  1D03               	btfss	3,2
  3823     0CF0  2CF2               	goto	u2731
  3824     0CF1  2CF3               	goto	u2730
  3825     0CF2                     u2731:
  3826     0CF2  2D0C               	goto	l3244
  3827     0CF3                     u2730:
  3828     0CF3                     l3228:
  3829                           
  3830                           ;digital_keypad.c: 46:             {;digital_keypad.c: 47:                 switch_state 
      +                          = key;
  3831     0CF3  0876               	movf	read_digital_keypad@key,w
  3832     0CF4  00EE               	movwf	read_digital_keypad@switch_state
  3833     0CF5                     l3230:
  3834                           
  3835                           ;digital_keypad.c: 48:                 long_press = 0;
  3836     0CF5  01D6               	clrf	read_digital_keypad@long_press
  3837     0CF6  01D7               	clrf	read_digital_keypad@long_press+1
  3838     0CF7  2D0C               	goto	l3244
  3839     0CF8                     l3232:
  3840                           
  3841                           ;digital_keypad.c: 52:         {;digital_keypad.c: 53:             if (switch_state == 0
      +                          x37 || switch_state == 0x2F)
  3842     0CF8  3037               	movlw	55
  3843     0CF9  066E               	xorwf	read_digital_keypad@switch_state,w
  3844     0CFA  1903               	btfsc	3,2
  3845     0CFB  2CFD               	goto	u2741
  3846     0CFC  2CFE               	goto	u2740
  3847     0CFD                     u2741:
  3848     0CFD  2D04               	goto	l3236
  3849     0CFE                     u2740:
  3850     0CFE                     l3234:
  3851     0CFE  302F               	movlw	47
  3852     0CFF  066E               	xorwf	read_digital_keypad@switch_state,w
  3853     0D00  1D03               	btfss	3,2
  3854     0D01  2D03               	goto	u2751
  3855     0D02  2D04               	goto	u2750
  3856     0D03                     u2751:
  3857     0D03  2D0C               	goto	l3244
  3858     0D04                     u2750:
  3859     0D04                     l3236:
  3860                           
  3861                           ;digital_keypad.c: 54:             {;digital_keypad.c: 56:                 unsigned char
      +                           temp = switch_state;
  3862     0D04  086E               	movf	read_digital_keypad@switch_state,w
  3863     0D05  00F5               	movwf	read_digital_keypad@temp
  3864                           
  3865                           ;digital_keypad.c: 57:                 switch_state = 0x3F;
  3866     0D06  303F               	movlw	63
  3867     0D07  00EE               	movwf	read_digital_keypad@switch_state
  3868     0D08                     l3238:
  3869                           
  3870                           ;digital_keypad.c: 58:                 long_press = 0;
  3871     0D08  01D6               	clrf	read_digital_keypad@long_press
  3872     0D09  01D7               	clrf	read_digital_keypad@long_press+1
  3873     0D0A                     l3240:
  3874                           
  3875                           ;digital_keypad.c: 59:                 return temp;
  3876     0D0A  0875               	movf	read_digital_keypad@temp,w
  3877     0D0B  2D2E               	goto	l238
  3878     0D0C                     l3244:
  3879                           
  3880                           ;digital_keypad.c: 64:         if (key != 0x3F && once && key != 0x37 && key != 0x2F)
  3881     0D0C  303F               	movlw	63
  3882     0D0D  0676               	xorwf	read_digital_keypad@key,w
  3883     0D0E  1903               	btfsc	3,2
  3884     0D0F  2D11               	goto	u2761
  3885     0D10  2D12               	goto	u2760
  3886     0D11                     u2761:
  3887     0D11  2D25               	goto	l3260
  3888     0D12                     u2760:
  3889     0D12                     l3246:
  3890     0D12  086F               	movf	read_digital_keypad@once,w
  3891     0D13  1903               	btfsc	3,2
  3892     0D14  2D16               	goto	u2771
  3893     0D15  2D17               	goto	u2770
  3894     0D16                     u2771:
  3895     0D16  2D25               	goto	l3260
  3896     0D17                     u2770:
  3897     0D17                     l3248:
  3898     0D17  3037               	movlw	55
  3899     0D18  0676               	xorwf	read_digital_keypad@key,w
  3900     0D19  1903               	btfsc	3,2
  3901     0D1A  2D1C               	goto	u2781
  3902     0D1B  2D1D               	goto	u2780
  3903     0D1C                     u2781:
  3904     0D1C  2D25               	goto	l3260
  3905     0D1D                     u2780:
  3906     0D1D                     l3250:
  3907     0D1D  302F               	movlw	47
  3908     0D1E  0676               	xorwf	read_digital_keypad@key,w
  3909     0D1F  1903               	btfsc	3,2
  3910     0D20  2D22               	goto	u2791
  3911     0D21  2D23               	goto	u2790
  3912     0D22                     u2791:
  3913     0D22  2D25               	goto	l3260
  3914     0D23                     u2790:
  3915     0D23                     l3252:
  3916                           
  3917                           ;digital_keypad.c: 65:         {;digital_keypad.c: 66:             once = 0;
  3918     0D23  01EF               	clrf	read_digital_keypad@once
  3919     0D24  2CB5               	goto	l3200
  3920     0D25                     l3260:
  3921     0D25  303F               	movlw	63
  3922     0D26  0676               	xorwf	read_digital_keypad@key,w
  3923     0D27  1D03               	btfss	3,2
  3924     0D28  2D2A               	goto	u2801
  3925     0D29  2D2B               	goto	u2800
  3926     0D2A                     u2801:
  3927     0D2A  2D2D               	goto	l3264
  3928     0D2B                     u2800:
  3929     0D2B                     l3262:
  3930                           
  3931                           ;digital_keypad.c: 70:         {;digital_keypad.c: 71:             once = 1;
  3932     0D2B  01EF               	clrf	read_digital_keypad@once
  3933     0D2C  0AEF               	incf	read_digital_keypad@once,f
  3934     0D2D                     l3264:
  3935                           
  3936                           ;digital_keypad.c: 75:     return 0x3F;
  3937     0D2D  303F               	movlw	63
  3938     0D2E                     l238:
  3939     0D2E  0008               	return
  3940     0D2F                     __end_of_read_digital_keypad:
  3941                           
  3942                           	psect	text5
  3943     1435                     __ptext5:	
  3944 ;; *************** function _read_adc *****************
  3945 ;; Defined at:
  3946 ;;		line 20 in file "adc.c"
  3947 ;; Parameters:    Size  Location     Type
  3948 ;;		None
  3949 ;; Auto vars:     Size  Location     Type
  3950 ;;  adc_reg_val     2    4[COMMON] unsigned short 
  3951 ;; Return value:  Size  Location     Type
  3952 ;;                  2    2[COMMON] unsigned short 
  3953 ;; Registers used:
  3954 ;;		wreg
  3955 ;; Tracked objects:
  3956 ;;		On entry : 0/0
  3957 ;;		On exit  : 0/0
  3958 ;;		Unchanged: 0/0
  3959 ;; Data sizes:     COMMON   BANK0   BANK1   BANK3   BANK2
  3960 ;;      Params:         2       0       0       0       0
  3961 ;;      Locals:         2       0       0       0       0
  3962 ;;      Temps:          0       0       0       0       0
  3963 ;;      Totals:         4       0       0       0       0
  3964 ;;Total ram usage:        4 bytes
  3965 ;; Hardware stack levels used: 1
  3966 ;; Hardware stack levels required when called: 1
  3967 ;; This function calls:
  3968 ;;		Nothing
  3969 ;; This function is called by:
  3970 ;;		_main
  3971 ;; This function uses a non-reentrant model
  3972 ;;
  3973                           
  3974     1435                     _read_adc:	
  3975                           ;psect for function _read_adc
  3976                           
  3977     1435                     l2768:	
  3978                           ;incstack = 0
  3979                           ; Regs used in _read_adc: [wreg]
  3980                           
  3981                           
  3982                           ;adc.c: 22:     unsigned short adc_reg_val;;adc.c: 25:     GO = 1;
  3983     1435  1283               	bcf	3,5	;RP0=0, select bank0
  3984     1436  1303               	bcf	3,6	;RP1=0, select bank0
  3985     1437  151F               	bsf	31,2	;volatile
  3986     1438                     l18:	
  3987                           ;adc.c: 28:     while (nDONE);
  3988                           
  3989     1438  191F               	btfsc	31,2	;volatile
  3990     1439  2C3B               	goto	u2211
  3991     143A  2C3C               	goto	u2210
  3992     143B                     u2211:
  3993     143B  2C38               	goto	l18
  3994     143C                     u2210:
  3995     143C                     l2770:
  3996                           
  3997                           ;adc.c: 31:     adc_reg_val = (ADRESH << 8) | ADRESL;
  3998     143C  081E               	movf	30,w	;volatile
  3999     143D  00F5               	movwf	read_adc@adc_reg_val+1
  4000     143E  1683               	bsf	3,5	;RP0=1, select bank1
  4001     143F  1303               	bcf	3,6	;RP1=0, select bank1
  4002     1440  081E               	movf	30,w	;volatile
  4003     1441  00F4               	movwf	read_adc@adc_reg_val
  4004                           
  4005                           ;adc.c: 33:     return adc_reg_val;
  4006     1442  0875               	movf	read_adc@adc_reg_val+1,w
  4007     1443  00F3               	movwf	?_read_adc+1
  4008     1444  0874               	movf	read_adc@adc_reg_val,w
  4009     1445  00F2               	movwf	?_read_adc
  4010     1446                     l21:
  4011     1446  0008               	return
  4012     1447                     __end_of_read_adc:
  4013                           
  4014                           	psect	text6
  4015     0D2F                     __ptext6:	
  4016 ;; *************** function _menu_screen *****************
  4017 ;; Defined at:
  4018 ;;		line 130 in file "car_black_box.c"
  4019 ;; Parameters:    Size  Location     Type
  4020 ;;  key             1    wreg     unsigned char 
  4021 ;;  reset_flag      1    5[BANK0 ] unsigned char 
  4022 ;; Auto vars:     Size  Location     Type
  4023 ;;  key             1    8[BANK0 ] unsigned char 
  4024 ;; Return value:  Size  Location     Type
  4025 ;;                  1    wreg      unsigned char 
  4026 ;; Registers used:
  4027 ;;		wreg, fsr0l, fsr0h, status,2, status,0, btemp+1, pclath, cstack
  4028 ;; Tracked objects:
  4029 ;;		On entry : 0/0
  4030 ;;		On exit  : 0/0
  4031 ;;		Unchanged: 0/0
  4032 ;; Data sizes:     COMMON   BANK0   BANK1   BANK3   BANK2
  4033 ;;      Params:         0       1       0       0       0
  4034 ;;      Locals:         0       1       0       0       0
  4035 ;;      Temps:          0       2       0       0       0
  4036 ;;      Totals:         0       4       0       0       0
  4037 ;;Total ram usage:        4 bytes
  4038 ;; Hardware stack levels used: 1
  4039 ;; Hardware stack levels required when called: 3
  4040 ;; This function calls:
  4041 ;;		_clcd_print
  4042 ;;		_clcd_putch
  4043 ;;		_clear_screen
  4044 ;; This function is called by:
  4045 ;;		_main
  4046 ;; This function uses a non-reentrant model
  4047 ;;
  4048                           
  4049     0D2F                     _menu_screen:	
  4050                           ;psect for function _menu_screen
  4051                           
  4052                           
  4053                           ;incstack = 0
  4054                           ; Regs used in _menu_screen: [wreg-fsr0h+status,2+status,0+btemp+1+pclath+cstack]
  4055                           ;menu_screen@key stored from wreg
  4056     0D2F  1283               	bcf	3,5	;RP0=0, select bank0
  4057     0D30  1303               	bcf	3,6	;RP1=0, select bank0
  4058     0D31  00A8               	movwf	menu_screen@key
  4059     0D32                     l3886:
  4060                           
  4061                           ;car_black_box.c: 131:     static unsigned char menu_pos;;car_black_box.c: 132:     if (
      +                          reset_flag == 0x05) {
  4062     0D32  3005               	movlw	5
  4063     0D33  0625               	xorwf	menu_screen@reset_flag,w
  4064     0D34  1D03               	btfss	3,2
  4065     0D35  2D37               	goto	u3491
  4066     0D36  2D38               	goto	u3490
  4067     0D37                     u3491:
  4068     0D37  2D39               	goto	l3890
  4069     0D38                     u3490:
  4070     0D38                     l3888:
  4071                           
  4072                           ;car_black_box.c: 134:         menu_pos = 0;
  4073     0D38  01E3               	clrf	menu_screen@menu_pos
  4074     0D39                     l3890:
  4075                           
  4076                           ;car_black_box.c: 138:     if (key == 0x37 && menu_pos < 4) {
  4077     0D39  3037               	movlw	55
  4078     0D3A  0628               	xorwf	menu_screen@key,w
  4079     0D3B  1D03               	btfss	3,2
  4080     0D3C  2D3E               	goto	u3501
  4081     0D3D  2D3F               	goto	u3500
  4082     0D3E                     u3501:
  4083     0D3E  2D4F               	goto	l3898
  4084     0D3F                     u3500:
  4085     0D3F                     l3892:
  4086     0D3F  3004               	movlw	4
  4087     0D40  0263               	subwf	menu_screen@menu_pos,w
  4088     0D41  1803               	skipnc
  4089     0D42  2D44               	goto	u3511
  4090     0D43  2D45               	goto	u3510
  4091     0D44                     u3511:
  4092     0D44  2D4F               	goto	l3898
  4093     0D45                     u3510:
  4094     0D45                     l3894:
  4095                           
  4096                           ;car_black_box.c: 139:         menu_pos++;
  4097     0D45  3001               	movlw	1
  4098     0D46  00FF               	movwf	btemp+1
  4099     0D47  087F               	movf	btemp+1,w
  4100     0D48  07E3               	addwf	menu_screen@menu_pos,f
  4101     0D49                     l3896:
  4102                           
  4103                           ;car_black_box.c: 141:         clear_screen();
  4104     0D49  160A  118A  2424  120A  158A  	fcall	_clear_screen
  4105                           
  4106                           ;car_black_box.c: 142:     } else if (key == 0x2F && menu_pos > 0) {
  4107     0D4E  2D5D               	goto	l3906
  4108     0D4F                     l3898:
  4109     0D4F  302F               	movlw	47
  4110     0D50  0628               	xorwf	menu_screen@key,w
  4111     0D51  1D03               	btfss	3,2
  4112     0D52  2D54               	goto	u3521
  4113     0D53  2D55               	goto	u3520
  4114     0D54                     u3521:
  4115     0D54  2D5D               	goto	l3906
  4116     0D55                     u3520:
  4117     0D55                     l3900:
  4118     0D55  0863               	movf	menu_screen@menu_pos,w
  4119     0D56  1903               	btfsc	3,2
  4120     0D57  2D59               	goto	u3531
  4121     0D58  2D5A               	goto	u3530
  4122     0D59                     u3531:
  4123     0D59  2D5D               	goto	l3906
  4124     0D5A                     u3530:
  4125     0D5A                     l3902:
  4126                           
  4127                           ;car_black_box.c: 143:         menu_pos--;
  4128     0D5A  3001               	movlw	1
  4129     0D5B  02E3               	subwf	menu_screen@menu_pos,f
  4130     0D5C  2D49               	goto	l3896
  4131     0D5D                     l3906:
  4132                           
  4133                           ;car_black_box.c: 147:     if (menu_pos == 4) {
  4134     0D5D  3004               	movlw	4
  4135     0D5E  1283               	bcf	3,5	;RP0=0, select bank0
  4136     0D5F  1303               	bcf	3,6	;RP1=0, select bank0
  4137     0D60  0663               	xorwf	menu_screen@menu_pos,w
  4138     0D61  1D03               	btfss	3,2
  4139     0D62  2D64               	goto	u3541
  4140     0D63  2D65               	goto	u3540
  4141     0D64                     u3541:
  4142     0D64  2D98               	goto	l3912
  4143     0D65                     u3540:
  4144     0D65                     l3908:
  4145                           
  4146                           ;car_black_box.c: 148:         clcd_print(menu[menu_pos - 1], (0x80 + 2));
  4147     0D65  0863               	movf	menu_screen@menu_pos,w
  4148     0D66  00A6               	movwf	??_menu_screen
  4149     0D67  0726               	addwf	??_menu_screen,w
  4150     0D68  3EAA               	addlw	(low ((_menu| 0+254)))& (0+255)
  4151     0D69  0084               	movwf	4
  4152     0D6A  1383               	bcf	3,7	;select IRP bank1
  4153     0D6B  0800               	movf	0,w
  4154     0D6C  00F6               	movwf	clcd_print@str
  4155     0D6D  0A84               	incf	4,f
  4156     0D6E  0800               	movf	0,w
  4157     0D6F  0384               	decf	4,f
  4158     0D70  00F7               	movwf	clcd_print@str+1
  4159     0D71  3082               	movlw	130
  4160     0D72  00F8               	movwf	clcd_print@addr
  4161     0D73  160A  118A  267C  120A  158A  	fcall	_clcd_print
  4162                           
  4163                           ;car_black_box.c: 149:         clcd_print(menu[menu_pos ], (0xC0 + 2));
  4164     0D78  1283               	bcf	3,5	;RP0=0, select bank0
  4165     0D79  1303               	bcf	3,6	;RP1=0, select bank0
  4166     0D7A  0863               	movf	menu_screen@menu_pos,w
  4167     0D7B  00A6               	movwf	??_menu_screen
  4168     0D7C  0726               	addwf	??_menu_screen,w
  4169     0D7D  3EAC               	addlw	(low (_menu| 0))& (0+255)
  4170     0D7E  0084               	movwf	4
  4171     0D7F  1383               	bcf	3,7	;select IRP bank1
  4172     0D80  0800               	movf	0,w
  4173     0D81  00F6               	movwf	clcd_print@str
  4174     0D82  0A84               	incf	4,f
  4175     0D83  0800               	movf	0,w
  4176     0D84  0384               	decf	4,f
  4177     0D85  00F7               	movwf	clcd_print@str+1
  4178     0D86  30C2               	movlw	194
  4179     0D87  00F8               	movwf	clcd_print@addr
  4180     0D88  160A  118A  267C  120A  158A  	fcall	_clcd_print
  4181     0D8D                     l3910:
  4182                           
  4183                           ;car_black_box.c: 150:         clcd_putch('*', (0xC0 + 0));
  4184     0D8D  30C0               	movlw	192
  4185     0D8E  1283               	bcf	3,5	;RP0=0, select bank0
  4186     0D8F  1303               	bcf	3,6	;RP1=0, select bank0
  4187     0D90  00A3               	movwf	clcd_putch@addr
  4188     0D91  302A               	movlw	42
  4189     0D92  160A  118A  246D  120A  158A  	fcall	_clcd_putch
  4190                           
  4191                           ;car_black_box.c: 151:     } else {
  4192     0D97  2DCA               	goto	l3916
  4193     0D98                     l3912:
  4194                           
  4195                           ;car_black_box.c: 152:         clcd_print(menu[menu_pos], (0x80 + 2));
  4196     0D98  0863               	movf	menu_screen@menu_pos,w
  4197     0D99  00A6               	movwf	??_menu_screen
  4198     0D9A  0726               	addwf	??_menu_screen,w
  4199     0D9B  3EAC               	addlw	(low (_menu| 0))& (0+255)
  4200     0D9C  0084               	movwf	4
  4201     0D9D  1383               	bcf	3,7	;select IRP bank1
  4202     0D9E  0800               	movf	0,w
  4203     0D9F  00F6               	movwf	clcd_print@str
  4204     0DA0  0A84               	incf	4,f
  4205     0DA1  0800               	movf	0,w
  4206     0DA2  0384               	decf	4,f
  4207     0DA3  00F7               	movwf	clcd_print@str+1
  4208     0DA4  3082               	movlw	130
  4209     0DA5  00F8               	movwf	clcd_print@addr
  4210     0DA6  160A  118A  267C  120A  158A  	fcall	_clcd_print
  4211                           
  4212                           ;car_black_box.c: 153:         clcd_print(menu[menu_pos + 1], (0xC0 + 2));
  4213     0DAB  1283               	bcf	3,5	;RP0=0, select bank0
  4214     0DAC  1303               	bcf	3,6	;RP1=0, select bank0
  4215     0DAD  0863               	movf	menu_screen@menu_pos,w
  4216     0DAE  00A6               	movwf	??_menu_screen
  4217     0DAF  0726               	addwf	??_menu_screen,w
  4218     0DB0  3EAE               	addlw	(low ((_menu| 0+2)))& (0+255)
  4219     0DB1  0084               	movwf	4
  4220     0DB2  1383               	bcf	3,7	;select IRP bank1
  4221     0DB3  0800               	movf	0,w
  4222     0DB4  00F6               	movwf	clcd_print@str
  4223     0DB5  0A84               	incf	4,f
  4224     0DB6  0800               	movf	0,w
  4225     0DB7  0384               	decf	4,f
  4226     0DB8  00F7               	movwf	clcd_print@str+1
  4227     0DB9  30C2               	movlw	194
  4228     0DBA  00F8               	movwf	clcd_print@addr
  4229     0DBB  160A  118A  267C  120A  158A  	fcall	_clcd_print
  4230     0DC0                     l3914:
  4231                           
  4232                           ;car_black_box.c: 154:         clcd_putch('*', (0x80 + 0));
  4233     0DC0  3080               	movlw	128
  4234     0DC1  1283               	bcf	3,5	;RP0=0, select bank0
  4235     0DC2  1303               	bcf	3,6	;RP1=0, select bank0
  4236     0DC3  00A3               	movwf	clcd_putch@addr
  4237     0DC4  302A               	movlw	42
  4238     0DC5  160A  118A  246D  120A  158A  	fcall	_clcd_putch
  4239     0DCA                     l3916:
  4240                           
  4241                           ;car_black_box.c: 156:     return menu_pos;
  4242     0DCA  1283               	bcf	3,5	;RP0=0, select bank0
  4243     0DCB  1303               	bcf	3,6	;RP1=0, select bank0
  4244     0DCC  0863               	movf	menu_screen@menu_pos,w
  4245     0DCD                     l94:
  4246     0DCD  0008               	return
  4247     0DCE                     __end_of_menu_screen:
  4248                           
  4249                           	psect	text7
  4250     059F                     __ptext7:	
  4251 ;; *************** function _login *****************
  4252 ;; Defined at:
  4253 ;;		line 166 in file "car_black_box.c"
  4254 ;; Parameters:    Size  Location     Type
  4255 ;;  key             1    wreg     unsigned char 
  4256 ;;  reset_flag      1    5[BANK0 ] unsigned char 
  4257 ;; Auto vars:     Size  Location     Type
  4258 ;;  key             1   13[BANK0 ] unsigned char 
  4259 ;;  j               2   14[BANK0 ] int 
  4260 ;;  s_password      4    9[BANK0 ] unsigned char [4]
  4261 ;; Return value:  Size  Location     Type
  4262 ;;                  1    wreg      unsigned char 
  4263 ;; Registers used:
  4264 ;;		wreg, fsr0l, fsr0h, status,2, status,0, btemp+1, pclath, cstack
  4265 ;; Tracked objects:
  4266 ;;		On entry : 0/0
  4267 ;;		On exit  : 0/0
  4268 ;;		Unchanged: 0/0
  4269 ;; Data sizes:     COMMON   BANK0   BANK1   BANK3   BANK2
  4270 ;;      Params:         0       1       0       0       0
  4271 ;;      Locals:         0       7       0       0       0
  4272 ;;      Temps:          0       3       0       0       0
  4273 ;;      Totals:         0      11       0       0       0
  4274 ;;Total ram usage:       11 bytes
  4275 ;; Hardware stack levels used: 1
  4276 ;; Hardware stack levels required when called: 5
  4277 ;; This function calls:
  4278 ;;		___awdiv
  4279 ;;		___awmod
  4280 ;;		_clcd_print
  4281 ;;		_clcd_putch
  4282 ;;		_clcd_write
  4283 ;;		_clear_screen
  4284 ;;		_eeprom_at24c04_read
  4285 ;;		_strncmp
  4286 ;; This function is called by:
  4287 ;;		_main
  4288 ;; This function uses a non-reentrant model
  4289 ;;
  4290                           
  4291     059F                     _login:	
  4292                           ;psect for function _login
  4293                           
  4294                           
  4295                           ;incstack = 0
  4296                           ; Regs used in _login: [wreg-fsr0h+status,2+status,0+btemp+1+pclath+cstack]
  4297                           ;login@key stored from wreg
  4298     059F  1283               	bcf	3,5	;RP0=0, select bank0
  4299     05A0  1303               	bcf	3,6	;RP1=0, select bank0
  4300     05A1  00AD               	movwf	login@key
  4301     05A2                     l3920:
  4302                           
  4303                           ;car_black_box.c: 167:     if(ret_time_edit == 1){
  4304     05A2  0366               	decf	_ret_time_edit,w
  4305     05A3  1D03               	btfss	3,2
  4306     05A4  2DA6               	goto	u3551
  4307     05A5  2DA7               	goto	u3550
  4308     05A6                     u3551:
  4309     05A6  2DAD               	goto	l3926
  4310     05A7                     u3550:
  4311     05A7                     l3922:
  4312                           
  4313                           ;car_black_box.c: 168:         ret_time =0;
  4314     05A7  01E4               	clrf	_ret_time
  4315     05A8                     l3924:
  4316                           
  4317                           ;car_black_box.c: 169:         clear_screen();
  4318     05A8  160A  118A  2424  120A  118A  	fcall	_clear_screen
  4319     05AD                     l3926:
  4320                           
  4321                           ;car_black_box.c: 172:     static char u_password[4];;car_black_box.c: 173:     static u
      +                          nsigned char i;;car_black_box.c: 174:     static unsigned char attempt_left;;car_black_b
      +                          ox.c: 176:     if (reset_flag == 0X03) {
  4322     05AD  3003               	movlw	3
  4323     05AE  1283               	bcf	3,5	;RP0=0, select bank0
  4324     05AF  1303               	bcf	3,6	;RP1=0, select bank0
  4325     05B0  0625               	xorwf	login@reset_flag,w
  4326     05B1  1D03               	btfss	3,2
  4327     05B2  2DB4               	goto	u3561
  4328     05B3  2DB5               	goto	u3560
  4329     05B4                     u3561:
  4330     05B4  2DC4               	goto	l3936
  4331     05B5                     u3560:
  4332     05B5                     l3928:
  4333                           
  4334                           ;car_black_box.c: 178:         i = 0;
  4335     05B5  01E2               	clrf	login@i
  4336                           
  4337                           ;car_black_box.c: 179:         u_password[0] = '\0';
  4338     05B6  1683               	bsf	3,5	;RP0=1, select bank1
  4339     05B7  1303               	bcf	3,6	;RP1=0, select bank1
  4340     05B8  01C4               	clrf	login@u_password^(0+128)
  4341                           
  4342                           ;car_black_box.c: 180:         u_password[1] = '\0';
  4343     05B9  01C5               	clrf	(login@u_password^(0+128)+1)
  4344                           
  4345                           ;car_black_box.c: 181:         u_password[2] = '\0';
  4346     05BA  01C6               	clrf	(login@u_password^(0+128)+2)
  4347                           
  4348                           ;car_black_box.c: 182:         u_password[3] = '\0';
  4349     05BB  01C7               	clrf	(login@u_password^(0+128)+3)
  4350     05BC                     l3930:
  4351                           
  4352                           ;car_black_box.c: 184:         key = 0x3F;
  4353     05BC  303F               	movlw	63
  4354     05BD  1283               	bcf	3,5	;RP0=0, select bank0
  4355     05BE  1303               	bcf	3,6	;RP1=0, select bank0
  4356     05BF  00AD               	movwf	login@key
  4357     05C0                     l3932:
  4358                           
  4359                           ;car_black_box.c: 185:         attempt_left = 3;
  4360     05C0  3003               	movlw	3
  4361     05C1  00E1               	movwf	login@attempt_left
  4362     05C2                     l3934:
  4363                           
  4364                           ;car_black_box.c: 186:         ret_time = 5;
  4365     05C2  3005               	movlw	5
  4366     05C3  00E4               	movwf	_ret_time
  4367     05C4                     l3936:
  4368                           
  4369                           ;car_black_box.c: 188:     if (ret_time == 0) {
  4370     05C4  0864               	movf	_ret_time,w
  4371     05C5  1D03               	btfss	3,2
  4372     05C6  2DC8               	goto	u3571
  4373     05C7  2DC9               	goto	u3570
  4374     05C8                     u3571:
  4375     05C8  2DCC               	goto	l3944
  4376     05C9                     u3570:
  4377     05C9                     l3938:
  4378                           
  4379                           ;car_black_box.c: 189:         ret_time_edit = 0;
  4380     05C9  01E6               	clrf	_ret_time_edit
  4381     05CA                     l3940:
  4382                           
  4383                           ;car_black_box.c: 190:         return 0x02;
  4384     05CA  3002               	movlw	2
  4385     05CB  2F3C               	goto	l109
  4386     05CC                     l3944:
  4387                           
  4388                           ;car_black_box.c: 192:     if (key == 0x37 && i < 4 ) {
  4389     05CC  3037               	movlw	55
  4390     05CD  062D               	xorwf	login@key,w
  4391     05CE  1D03               	btfss	3,2
  4392     05CF  2DD1               	goto	u3581
  4393     05D0  2DD2               	goto	u3580
  4394     05D1                     u3581:
  4395     05D1  2DF0               	goto	l3956
  4396     05D2                     u3580:
  4397     05D2                     l3946:
  4398     05D2  3004               	movlw	4
  4399     05D3  0262               	subwf	login@i,w
  4400     05D4  1803               	skipnc
  4401     05D5  2DD7               	goto	u3591
  4402     05D6  2DD8               	goto	u3590
  4403     05D7                     u3591:
  4404     05D7  2DF0               	goto	l3956
  4405     05D8                     u3590:
  4406     05D8                     l3948:
  4407                           
  4408                           ;car_black_box.c: 193:         u_password[i] = '1';
  4409     05D8  0862               	movf	login@i,w
  4410     05D9  3EC4               	addlw	(low (login@u_password| 0))& (0+255)
  4411     05DA  0084               	movwf	4
  4412     05DB  3031               	movlw	49
  4413     05DC  1383               	bcf	3,7	;select IRP bank1
  4414     05DD  0080               	movwf	0
  4415     05DE                     l3950:
  4416                           
  4417                           ;car_black_box.c: 194:         clcd_putch('*', (0xC0 + 4 + i));
  4418     05DE  0862               	movf	login@i,w
  4419     05DF  3EC4               	addlw	196
  4420     05E0  00A3               	movwf	clcd_putch@addr
  4421     05E1  302A               	movlw	42
  4422     05E2  160A  118A  246D  120A  118A  	fcall	_clcd_putch
  4423     05E7                     l3952:
  4424                           
  4425                           ;car_black_box.c: 195:         i++;
  4426     05E7  3001               	movlw	1
  4427     05E8  00FF               	movwf	btemp+1
  4428     05E9  087F               	movf	btemp+1,w
  4429     05EA  1283               	bcf	3,5	;RP0=0, select bank0
  4430     05EB  1303               	bcf	3,6	;RP1=0, select bank0
  4431     05EC  07E2               	addwf	login@i,f
  4432     05ED                     l3954:
  4433                           
  4434                           ;car_black_box.c: 196:         ret_time = 5;
  4435     05ED  3005               	movlw	5
  4436     05EE  00E4               	movwf	_ret_time
  4437                           
  4438                           ;car_black_box.c: 197:     } else if (key == 0x2F && i < 4 ) {
  4439     05EF  2E0C               	goto	l3968
  4440     05F0                     l3956:
  4441     05F0  302F               	movlw	47
  4442     05F1  062D               	xorwf	login@key,w
  4443     05F2  1D03               	btfss	3,2
  4444     05F3  2DF5               	goto	u3601
  4445     05F4  2DF6               	goto	u3600
  4446     05F5                     u3601:
  4447     05F5  2E0C               	goto	l3968
  4448     05F6                     u3600:
  4449     05F6                     l3958:
  4450     05F6  3004               	movlw	4
  4451     05F7  0262               	subwf	login@i,w
  4452     05F8  1803               	skipnc
  4453     05F9  2DFB               	goto	u3611
  4454     05FA  2DFC               	goto	u3610
  4455     05FB                     u3611:
  4456     05FB  2E0C               	goto	l3968
  4457     05FC                     u3610:
  4458     05FC                     l3960:
  4459                           
  4460                           ;car_black_box.c: 198:         u_password[i] = '0';
  4461     05FC  0862               	movf	login@i,w
  4462     05FD  3EC4               	addlw	(low (login@u_password| 0))& (0+255)
  4463     05FE  0084               	movwf	4
  4464     05FF  3030               	movlw	48
  4465     0600  1383               	bcf	3,7	;select IRP bank1
  4466     0601  0080               	movwf	0
  4467     0602                     l3962:
  4468                           
  4469                           ;car_black_box.c: 199:         clcd_putch('*', (0xC0 + 4 + i));
  4470     0602  0862               	movf	login@i,w
  4471     0603  3EC4               	addlw	196
  4472     0604  00A3               	movwf	clcd_putch@addr
  4473     0605  302A               	movlw	42
  4474     0606  160A  118A  246D  120A  118A  	fcall	_clcd_putch
  4475     060B  2DE7               	goto	l3952
  4476     060C                     l3968:
  4477                           
  4478                           ;car_black_box.c: 204:     if (i == 4) {
  4479     060C  3004               	movlw	4
  4480     060D  0662               	xorwf	login@i,w
  4481     060E  1D03               	btfss	3,2
  4482     060F  2E11               	goto	u3621
  4483     0610  2E12               	goto	u3620
  4484     0611                     u3621:
  4485     0611  2F3C               	goto	l109
  4486     0612                     u3620:
  4487     0612                     l3970:
  4488                           
  4489                           ;car_black_box.c: 205:         clcd_write(0x0C, 0);
  4490     0612  01F2               	clrf	clcd_write@mode
  4491     0613  300C               	movlw	12
  4492     0614  160A  118A  270F  120A  118A  	fcall	_clcd_write
  4493     0619                     l3972:
  4494                           
  4495                           ;car_black_box.c: 206:         unsigned char s_password[4];;car_black_box.c: 207:       
      +                            for (int j = 0; j < 4; j++) {
  4496     0619  1283               	bcf	3,5	;RP0=0, select bank0
  4497     061A  1303               	bcf	3,6	;RP1=0, select bank0
  4498     061B  01AE               	clrf	login@j
  4499     061C  01AF               	clrf	login@j+1
  4500     061D                     l3978:
  4501                           
  4502                           ;car_black_box.c: 208:             s_password[j] = eeprom_at24c04_read(j);
  4503     061D  1283               	bcf	3,5	;RP0=0, select bank0
  4504     061E  1303               	bcf	3,6	;RP1=0, select bank0
  4505     061F  082E               	movf	login@j,w
  4506     0620  3E29               	addlw	(low (login@s_password| 0))& (0+255)
  4507     0621  0084               	movwf	4
  4508     0622  082E               	movf	login@j,w
  4509     0623  160A  118A  25CD  120A  118A  	fcall	_eeprom_at24c04_read
  4510     0628  1383               	bcf	3,7	;select IRP bank0
  4511     0629  0080               	movwf	0
  4512     062A                     l3980:
  4513                           
  4514                           ;car_black_box.c: 209:         }
  4515     062A  3001               	movlw	1
  4516     062B  1283               	bcf	3,5	;RP0=0, select bank0
  4517     062C  1303               	bcf	3,6	;RP1=0, select bank0
  4518     062D  07AE               	addwf	login@j,f
  4519     062E  1803               	skipnc
  4520     062F  0AAF               	incf	login@j+1,f
  4521     0630  3000               	movlw	0
  4522     0631  07AF               	addwf	login@j+1,f
  4523     0632                     l3982:
  4524     0632  082F               	movf	login@j+1,w
  4525     0633  3A80               	xorlw	128
  4526     0634  00FF               	movwf	btemp+1
  4527     0635  3080               	movlw	128
  4528     0636  027F               	subwf	btemp+1,w
  4529     0637  1D03               	skipz
  4530     0638  2E3B               	goto	u3635
  4531     0639  3004               	movlw	4
  4532     063A  022E               	subwf	login@j,w
  4533     063B                     u3635:
  4534     063B  1C03               	skipc
  4535     063C  2E3E               	goto	u3631
  4536     063D  2E3F               	goto	u3630
  4537     063E                     u3631:
  4538     063E  2E1D               	goto	l3978
  4539     063F                     u3630:
  4540     063F                     l3984:
  4541                           
  4542                           ;car_black_box.c: 210:         if (strncmp(u_password, s_password, 4) == 0) {
  4543     063F  3029               	movlw	(low (login@s_password| 0))& (0+255)
  4544     0640  00F2               	movwf	strncmp@r
  4545     0641  3004               	movlw	4
  4546     0642  00F3               	movwf	strncmp@n
  4547     0643  3000               	movlw	0
  4548     0644  00F4               	movwf	strncmp@n+1
  4549     0645  30C4               	movlw	(low (login@u_password| 0))& (0+255)
  4550     0646  120A  158A  21CB  120A  118A  	fcall	_strncmp
  4551     064B  0872               	movf	?_strncmp,w
  4552     064C  0473               	iorwf	?_strncmp+1,w
  4553     064D  1D03               	btfss	3,2
  4554     064E  2E50               	goto	u3641
  4555     064F  2E51               	goto	u3640
  4556     0650                     u3641:
  4557     0650  2E71               	goto	l3998
  4558     0651                     u3640:
  4559     0651                     l3986:
  4560                           
  4561                           ;car_black_box.c: 211:             clear_screen();
  4562     0651  160A  118A  2424  120A  118A  	fcall	_clear_screen
  4563     0656                     l3988:
  4564                           
  4565                           ;car_black_box.c: 212:             clcd_print("LOGIN SUCCESS", (0x80 + 2));
  4566     0656  30C9               	movlw	low (STR_7| (0+32768))
  4567     0657  00F6               	movwf	clcd_print@str
  4568     0658  3088               	movlw	high (STR_7| (0+32768))
  4569     0659  00F7               	movwf	clcd_print@str+1
  4570     065A  3082               	movlw	130
  4571     065B  00F8               	movwf	clcd_print@addr
  4572     065C  160A  118A  267C  120A  118A  	fcall	_clcd_print
  4573     0661                     l3990:
  4574                           
  4575                           ;car_black_box.c: 213:             _delay((unsigned long)((2000)*(20000000/4000.0)));
  4576     0661  3033               	movlw	51
  4577     0662  1283               	bcf	3,5	;RP0=0, select bank0
  4578     0663  1303               	bcf	3,6	;RP1=0, select bank0
  4579     0664  00A8               	movwf	??_login+2
  4580     0665  30BB               	movlw	187
  4581     0666  00A7               	movwf	??_login+1
  4582     0667  30DF               	movlw	223
  4583     0668  00A6               	movwf	??_login
  4584     0669                     u4167:
  4585     0669  0BA6               	decfsz	??_login,f
  4586     066A  2E69               	goto	u4167
  4587     066B  0BA7               	decfsz	??_login+1,f
  4588     066C  2E69               	goto	u4167
  4589     066D  0BA8               	decfsz	??_login+2,f
  4590     066E  2E69               	goto	u4167
  4591     066F                     l3992:
  4592                           
  4593                           ;car_black_box.c: 214:             return 0x01;
  4594     066F  3001               	movlw	1
  4595     0670  2F3C               	goto	l109
  4596     0671                     l3998:
  4597                           
  4598                           ;car_black_box.c: 217:             attempt_left--;
  4599     0671  3001               	movlw	1
  4600     0672  1283               	bcf	3,5	;RP0=0, select bank0
  4601     0673  1303               	bcf	3,6	;RP1=0, select bank0
  4602     0674  02E1               	subwf	login@attempt_left,f
  4603     0675                     l4000:
  4604                           
  4605                           ;car_black_box.c: 218:             clear_screen();
  4606     0675  160A  118A  2424  120A  118A  	fcall	_clear_screen
  4607     067A                     l4002:
  4608                           
  4609                           ;car_black_box.c: 220:             if (attempt_left != 0) {
  4610     067A  1283               	bcf	3,5	;RP0=0, select bank0
  4611     067B  1303               	bcf	3,6	;RP1=0, select bank0
  4612     067C  0861               	movf	login@attempt_left,w
  4613     067D  1903               	btfsc	3,2
  4614     067E  2E80               	goto	u3651
  4615     067F  2E81               	goto	u3650
  4616     0680                     u3651:
  4617     0680  2EB1               	goto	l4012
  4618     0681                     u3650:
  4619     0681                     l4004:
  4620                           
  4621                           ;car_black_box.c: 221:                 clcd_print("Wrong passwrod", (0x80 + 0));
  4622     0681  30AB               	movlw	low (STR_8| (0+32768))
  4623     0682  00F6               	movwf	clcd_print@str
  4624     0683  3088               	movlw	high (STR_8| (0+32768))
  4625     0684  00F7               	movwf	clcd_print@str+1
  4626     0685  3080               	movlw	128
  4627     0686  00F8               	movwf	clcd_print@addr
  4628     0687  160A  118A  267C  120A  118A  	fcall	_clcd_print
  4629     068C                     l4006:
  4630                           
  4631                           ;car_black_box.c: 222:                 clcd_putch((attempt_left + '0'), (0xC0 + 0));
  4632     068C  30C0               	movlw	192
  4633     068D  1283               	bcf	3,5	;RP0=0, select bank0
  4634     068E  1303               	bcf	3,6	;RP1=0, select bank0
  4635     068F  00A3               	movwf	clcd_putch@addr
  4636     0690  0861               	movf	login@attempt_left,w
  4637     0691  3E30               	addlw	48
  4638     0692  160A  118A  246D  120A  118A  	fcall	_clcd_putch
  4639     0697                     l4008:
  4640                           
  4641                           ;car_black_box.c: 223:                 clcd_print("attempts left", (0xC0 + 2));
  4642     0697  30E5               	movlw	low (STR_9| (0+32768))
  4643     0698  00F6               	movwf	clcd_print@str
  4644     0699  3088               	movlw	high (STR_9| (0+32768))
  4645     069A  00F7               	movwf	clcd_print@str+1
  4646     069B  30C2               	movlw	194
  4647     069C  00F8               	movwf	clcd_print@addr
  4648     069D  160A  118A  267C  120A  118A  	fcall	_clcd_print
  4649     06A2                     l4010:
  4650                           
  4651                           ;car_black_box.c: 224:                 _delay((unsigned long)((3000)*(20000000/4000.0)))
      +                          ;
  4652     06A2  304D               	movlw	77
  4653     06A3  1283               	bcf	3,5	;RP0=0, select bank0
  4654     06A4  1303               	bcf	3,6	;RP1=0, select bank0
  4655     06A5  00A8               	movwf	??_login+2
  4656     06A6  3019               	movlw	25
  4657     06A7  00A7               	movwf	??_login+1
  4658     06A8  304F               	movlw	79
  4659     06A9  00A6               	movwf	??_login
  4660     06AA                     u4177:
  4661     06AA  0BA6               	decfsz	??_login,f
  4662     06AB  2EAA               	goto	u4177
  4663     06AC  0BA7               	decfsz	??_login+1,f
  4664     06AD  2EAA               	goto	u4177
  4665     06AE  0BA8               	decfsz	??_login+2,f
  4666     06AF  2EAA               	goto	u4177
  4667                           
  4668                           ;car_black_box.c: 226:             } else if (attempt_left == 0) {
  4669     06B0  2F19               	goto	l4024
  4670     06B1                     l4012:
  4671     06B1  0861               	movf	login@attempt_left,w
  4672     06B2  1D03               	btfss	3,2
  4673     06B3  2EB5               	goto	u3661
  4674     06B4  2EB6               	goto	u3660
  4675     06B5                     u3661:
  4676     06B5  2F19               	goto	l4024
  4677     06B6                     u3660:
  4678     06B6                     l4014:
  4679                           
  4680                           ;car_black_box.c: 227:                 clcd_print("You are blocked", (0x80 + 0));
  4681     06B6  309B               	movlw	low (STR_10| (0+32768))
  4682     06B7  00F6               	movwf	clcd_print@str
  4683     06B8  3088               	movlw	high (STR_10| (0+32768))
  4684     06B9  00F7               	movwf	clcd_print@str+1
  4685     06BA  3080               	movlw	128
  4686     06BB  00F8               	movwf	clcd_print@addr
  4687     06BC  160A  118A  267C  120A  118A  	fcall	_clcd_print
  4688                           
  4689                           ;car_black_box.c: 228:                 clcd_print("wait for", (0xC0 + 0));
  4690     06C1  3043               	movlw	low (STR_11| (0+32768))
  4691     06C2  00F6               	movwf	clcd_print@str
  4692     06C3  3089               	movlw	high (STR_11| (0+32768))
  4693     06C4  00F7               	movwf	clcd_print@str+1
  4694     06C5  30C0               	movlw	192
  4695     06C6  00F8               	movwf	clcd_print@addr
  4696     06C7  160A  118A  267C  120A  118A  	fcall	_clcd_print
  4697                           
  4698                           ;car_black_box.c: 229:                 clcd_print("secs", (0xC0 + 12));
  4699     06CC  3058               	movlw	low (STR_12| (0+32768))
  4700     06CD  00F6               	movwf	clcd_print@str
  4701     06CE  3089               	movlw	high (STR_12| (0+32768))
  4702     06CF  00F7               	movwf	clcd_print@str+1
  4703     06D0  30CC               	movlw	204
  4704     06D1  00F8               	movwf	clcd_print@addr
  4705     06D2  160A  118A  267C  120A  118A  	fcall	_clcd_print
  4706     06D7                     l4016:
  4707                           
  4708                           ;car_black_box.c: 231:                 sec = 60;
  4709     06D7  303C               	movlw	60
  4710     06D8  1283               	bcf	3,5	;RP0=0, select bank0
  4711     06D9  1303               	bcf	3,6	;RP1=0, select bank0
  4712     06DA  00E5               	movwf	_sec
  4713                           
  4714                           ;car_black_box.c: 232:                 while (sec) {
  4715     06DB  2F10               	goto	l4020
  4716     06DC                     l4018:
  4717                           
  4718                           ;car_black_box.c: 233:                     clcd_putch(sec / 10 + '0', (0xC0 + 9));
  4719     06DC  30C9               	movlw	201
  4720     06DD  00A3               	movwf	clcd_putch@addr
  4721     06DE  300A               	movlw	10
  4722     06DF  00F2               	movwf	___awdiv@divisor
  4723     06E0  3000               	movlw	0
  4724     06E1  00F3               	movwf	___awdiv@divisor+1
  4725     06E2  0865               	movf	_sec,w
  4726     06E3  00A6               	movwf	??_login
  4727     06E4  01A7               	clrf	??_login+1
  4728     06E5  0826               	movf	??_login,w
  4729     06E6  00F4               	movwf	___awdiv@dividend
  4730     06E7  0827               	movf	??_login+1,w
  4731     06E8  00F5               	movwf	___awdiv@dividend+1
  4732     06E9  120A  158A  23DB  120A  118A  	fcall	___awdiv
  4733     06EE  0872               	movf	?___awdiv,w
  4734     06EF  3E30               	addlw	48
  4735     06F0  160A  118A  246D  120A  118A  	fcall	_clcd_putch
  4736                           
  4737                           ;car_black_box.c: 234:                     clcd_putch(sec % 10 + '0', (0xC0 + 10));
  4738     06F5  30CA               	movlw	202
  4739     06F6  1283               	bcf	3,5	;RP0=0, select bank0
  4740     06F7  1303               	bcf	3,6	;RP1=0, select bank0
  4741     06F8  00A3               	movwf	clcd_putch@addr
  4742     06F9  300A               	movlw	10
  4743     06FA  00F2               	movwf	___awmod@divisor
  4744     06FB  3000               	movlw	0
  4745     06FC  00F3               	movwf	___awmod@divisor+1
  4746     06FD  0865               	movf	_sec,w
  4747     06FE  00A6               	movwf	??_login
  4748     06FF  01A7               	clrf	??_login+1
  4749     0700  0826               	movf	??_login,w
  4750     0701  00F4               	movwf	___awmod@dividend
  4751     0702  0827               	movf	??_login+1,w
  4752     0703  00F5               	movwf	___awmod@dividend+1
  4753     0704  120A  158A  231F  120A  118A  	fcall	___awmod
  4754     0709  0872               	movf	?___awmod,w
  4755     070A  3E30               	addlw	48
  4756     070B  160A  118A  246D  120A  118A  	fcall	_clcd_putch
  4757     0710                     l4020:
  4758                           
  4759                           ;car_black_box.c: 232:                 while (sec) {
  4760     0710  1283               	bcf	3,5	;RP0=0, select bank0
  4761     0711  1303               	bcf	3,6	;RP1=0, select bank0
  4762     0712  0865               	movf	_sec,w
  4763     0713  1D03               	btfss	3,2
  4764     0714  2F16               	goto	u3671
  4765     0715  2F17               	goto	u3670
  4766     0716                     u3671:
  4767     0716  2EDC               	goto	l4018
  4768     0717                     u3670:
  4769     0717                     l4022:
  4770                           
  4771                           ;car_black_box.c: 238:                 attempt_left = 3;
  4772     0717  3003               	movlw	3
  4773     0718  00E1               	movwf	login@attempt_left
  4774     0719                     l4024:
  4775                           
  4776                           ;car_black_box.c: 242:             clear_screen();
  4777     0719  160A  118A  2424  120A  118A  	fcall	_clear_screen
  4778     071E                     l4026:
  4779                           
  4780                           ;car_black_box.c: 243:             clcd_print("Enter Password", (0x80 + 0));
  4781     071E  30BA               	movlw	low (STR_13| (0+32768))
  4782     071F  00F6               	movwf	clcd_print@str
  4783     0720  3088               	movlw	high (STR_13| (0+32768))
  4784     0721  00F7               	movwf	clcd_print@str+1
  4785     0722  3080               	movlw	128
  4786     0723  00F8               	movwf	clcd_print@addr
  4787     0724  160A  118A  267C  120A  118A  	fcall	_clcd_print
  4788     0729                     l4028:
  4789                           
  4790                           ;car_black_box.c: 244:             clcd_write((0xC0 + 4), 0);
  4791     0729  01F2               	clrf	clcd_write@mode
  4792     072A  30C4               	movlw	196
  4793     072B  160A  118A  270F  120A  118A  	fcall	_clcd_write
  4794     0730                     l4030:
  4795                           
  4796                           ;car_black_box.c: 245:             clcd_write(0x0F, 0);
  4797     0730  01F2               	clrf	clcd_write@mode
  4798     0731  300F               	movlw	15
  4799     0732  160A  118A  270F  120A  118A  	fcall	_clcd_write
  4800     0737                     l4032:
  4801                           
  4802                           ;car_black_box.c: 246:             i = 0;
  4803     0737  1283               	bcf	3,5	;RP0=0, select bank0
  4804     0738  1303               	bcf	3,6	;RP1=0, select bank0
  4805     0739  01E2               	clrf	login@i
  4806     073A                     l4034:
  4807                           
  4808                           ;car_black_box.c: 247:             ret_time = 5;
  4809     073A  3005               	movlw	5
  4810     073B  00E4               	movwf	_ret_time
  4811     073C                     l109:
  4812     073C  0008               	return
  4813     073D                     __end_of_login:
  4814                           
  4815                           	psect	text8
  4816     09CB                     __ptext8:	
  4817 ;; *************** function _strncmp *****************
  4818 ;; Defined at:
  4819 ;;		line 3 in file "C:\Program Files\Microchip\xc8\v2.46\pic\sources\c99\common\strncmp.c"
  4820 ;; Parameters:    Size  Location     Type
  4821 ;;  l               1    wreg     PTR const unsigned char 
  4822 ;;		 -> login@u_password(4), 
  4823 ;;  r               1    2[COMMON] PTR const unsigned char 
  4824 ;;		 -> login@s_password(4), 
  4825 ;;  n               2    3[COMMON] unsigned int 
  4826 ;; Auto vars:     Size  Location     Type
  4827 ;;  l               1    7[COMMON] PTR const unsigned char 
  4828 ;;		 -> login@u_password(4), 
  4829 ;; Return value:  Size  Location     Type
  4830 ;;                  2    2[COMMON] int 
  4831 ;; Registers used:
  4832 ;;		wreg, fsr0l, fsr0h, status,2, status,0, btemp+1
  4833 ;; Tracked objects:
  4834 ;;		On entry : 0/0
  4835 ;;		On exit  : 0/0
  4836 ;;		Unchanged: 0/0
  4837 ;; Data sizes:     COMMON   BANK0   BANK1   BANK3   BANK2
  4838 ;;      Params:         3       0       0       0       0
  4839 ;;      Locals:         1       0       0       0       0
  4840 ;;      Temps:          2       0       0       0       0
  4841 ;;      Totals:         6       0       0       0       0
  4842 ;;Total ram usage:        6 bytes
  4843 ;; Hardware stack levels used: 1
  4844 ;; Hardware stack levels required when called: 1
  4845 ;; This function calls:
  4846 ;;		Nothing
  4847 ;; This function is called by:
  4848 ;;		_login
  4849 ;; This function uses a non-reentrant model
  4850 ;;
  4851                           
  4852     09CB                     _strncmp:	
  4853                           ;psect for function _strncmp
  4854                           
  4855                           
  4856                           ;incstack = 0
  4857                           ; Regs used in _strncmp: [wreg-fsr0h+status,2+status,0+btemp+1]
  4858                           ;strncmp@l stored from wreg
  4859     09CB  00F7               	movwf	strncmp@l
  4860     09CC                     l2534:
  4861     09CC  3001               	movlw	1
  4862     09CD  02F3               	subwf	strncmp@n,f
  4863     09CE  3000               	movlw	0
  4864     09CF  1C03               	skipc
  4865     09D0  03F4               	decf	strncmp@n+1,f
  4866     09D1  02F4               	subwf	strncmp@n+1,f
  4867     09D2  0A73               	incf	strncmp@n,w
  4868     09D3  1D03               	skipz
  4869     09D4  29D9               	goto	u1781
  4870     09D5  0A74               	incf	strncmp@n+1,w
  4871     09D6  1D03               	btfss	3,2
  4872     09D7  29D9               	goto	u1781
  4873     09D8  29DA               	goto	u1780
  4874     09D9                     u1781:
  4875     09D9  29EB               	goto	l2544
  4876     09DA                     u1780:
  4877     09DA                     l2536:
  4878     09DA  01F2               	clrf	?_strncmp
  4879     09DB  01F3               	clrf	?_strncmp+1
  4880     09DC  2A1A               	goto	l1093
  4881     09DD                     l2540:
  4882     09DD  3001               	movlw	1
  4883     09DE  00FF               	movwf	btemp+1
  4884     09DF  087F               	movf	btemp+1,w
  4885     09E0  07F7               	addwf	strncmp@l,f
  4886     09E1  3001               	movlw	1
  4887     09E2  00FF               	movwf	btemp+1
  4888     09E3  087F               	movf	btemp+1,w
  4889     09E4  07F2               	addwf	strncmp@r,f
  4890     09E5                     l2542:
  4891     09E5  3001               	movlw	1
  4892     09E6  02F3               	subwf	strncmp@n,f
  4893     09E7  3000               	movlw	0
  4894     09E8  1C03               	skipc
  4895     09E9  03F4               	decf	strncmp@n+1,f
  4896     09EA  02F4               	subwf	strncmp@n+1,f
  4897     09EB                     l2544:
  4898     09EB  0877               	movf	strncmp@l,w
  4899     09EC  0084               	movwf	4
  4900     09ED  1383               	bcf	3,7	;select IRP bank0
  4901     09EE  0800               	movf	0,w
  4902     09EF  1903               	btfsc	3,2
  4903     09F0  29F2               	goto	u1791
  4904     09F1  29F3               	goto	u1790
  4905     09F2                     u1791:
  4906     09F2  2A0C               	goto	l2552
  4907     09F3                     u1790:
  4908     09F3                     l2546:
  4909     09F3  0872               	movf	strncmp@r,w
  4910     09F4  0084               	movwf	4
  4911     09F5  0800               	movf	0,w
  4912     09F6  1903               	btfsc	3,2
  4913     09F7  29F9               	goto	u1801
  4914     09F8  29FA               	goto	u1800
  4915     09F9                     u1801:
  4916     09F9  2A0C               	goto	l2552
  4917     09FA                     u1800:
  4918     09FA                     l2548:
  4919     09FA  0873               	movf	strncmp@n,w
  4920     09FB  0474               	iorwf	strncmp@n+1,w
  4921     09FC  1903               	btfsc	3,2
  4922     09FD  29FF               	goto	u1811
  4923     09FE  2A00               	goto	u1810
  4924     09FF                     u1811:
  4925     09FF  2A0C               	goto	l2552
  4926     0A00                     u1810:
  4927     0A00                     l2550:
  4928     0A00  0872               	movf	strncmp@r,w
  4929     0A01  0084               	movwf	4
  4930     0A02  0800               	movf	0,w
  4931     0A03  00F5               	movwf	??_strncmp
  4932     0A04  0877               	movf	strncmp@l,w
  4933     0A05  0084               	movwf	4
  4934     0A06  0800               	movf	0,w
  4935     0A07  0675               	xorwf	??_strncmp,w
  4936     0A08  1903               	skipnz
  4937     0A09  2A0B               	goto	u1821
  4938     0A0A  2A0C               	goto	u1820
  4939     0A0B                     u1821:
  4940     0A0B  29DD               	goto	l2540
  4941     0A0C                     u1820:
  4942     0A0C                     l2552:
  4943     0A0C  0872               	movf	strncmp@r,w
  4944     0A0D  0084               	movwf	4
  4945     0A0E  0800               	movf	0,w
  4946     0A0F  00F5               	movwf	??_strncmp
  4947     0A10  0877               	movf	strncmp@l,w
  4948     0A11  0084               	movwf	4
  4949     0A12  0800               	movf	0,w
  4950     0A13  00F6               	movwf	??_strncmp+1
  4951     0A14  0875               	movf	??_strncmp,w
  4952     0A15  0276               	subwf	??_strncmp+1,w
  4953     0A16  00F2               	movwf	?_strncmp
  4954     0A17  01F3               	clrf	?_strncmp+1
  4955     0A18  1C03               	skipc
  4956     0A19  03F3               	decf	?_strncmp+1,f
  4957     0A1A                     l1093:
  4958     0A1A  0008               	return
  4959     0A1B                     __end_of_strncmp:
  4960                           
  4961                           	psect	text9
  4962     0AC8                     __ptext9:	
  4963 ;; *************** function _log_car_event *****************
  4964 ;; Defined at:
  4965 ;;		line 120 in file "car_black_box.c"
  4966 ;; Parameters:    Size  Location     Type
  4967 ;;  event           1    wreg     PTR unsigned char 
  4968 ;;		 -> main@event(3), 
  4969 ;;  speed           1    0[BANK0 ] unsigned char 
  4970 ;; Auto vars:     Size  Location     Type
  4971 ;;  event           1    3[BANK0 ] PTR unsigned char 
  4972 ;;		 -> main@event(3), 
  4973 ;; Return value:  Size  Location     Type
  4974 ;;                  1    wreg      void 
  4975 ;; Registers used:
  4976 ;;		wreg, fsr0l, fsr0h, status,2, status,0, btemp+1, pclath, cstack
  4977 ;; Tracked objects:
  4978 ;;		On entry : 0/0
  4979 ;;		On exit  : 0/0
  4980 ;;		Unchanged: 0/0
  4981 ;; Data sizes:     COMMON   BANK0   BANK1   BANK3   BANK2
  4982 ;;      Params:         0       1       0       0       0
  4983 ;;      Locals:         0       1       0       0       0
  4984 ;;      Temps:          0       2       0       0       0
  4985 ;;      Totals:         0       4       0       0       0
  4986 ;;Total ram usage:        4 bytes
  4987 ;; Hardware stack levels used: 1
  4988 ;; Hardware stack levels required when called: 6
  4989 ;; This function calls:
  4990 ;;		___awdiv
  4991 ;;		___awmod
  4992 ;;		_get_time
  4993 ;;		_log_event
  4994 ;;		_strncpy
  4995 ;; This function is called by:
  4996 ;;		_main
  4997 ;; This function uses a non-reentrant model
  4998 ;;
  4999                           
  5000     0AC8                     _log_car_event:	
  5001                           ;psect for function _log_car_event
  5002                           
  5003                           
  5004                           ;incstack = 0
  5005                           ; Regs used in _log_car_event: [wreg-fsr0h+status,2+status,0+btemp+1+pclath+cstack]
  5006                           ;log_car_event@event stored from wreg
  5007     0AC8  1283               	bcf	3,5	;RP0=0, select bank0
  5008     0AC9  1303               	bcf	3,6	;RP1=0, select bank0
  5009     0ACA  00A3               	movwf	log_car_event@event
  5010     0ACB                     l3872:
  5011                           
  5012                           ;car_black_box.c: 121:     get_time();
  5013     0ACB  120A  158A  217E  120A  158A  	fcall	_get_time
  5014     0AD0                     l3874:
  5015                           
  5016                           ;car_black_box.c: 122:     strncpy(log, time, 6);
  5017     0AD0  3067               	movlw	(low (_time| 0))& (0+255)
  5018     0AD1  00F2               	movwf	strncpy@s
  5019     0AD2  3006               	movlw	6
  5020     0AD3  00F3               	movwf	strncpy@n
  5021     0AD4  3000               	movlw	0
  5022     0AD5  00F4               	movwf	strncpy@n+1
  5023     0AD6  30B9               	movlw	(low (_log| 0))& (0+255)
  5024     0AD7  160A  118A  277F  120A  158A  	fcall	_strncpy
  5025     0ADC                     l3876:
  5026                           
  5027                           ;car_black_box.c: 123:     strncpy(log + 6, event, 2);
  5028     0ADC  1283               	bcf	3,5	;RP0=0, select bank0
  5029     0ADD  1303               	bcf	3,6	;RP1=0, select bank0
  5030     0ADE  0823               	movf	log_car_event@event,w
  5031     0ADF  00F2               	movwf	strncpy@s
  5032     0AE0  3002               	movlw	2
  5033     0AE1  00F3               	movwf	strncpy@n
  5034     0AE2  3000               	movlw	0
  5035     0AE3  00F4               	movwf	strncpy@n+1
  5036     0AE4  30BF               	movlw	(low ((_log| 0+6)))& (0+255)
  5037     0AE5  160A  118A  277F  120A  158A  	fcall	_strncpy
  5038     0AEA                     l3878:
  5039                           
  5040                           ;car_black_box.c: 124:     log[8] = speed / 10 + '0';
  5041     0AEA  300A               	movlw	10
  5042     0AEB  00F2               	movwf	___awdiv@divisor
  5043     0AEC  3000               	movlw	0
  5044     0AED  00F3               	movwf	___awdiv@divisor+1
  5045     0AEE  1283               	bcf	3,5	;RP0=0, select bank0
  5046     0AEF  1303               	bcf	3,6	;RP1=0, select bank0
  5047     0AF0  0820               	movf	log_car_event@speed,w
  5048     0AF1  00A1               	movwf	??_log_car_event
  5049     0AF2  01A2               	clrf	??_log_car_event+1
  5050     0AF3  0821               	movf	??_log_car_event,w
  5051     0AF4  00F4               	movwf	___awdiv@dividend
  5052     0AF5  0822               	movf	??_log_car_event+1,w
  5053     0AF6  00F5               	movwf	___awdiv@dividend+1
  5054     0AF7  120A  158A  23DB  120A  158A  	fcall	___awdiv
  5055     0AFC  0872               	movf	?___awdiv,w
  5056     0AFD  3E30               	addlw	48
  5057     0AFE  1683               	bsf	3,5	;RP0=1, select bank1
  5058     0AFF  1303               	bcf	3,6	;RP1=0, select bank1
  5059     0B00  00C1               	movwf	(_log^(0+128)+8)
  5060     0B01                     l3880:
  5061                           
  5062                           ;car_black_box.c: 125:     log[9] = speed % 10 + '0';
  5063     0B01  300A               	movlw	10
  5064     0B02  00F2               	movwf	___awmod@divisor
  5065     0B03  3000               	movlw	0
  5066     0B04  00F3               	movwf	___awmod@divisor+1
  5067     0B05  1283               	bcf	3,5	;RP0=0, select bank0
  5068     0B06  1303               	bcf	3,6	;RP1=0, select bank0
  5069     0B07  0820               	movf	log_car_event@speed,w
  5070     0B08  00A1               	movwf	??_log_car_event
  5071     0B09  01A2               	clrf	??_log_car_event+1
  5072     0B0A  0821               	movf	??_log_car_event,w
  5073     0B0B  00F4               	movwf	___awmod@dividend
  5074     0B0C  0822               	movf	??_log_car_event+1,w
  5075     0B0D  00F5               	movwf	___awmod@dividend+1
  5076     0B0E  120A  158A  231F  120A  158A  	fcall	___awmod
  5077     0B13  0872               	movf	?___awmod,w
  5078     0B14  3E30               	addlw	48
  5079     0B15  1683               	bsf	3,5	;RP0=1, select bank1
  5080     0B16  1303               	bcf	3,6	;RP1=0, select bank1
  5081     0B17  00C2               	movwf	(_log^(0+128)+9)
  5082     0B18                     l3882:
  5083                           
  5084                           ;car_black_box.c: 126:     log[10] = '\0';
  5085     0B18  01C3               	clrf	(_log^(0+128)+10)
  5086     0B19                     l3884:
  5087                           
  5088                           ;car_black_box.c: 127:     log_event();
  5089     0B19  160A  118A  2623  120A  158A  	fcall	_log_event
  5090     0B1E                     l83:
  5091     0B1E  0008               	return
  5092     0B1F                     __end_of_log_car_event:
  5093                           
  5094                           	psect	text10
  5095     177F                     __ptext10:	
  5096 ;; *************** function _strncpy *****************
  5097 ;; Defined at:
  5098 ;;		line 3 in file "C:\Program Files\Microchip\xc8\v2.46\pic\sources\c99\common\strncpy.c"
  5099 ;; Parameters:    Size  Location     Type
  5100 ;;  d               1    wreg     PTR unsigned char 
  5101 ;;		 -> log(11), 
  5102 ;;  s               1    2[COMMON] PTR const unsigned char 
  5103 ;;		 -> main@event(3), time(7), 
  5104 ;;  n               2    3[COMMON] unsigned int 
  5105 ;; Auto vars:     Size  Location     Type
  5106 ;;  d               1    5[COMMON] PTR unsigned char 
  5107 ;;		 -> log(11), 
  5108 ;;  cp              1    6[COMMON] PTR unsigned char 
  5109 ;;		 -> log(11), 
  5110 ;; Return value:  Size  Location     Type
  5111 ;;                  1    wreg      PTR unsigned char 
  5112 ;; Registers used:
  5113 ;;		wreg, fsr0l, fsr0h, status,2, status,0, btemp+1
  5114 ;; Tracked objects:
  5115 ;;		On entry : 0/0
  5116 ;;		On exit  : 0/0
  5117 ;;		Unchanged: 0/0
  5118 ;; Data sizes:     COMMON   BANK0   BANK1   BANK3   BANK2
  5119 ;;      Params:         3       0       0       0       0
  5120 ;;      Locals:         2       0       0       0       0
  5121 ;;      Temps:          0       0       0       0       0
  5122 ;;      Totals:         5       0       0       0       0
  5123 ;;Total ram usage:        5 bytes
  5124 ;; Hardware stack levels used: 1
  5125 ;; Hardware stack levels required when called: 1
  5126 ;; This function calls:
  5127 ;;		Nothing
  5128 ;; This function is called by:
  5129 ;;		_log_car_event
  5130 ;; This function uses a non-reentrant model
  5131 ;;
  5132                           
  5133     177F                     _strncpy:	
  5134                           ;psect for function _strncpy
  5135                           
  5136                           
  5137                           ;incstack = 0
  5138                           ; Regs used in _strncpy: [wreg-fsr0h+status,2+status,0+btemp+1]
  5139                           ;strncpy@d stored from wreg
  5140     177F  00F5               	movwf	strncpy@d
  5141     1780                     l3714:
  5142     1780  0875               	movf	strncpy@d,w
  5143     1781  00F6               	movwf	strncpy@cp
  5144     1782  2F9C               	goto	l3722
  5145     1783                     l3716:
  5146     1783  3001               	movlw	1
  5147     1784  02F3               	subwf	strncpy@n,f
  5148     1785  3000               	movlw	0
  5149     1786  1C03               	skipc
  5150     1787  03F4               	decf	strncpy@n+1,f
  5151     1788  02F4               	subwf	strncpy@n+1,f
  5152     1789                     l3718:
  5153     1789  0872               	movf	strncpy@s,w
  5154     178A  0084               	movwf	4
  5155     178B  3001               	movlw	1
  5156     178C  07F2               	addwf	strncpy@s,f
  5157     178D  1383               	bcf	3,7	;select IRP bank0
  5158     178E  0800               	movf	0,w
  5159     178F  00FF               	movwf	btemp+1
  5160     1790  0876               	movf	strncpy@cp,w
  5161     1791  0084               	movwf	4
  5162     1792  3001               	movlw	1
  5163     1793  07F6               	addwf	strncpy@cp,f
  5164     1794  087F               	movf	btemp+1,w
  5165     1795  0080               	movwf	0
  5166     1796  0800               	movf	0,w
  5167     1797  1D03               	btfss	3,2
  5168     1798  2F9A               	goto	u3261
  5169     1799  2F9B               	goto	u3260
  5170     179A                     u3261:
  5171     179A  2F9C               	goto	l3722
  5172     179B                     u3260:
  5173     179B  2FAB               	goto	l3728
  5174     179C                     l3722:
  5175     179C  0873               	movf	strncpy@n,w
  5176     179D  0474               	iorwf	strncpy@n+1,w
  5177     179E  1D03               	btfss	3,2
  5178     179F  2FA1               	goto	u3271
  5179     17A0  2FA2               	goto	u3270
  5180     17A1                     u3271:
  5181     17A1  2F83               	goto	l3716
  5182     17A2                     u3270:
  5183     17A2  2FAB               	goto	l3728
  5184     17A3                     l3724:
  5185     17A3  0876               	movf	strncpy@cp,w
  5186     17A4  0084               	movwf	4
  5187     17A5  1383               	bcf	3,7	;select IRP bank0
  5188     17A6  0180               	clrf	0
  5189     17A7                     l3726:
  5190     17A7  3001               	movlw	1
  5191     17A8  00FF               	movwf	btemp+1
  5192     17A9  087F               	movf	btemp+1,w
  5193     17AA  07F6               	addwf	strncpy@cp,f
  5194     17AB                     l3728:
  5195     17AB  3001               	movlw	1
  5196     17AC  02F3               	subwf	strncpy@n,f
  5197     17AD  3000               	movlw	0
  5198     17AE  1C03               	skipc
  5199     17AF  03F4               	decf	strncpy@n+1,f
  5200     17B0  02F4               	subwf	strncpy@n+1,f
  5201     17B1  0A73               	incf	strncpy@n,w
  5202     17B2  1D03               	skipz
  5203     17B3  2FB8               	goto	u3281
  5204     17B4  0A74               	incf	strncpy@n+1,w
  5205     17B5  1D03               	btfss	3,2
  5206     17B6  2FB8               	goto	u3281
  5207     17B7  2FB9               	goto	u3280
  5208     17B8                     u3281:
  5209     17B8  2FA3               	goto	l3724
  5210     17B9                     u3280:
  5211     17B9                     l1108:
  5212     17B9  0008               	return
  5213     17BA                     __end_of_strncpy:
  5214                           
  5215                           	psect	text11
  5216     1623                     __ptext11:	
  5217 ;; *************** function _log_event *****************
  5218 ;; Defined at:
  5219 ;;		line 107 in file "car_black_box.c"
  5220 ;; Parameters:    Size  Location     Type
  5221 ;;		None
  5222 ;; Auto vars:     Size  Location     Type
  5223 ;;  addr            1    8[COMMON] unsigned char 
  5224 ;; Return value:  Size  Location     Type
  5225 ;;                  1    wreg      void 
  5226 ;; Registers used:
  5227 ;;		wreg, fsr0l, fsr0h, status,2, status,0, btemp+1, pclath, cstack
  5228 ;; Tracked objects:
  5229 ;;		On entry : 0/0
  5230 ;;		On exit  : 0/0
  5231 ;;		Unchanged: 0/0
  5232 ;; Data sizes:     COMMON   BANK0   BANK1   BANK3   BANK2
  5233 ;;      Params:         0       0       0       0       0
  5234 ;;      Locals:         1       0       0       0       0
  5235 ;;      Temps:          0       0       0       0       0
  5236 ;;      Totals:         1       0       0       0       0
  5237 ;;Total ram usage:        1 bytes
  5238 ;; Hardware stack levels used: 1
  5239 ;; Hardware stack levels required when called: 5
  5240 ;; This function calls:
  5241 ;;		___bmul
  5242 ;;		_eeprom_at24c04_str_write
  5243 ;; This function is called by:
  5244 ;;		_log_car_event
  5245 ;; This function uses a non-reentrant model
  5246 ;;
  5247                           
  5248     1623                     _log_event:	
  5249                           ;psect for function _log_event
  5250                           
  5251     1623                     l3702:	
  5252                           ;incstack = 0
  5253                           ; Regs used in _log_event: [wreg-fsr0h+status,2+status,0+btemp+1+pclath+cstack]
  5254                           
  5255                           
  5256                           ;car_black_box.c: 108:     char addr = 0x05;
  5257     1623  3005               	movlw	5
  5258     1624  00F8               	movwf	log_event@addr
  5259                           
  5260                           ;car_black_box.c: 109:     pos++;
  5261     1625  3001               	movlw	1
  5262     1626  07FA               	addwf	_pos,f
  5263     1627  1803               	skipnc
  5264     1628  0AFB               	incf	_pos+1,f
  5265     1629  3000               	movlw	0
  5266     162A  07FB               	addwf	_pos+1,f
  5267     162B                     l3704:
  5268                           
  5269                           ;car_black_box.c: 110:     if (pos == 10) {
  5270     162B  300A               	movlw	10
  5271     162C  067A               	xorwf	_pos,w
  5272     162D  047B               	iorwf	_pos+1,w
  5273     162E  1D03               	btfss	3,2
  5274     162F  2E31               	goto	u3251
  5275     1630  2E32               	goto	u3250
  5276     1631                     u3251:
  5277     1631  2E3A               	goto	l3710
  5278     1632                     u3250:
  5279     1632                     l3706:
  5280                           
  5281                           ;car_black_box.c: 111:         pos = 0;
  5282     1632  01FA               	clrf	_pos
  5283     1633  01FB               	clrf	_pos+1
  5284     1634                     l3708:
  5285                           
  5286                           ;car_black_box.c: 112:         roll_over_flag = 1;
  5287     1634  3001               	movlw	1
  5288     1635  1283               	bcf	3,5	;RP0=0, select bank0
  5289     1636  1303               	bcf	3,6	;RP1=0, select bank0
  5290     1637  00DC               	movwf	_roll_over_flag
  5291     1638  3000               	movlw	0
  5292     1639  00DD               	movwf	_roll_over_flag+1
  5293     163A                     l3710:
  5294                           
  5295                           ;car_black_box.c: 114:     addr = pos * 10 + addr;
  5296     163A  300A               	movlw	10
  5297     163B  00F2               	movwf	___bmul@multiplicand
  5298     163C  087A               	movf	_pos,w
  5299     163D  160A  118A  2482  160A  118A  	fcall	___bmul
  5300     1642  0778               	addwf	log_event@addr,w
  5301     1643  00F8               	movwf	log_event@addr
  5302     1644                     l3712:
  5303                           
  5304                           ;car_black_box.c: 115:     eeprom_at24c04_str_write(addr, log);
  5305     1644  30B9               	movlw	(low (_log| 0))& (0+255)
  5306     1645  00F5               	movwf	eeprom_at24c04_str_write@data
  5307     1646  3000               	movlw	0
  5308     1647  00F6               	movwf	eeprom_at24c04_str_write@data+1
  5309     1648  0878               	movf	log_event@addr,w
  5310     1649  160A  118A  264F  160A  118A  	fcall	_eeprom_at24c04_str_write
  5311     164E                     l80:
  5312     164E  0008               	return
  5313     164F                     __end_of_log_event:
  5314                           
  5315                           	psect	text12
  5316     164F                     __ptext12:	
  5317 ;; *************** function _eeprom_at24c04_str_write *****************
  5318 ;; Defined at:
  5319 ;;		line 46 in file "external_eeprom.c"
  5320 ;; Parameters:    Size  Location     Type
  5321 ;;  addr            1    wreg     unsigned char 
  5322 ;;  data            2    5[COMMON] PTR unsigned char 
  5323 ;;		 -> STR_36(5), log(11), 
  5324 ;; Auto vars:     Size  Location     Type
  5325 ;;  addr            1    7[COMMON] unsigned char 
  5326 ;; Return value:  Size  Location     Type
  5327 ;;                  1    wreg      void 
  5328 ;; Registers used:
  5329 ;;		wreg, fsr0l, fsr0h, status,2, status,0, btemp+1, pclath, cstack
  5330 ;; Tracked objects:
  5331 ;;		On entry : 0/0
  5332 ;;		On exit  : 0/0
  5333 ;;		Unchanged: 0/0
  5334 ;; Data sizes:     COMMON   BANK0   BANK1   BANK3   BANK2
  5335 ;;      Params:         2       0       0       0       0
  5336 ;;      Locals:         1       0       0       0       0
  5337 ;;      Temps:          0       0       0       0       0
  5338 ;;      Totals:         3       0       0       0       0
  5339 ;;Total ram usage:        3 bytes
  5340 ;; Hardware stack levels used: 1
  5341 ;; Hardware stack levels required when called: 4
  5342 ;; This function calls:
  5343 ;;		_eeprom_at24c04_byte_write
  5344 ;; This function is called by:
  5345 ;;		_log_event
  5346 ;;		_main
  5347 ;; This function uses a non-reentrant model
  5348 ;;
  5349                           
  5350     164F                     _eeprom_at24c04_str_write:	
  5351                           ;psect for function _eeprom_at24c04_str_write
  5352                           
  5353                           
  5354                           ;incstack = 0
  5355                           ; Regs used in _eeprom_at24c04_str_write: [wreg-fsr0h+status,2+status,0+btemp+1+pclath+c
      +                          stack]
  5356                           ;eeprom_at24c04_str_write@addr stored from wreg
  5357     164F  00F7               	movwf	eeprom_at24c04_str_write@addr
  5358     1650                     l3612:
  5359                           
  5360                           ;external_eeprom.c: 46: void eeprom_at24c04_str_write(unsigned char addr, unsigned char 
      +                          *data);external_eeprom.c: 47: {;external_eeprom.c: 48:     while(*data != 0)
  5361     1650  2E6B               	goto	l3620
  5362     1651                     l3614:
  5363                           
  5364                           ;external_eeprom.c: 49:     {;external_eeprom.c: 50:         eeprom_at24c04_byte_write(a
      +                          ddr, *data);
  5365     1651  0876               	movf	eeprom_at24c04_str_write@data+1,w
  5366     1652  00FF               	movwf	btemp+1
  5367     1653  0875               	movf	eeprom_at24c04_str_write@data,w
  5368     1654  0084               	movwf	4
  5369     1655  160A  118A  2000  160A  118A  	fcall	stringtab
  5370     165A  00F3               	movwf	eeprom_at24c04_byte_write@data
  5371     165B  0877               	movf	eeprom_at24c04_str_write@addr,w
  5372     165C  160A  118A  24CE  160A  118A  	fcall	_eeprom_at24c04_byte_write
  5373     1661                     l3616:
  5374                           
  5375                           ;external_eeprom.c: 51:         data++;
  5376     1661  3001               	movlw	1
  5377     1662  07F5               	addwf	eeprom_at24c04_str_write@data,f
  5378     1663  1803               	skipnc
  5379     1664  0AF6               	incf	eeprom_at24c04_str_write@data+1,f
  5380     1665  3000               	movlw	0
  5381     1666  07F6               	addwf	eeprom_at24c04_str_write@data+1,f
  5382     1667                     l3618:
  5383                           
  5384                           ;external_eeprom.c: 52:         addr ++;
  5385     1667  3001               	movlw	1
  5386     1668  00FF               	movwf	btemp+1
  5387     1669  087F               	movf	btemp+1,w
  5388     166A  07F7               	addwf	eeprom_at24c04_str_write@addr,f
  5389     166B                     l3620:
  5390                           
  5391                           ;external_eeprom.c: 48:     while(*data != 0)
  5392     166B  0876               	movf	eeprom_at24c04_str_write@data+1,w
  5393     166C  1283               	bcf	3,5	;RP0=0, select bank0
  5394     166D  1303               	bcf	3,6	;RP1=0, select bank0
  5395     166E  00FF               	movwf	btemp+1
  5396     166F  0875               	movf	eeprom_at24c04_str_write@data,w
  5397     1670  0084               	movwf	4
  5398     1671  160A  118A  2000  160A  118A  	fcall	stringtab
  5399     1676  3A00               	xorlw	0
  5400     1677  1D03               	skipz
  5401     1678  2E7A               	goto	u3151
  5402     1679  2E7B               	goto	u3150
  5403     167A                     u3151:
  5404     167A  2E51               	goto	l3614
  5405     167B                     u3150:
  5406     167B                     l309:
  5407     167B  0008               	return
  5408     167C                     __end_of_eeprom_at24c04_str_write:
  5409                           
  5410                           	psect	text13
  5411     14CE                     __ptext13:	
  5412 ;; *************** function _eeprom_at24c04_byte_write *****************
  5413 ;; Defined at:
  5414 ;;		line 37 in file "external_eeprom.c"
  5415 ;; Parameters:    Size  Location     Type
  5416 ;;  addr            1    wreg     unsigned char 
  5417 ;;  data            1    3[COMMON] unsigned char 
  5418 ;; Auto vars:     Size  Location     Type
  5419 ;;  addr            1    4[COMMON] unsigned char 
  5420 ;; Return value:  Size  Location     Type
  5421 ;;                  1    wreg      void 
  5422 ;; Registers used:
  5423 ;;		wreg, status,2, status,0, pclath, cstack
  5424 ;; Tracked objects:
  5425 ;;		On entry : 0/0
  5426 ;;		On exit  : 0/0
  5427 ;;		Unchanged: 0/0
  5428 ;; Data sizes:     COMMON   BANK0   BANK1   BANK3   BANK2
  5429 ;;      Params:         1       0       0       0       0
  5430 ;;      Locals:         1       0       0       0       0
  5431 ;;      Temps:          0       0       0       0       0
  5432 ;;      Totals:         2       0       0       0       0
  5433 ;;Total ram usage:        2 bytes
  5434 ;; Hardware stack levels used: 1
  5435 ;; Hardware stack levels required when called: 3
  5436 ;; This function calls:
  5437 ;;		_i2c_start
  5438 ;;		_i2c_stop
  5439 ;;		_i2c_write
  5440 ;; This function is called by:
  5441 ;;		_eeprom_at24c04_str_write
  5442 ;;		_init_at24c04
  5443 ;; This function uses a non-reentrant model
  5444 ;;
  5445                           
  5446     14CE                     _eeprom_at24c04_byte_write:	
  5447                           ;psect for function _eeprom_at24c04_byte_write
  5448                           
  5449                           
  5450                           ;incstack = 0
  5451                           ; Regs used in _eeprom_at24c04_byte_write: [wreg+status,2+status,0+pclath+cstack]
  5452                           ;eeprom_at24c04_byte_write@addr stored from wreg
  5453     14CE  00F4               	movwf	eeprom_at24c04_byte_write@addr
  5454     14CF                     l3584:
  5455                           
  5456                           ;external_eeprom.c: 37: void eeprom_at24c04_byte_write(unsigned char addr, unsigned char
      +                           data);external_eeprom.c: 38: {;external_eeprom.c: 39:     i2c_start();
  5457     14CF  160A  118A  23D7  160A  118A  	fcall	_i2c_start
  5458                           
  5459                           ;external_eeprom.c: 40:     i2c_write(0xA0);
  5460     14D4  30A0               	movlw	160
  5461     14D5  160A  118A  23F4  160A  118A  	fcall	_i2c_write
  5462                           
  5463                           ;external_eeprom.c: 41:     i2c_write(addr);
  5464     14DA  0874               	movf	eeprom_at24c04_byte_write@addr,w
  5465     14DB  160A  118A  23F4  160A  118A  	fcall	_i2c_write
  5466                           
  5467                           ;external_eeprom.c: 42:     i2c_write(data);
  5468     14E0  0873               	movf	eeprom_at24c04_byte_write@data,w
  5469     14E1  160A  118A  23F4  160A  118A  	fcall	_i2c_write
  5470                           
  5471                           ;external_eeprom.c: 43:     i2c_stop();
  5472     14E6  160A  118A  23E0  160A  118A  	fcall	_i2c_stop
  5473     14EB                     l303:
  5474     14EB  0008               	return
  5475     14EC                     __end_of_eeprom_at24c04_byte_write:
  5476                           
  5477                           	psect	text14
  5478     15F8                     __ptext14:	
  5479 ;; *************** function _init_config *****************
  5480 ;; Defined at:
  5481 ;;		line 13 in file "main.c"
  5482 ;; Parameters:    Size  Location     Type
  5483 ;;		None
  5484 ;; Auto vars:     Size  Location     Type
  5485 ;;		None
  5486 ;; Return value:  Size  Location     Type
  5487 ;;                  1    wreg      void 
  5488 ;; Registers used:
  5489 ;;		wreg, status,2, status,0, btemp+1, pclath, cstack
  5490 ;; Tracked objects:
  5491 ;;		On entry : 0/0
  5492 ;;		On exit  : 0/0
  5493 ;;		Unchanged: 0/0
  5494 ;; Data sizes:     COMMON   BANK0   BANK1   BANK3   BANK2
  5495 ;;      Params:         0       0       0       0       0
  5496 ;;      Locals:         0       0       0       0       0
  5497 ;;      Temps:          0       0       0       0       0
  5498 ;;      Totals:         0       0       0       0       0
  5499 ;;Total ram usage:        0 bytes
  5500 ;; Hardware stack levels used: 1
  5501 ;; Hardware stack levels required when called: 6
  5502 ;; This function calls:
  5503 ;;		_init_adc
  5504 ;;		_init_clcd
  5505 ;;		_init_digital_keypad
  5506 ;;		_init_ds1307
  5507 ;;		_init_i2c
  5508 ;;		_init_timer2
  5509 ;; This function is called by:
  5510 ;;		_main
  5511 ;; This function uses a non-reentrant model
  5512 ;;
  5513                           
  5514     15F8                     _init_config:	
  5515                           ;psect for function _init_config
  5516                           
  5517     15F8                     l4284:	
  5518                           ;incstack = 0
  5519                           ; Regs used in _init_config: [wreg+status,2+status,0+btemp+1+pclath+cstack]
  5520                           
  5521                           
  5522                           ;main.c: 15: 
  5523     15F8  3000               	movlw	0
  5524     15F9  1283               	bcf	3,5	;RP0=0, select bank0
  5525     15FA  1303               	bcf	3,6	;RP1=0, select bank0
  5526     15FB  00A9               	movwf	init_i2c@baud+3
  5527     15FC  3001               	movlw	1
  5528     15FD  00A8               	movwf	init_i2c@baud+2
  5529     15FE  3086               	movlw	134
  5530     15FF  00A7               	movwf	init_i2c@baud+1
  5531     1600  30A0               	movlw	160
  5532     1601  00A6               	movwf	init_i2c@baud
  5533     1602  160A  118A  26DD  160A  118A  	fcall	_init_i2c
  5534     1607                     l4286:
  5535                           
  5536                           ;main.c: 16: void main(void) {
  5537     1607  160A  118A  2447  160A  118A  	fcall	_init_ds1307
  5538     160C                     l4288:
  5539                           
  5540                           ;main.c: 17:     init_config();
  5541     160C  120A  158A  2173  160A  118A  	fcall	_init_clcd
  5542     1611                     l4290:
  5543                           
  5544                           ;main.c: 18:     unsigned char control_flag = 0x10, reset_flag;
  5545     1611  120A  118A  27FA  160A  118A  	fcall	_init_digital_keypad
  5546     1616                     l4292:
  5547                           
  5548                           ;main.c: 19:     char event[3] = "ON";
  5549     1616  160A  118A  23C8  160A  118A  	fcall	_init_adc
  5550     161B                     l4294:
  5551                           
  5552                           ;main.c: 20:     unsigned char speed = 0;
  5553     161B  160A  118A  2417  160A  118A  	fcall	_init_timer2
  5554     1620                     l4296:
  5555                           
  5556                           ;main.c: 21:     unsigned char gr = 0, key, menu;
  5557     1620  178B               	bsf	11,7	;volatile
  5558     1621                     l4298:
  5559                           
  5560                           ;main.c: 22:     char *gear[] = {"GN", "GR", "G1", "G2", "G3", "G4"};
  5561     1621  170B               	bsf	11,6	;volatile
  5562     1622                     l416:
  5563     1622  0008               	return
  5564     1623                     __end_of_init_config:
  5565                           
  5566                           	psect	text15
  5567     1417                     __ptext15:	
  5568 ;; *************** function _init_timer2 *****************
  5569 ;; Defined at:
  5570 ;;		line 17 in file "timers.c"
  5571 ;; Parameters:    Size  Location     Type
  5572 ;;		None
  5573 ;; Auto vars:     Size  Location     Type
  5574 ;;		None
  5575 ;; Return value:  Size  Location     Type
  5576 ;;                  1    wreg      void 
  5577 ;; Registers used:
  5578 ;;		wreg
  5579 ;; Tracked objects:
  5580 ;;		On entry : 0/0
  5581 ;;		On exit  : 0/0
  5582 ;;		Unchanged: 0/0
  5583 ;; Data sizes:     COMMON   BANK0   BANK1   BANK3   BANK2
  5584 ;;      Params:         0       0       0       0       0
  5585 ;;      Locals:         0       0       0       0       0
  5586 ;;      Temps:          0       0       0       0       0
  5587 ;;      Totals:         0       0       0       0       0
  5588 ;;Total ram usage:        0 bytes
  5589 ;; Hardware stack levels used: 1
  5590 ;; Hardware stack levels required when called: 1
  5591 ;; This function calls:
  5592 ;;		Nothing
  5593 ;; This function is called by:
  5594 ;;		_init_config
  5595 ;; This function uses a non-reentrant model
  5596 ;;
  5597                           
  5598     1417                     _init_timer2:	
  5599                           ;psect for function _init_timer2
  5600                           
  5601     1417                     l2616:	
  5602                           ;incstack = 0
  5603                           ; Regs used in _init_timer2: [wreg]
  5604                           
  5605                           
  5606                           ;timers.c: 20:     T2CKPS0 = 1;
  5607     1417  1283               	bcf	3,5	;RP0=0, select bank0
  5608     1418  1303               	bcf	3,6	;RP1=0, select bank0
  5609     1419  1412               	bsf	18,0	;volatile
  5610                           
  5611                           ;timers.c: 21:     T2CKPS1 = 1;
  5612     141A  1492               	bsf	18,1	;volatile
  5613     141B                     l2618:
  5614                           
  5615                           ;timers.c: 24:     PR2 = 250;
  5616     141B  30FA               	movlw	250
  5617     141C  1683               	bsf	3,5	;RP0=1, select bank1
  5618     141D  1303               	bcf	3,6	;RP1=0, select bank1
  5619     141E  0092               	movwf	18	;volatile
  5620     141F                     l2620:
  5621                           
  5622                           ;timers.c: 27:     TMR2IE = 1;
  5623     141F  148C               	bsf	12,1	;volatile
  5624     1420                     l2622:
  5625                           
  5626                           ;timers.c: 30:     TMR2ON = 0;
  5627     1420  1283               	bcf	3,5	;RP0=0, select bank0
  5628     1421  1303               	bcf	3,6	;RP1=0, select bank0
  5629     1422  1112               	bcf	18,2	;volatile
  5630     1423                     l506:
  5631     1423  0008               	return
  5632     1424                     __end_of_init_timer2:
  5633                           
  5634                           	psect	text16
  5635     16DD                     __ptext16:	
  5636 ;; *************** function _init_i2c *****************
  5637 ;; Defined at:
  5638 ;;		line 12 in file "i2c.c"
  5639 ;; Parameters:    Size  Location     Type
  5640 ;;  baud            4    6[BANK0 ] unsigned long 
  5641 ;; Auto vars:     Size  Location     Type
  5642 ;;		None
  5643 ;; Return value:  Size  Location     Type
  5644 ;;                  1    wreg      void 
  5645 ;; Registers used:
  5646 ;;		wreg, status,2, status,0, btemp+1, pclath, cstack
  5647 ;; Tracked objects:
  5648 ;;		On entry : 0/0
  5649 ;;		On exit  : 0/0
  5650 ;;		Unchanged: 0/0
  5651 ;; Data sizes:     COMMON   BANK0   BANK1   BANK3   BANK2
  5652 ;;      Params:         0       4       0       0       0
  5653 ;;      Locals:         0       0       0       0       0
  5654 ;;      Temps:          0       4       0       0       0
  5655 ;;      Totals:         0       8       0       0       0
  5656 ;;Total ram usage:        8 bytes
  5657 ;; Hardware stack levels used: 1
  5658 ;; Hardware stack levels required when called: 2
  5659 ;; This function calls:
  5660 ;;		___lldiv
  5661 ;; This function is called by:
  5662 ;;		_init_config
  5663 ;; This function uses a non-reentrant model
  5664 ;;
  5665                           
  5666     16DD                     _init_i2c:	
  5667                           ;psect for function _init_i2c
  5668                           
  5669     16DD                     l3774:	
  5670                           ;incstack = 0
  5671                           ; Regs used in _init_i2c: [wreg+status,2+status,0+btemp+1+pclath+cstack]
  5672                           
  5673                           
  5674                           ;i2c.c: 12: void init_i2c(unsigned long baud);i2c.c: 13: {;i2c.c: 15:     SSPM3 = 1;
  5675     16DD  1283               	bcf	3,5	;RP0=0, select bank0
  5676     16DE  1303               	bcf	3,6	;RP1=0, select bank0
  5677     16DF  1594               	bsf	20,3	;volatile
  5678     16E0                     l3776:
  5679                           
  5680                           ;i2c.c: 18:     SSPADD = (unsigned char)(20000000 / (4 * baud)) - 1;
  5681     16E0  0826               	movf	init_i2c@baud,w
  5682     16E1  00AA               	movwf	??_init_i2c
  5683     16E2  0827               	movf	init_i2c@baud+1,w
  5684     16E3  00AB               	movwf	??_init_i2c+1
  5685     16E4  0828               	movf	init_i2c@baud+2,w
  5686     16E5  00AC               	movwf	??_init_i2c+2
  5687     16E6  0829               	movf	init_i2c@baud+3,w
  5688     16E7  00AD               	movwf	??_init_i2c+3
  5689     16E8  3002               	movlw	2
  5690     16E9                     u3295:
  5691     16E9  1003               	clrc
  5692     16EA  0DAA               	rlf	??_init_i2c,f
  5693     16EB  0DAB               	rlf	??_init_i2c+1,f
  5694     16EC  0DAC               	rlf	??_init_i2c+2,f
  5695     16ED  0DAD               	rlf	??_init_i2c+3,f
  5696     16EE                     u3290:
  5697     16EE  3EFF               	addlw	-1
  5698     16EF  1D03               	skipz
  5699     16F0  2EE9               	goto	u3295
  5700     16F1  082D               	movf	??_init_i2c+3,w
  5701     16F2  00F5               	movwf	___lldiv@divisor+3
  5702     16F3  082C               	movf	??_init_i2c+2,w
  5703     16F4  00F4               	movwf	___lldiv@divisor+2
  5704     16F5  082B               	movf	??_init_i2c+1,w
  5705     16F6  00F3               	movwf	___lldiv@divisor+1
  5706     16F7  082A               	movf	??_init_i2c,w
  5707     16F8  00F2               	movwf	___lldiv@divisor
  5708     16F9  3001               	movlw	1
  5709     16FA  00F9               	movwf	___lldiv@dividend+3
  5710     16FB  3031               	movlw	49
  5711     16FC  00F8               	movwf	___lldiv@dividend+2
  5712     16FD  302D               	movlw	45
  5713     16FE  00F7               	movwf	___lldiv@dividend+1
  5714     16FF  3000               	movlw	0
  5715     1700  00F6               	movwf	___lldiv@dividend
  5716     1701  120A  158A  2442  160A  118A  	fcall	___lldiv
  5717     1706  0872               	movf	?___lldiv,w
  5718     1707  3EFF               	addlw	255
  5719     1708  1683               	bsf	3,5	;RP0=1, select bank1
  5720     1709  1303               	bcf	3,6	;RP1=0, select bank1
  5721     170A  0093               	movwf	19	;volatile
  5722     170B                     l3778:
  5723                           
  5724                           ;i2c.c: 21:     SSPEN = 1;
  5725     170B  1283               	bcf	3,5	;RP0=0, select bank0
  5726     170C  1303               	bcf	3,6	;RP1=0, select bank0
  5727     170D  1694               	bsf	20,5	;volatile
  5728     170E                     l338:
  5729     170E  0008               	return
  5730     170F                     __end_of_init_i2c:
  5731                           
  5732                           	psect	text17
  5733     0C42                     __ptext17:	
  5734 ;; *************** function ___lldiv *****************
  5735 ;; Defined at:
  5736 ;;		line 5 in file "C:\Program Files\Microchip\xc8\v2.46\pic\sources\c99\common\__lldiv.c"
  5737 ;; Parameters:    Size  Location     Type
  5738 ;;  divisor         4    2[COMMON] unsigned long 
  5739 ;;  dividend        4    6[COMMON] unsigned long 
  5740 ;; Auto vars:     Size  Location     Type
  5741 ;;  quotient        4    1[BANK0 ] unsigned long 
  5742 ;;  counter         1    5[BANK0 ] unsigned char 
  5743 ;; Return value:  Size  Location     Type
  5744 ;;                  4    2[COMMON] unsigned long 
  5745 ;; Registers used:
  5746 ;;		wreg, status,2, status,0, btemp+1
  5747 ;; Tracked objects:
  5748 ;;		On entry : 0/0
  5749 ;;		On exit  : 0/0
  5750 ;;		Unchanged: 0/0
  5751 ;; Data sizes:     COMMON   BANK0   BANK1   BANK3   BANK2
  5752 ;;      Params:         8       0       0       0       0
  5753 ;;      Locals:         0       5       0       0       0
  5754 ;;      Temps:          0       1       0       0       0
  5755 ;;      Totals:         8       6       0       0       0
  5756 ;;Total ram usage:       14 bytes
  5757 ;; Hardware stack levels used: 1
  5758 ;; Hardware stack levels required when called: 1
  5759 ;; This function calls:
  5760 ;;		Nothing
  5761 ;; This function is called by:
  5762 ;;		_init_i2c
  5763 ;;		_init_uart
  5764 ;; This function uses a non-reentrant model
  5765 ;;
  5766                           
  5767     0C42                     ___lldiv:	
  5768                           ;psect for function ___lldiv
  5769                           
  5770     0C42                     l3674:	
  5771                           ;incstack = 0
  5772                           ; Regs used in ___lldiv: [wreg+status,2+status,0+btemp+1]
  5773                           
  5774     0C42  3000               	movlw	0
  5775     0C43  1283               	bcf	3,5	;RP0=0, select bank0
  5776     0C44  1303               	bcf	3,6	;RP1=0, select bank0
  5777     0C45  00A4               	movwf	___lldiv@quotient+3
  5778     0C46  3000               	movlw	0
  5779     0C47  00A3               	movwf	___lldiv@quotient+2
  5780     0C48  3000               	movlw	0
  5781     0C49  00A2               	movwf	___lldiv@quotient+1
  5782     0C4A  3000               	movlw	0
  5783     0C4B  00A1               	movwf	___lldiv@quotient
  5784     0C4C  0875               	movf	___lldiv@divisor+3,w
  5785     0C4D  0474               	iorwf	___lldiv@divisor+2,w
  5786     0C4E  0473               	iorwf	___lldiv@divisor+1,w
  5787     0C4F  0472               	iorwf	___lldiv@divisor,w
  5788     0C50  1903               	skipnz
  5789     0C51  2C53               	goto	u3181
  5790     0C52  2C54               	goto	u3180
  5791     0C53                     u3181:
  5792     0C53  2CA1               	goto	l3696
  5793     0C54                     u3180:
  5794     0C54                     l3676:
  5795     0C54  01A5               	clrf	___lldiv@counter
  5796     0C55  0AA5               	incf	___lldiv@counter,f
  5797     0C56  2C64               	goto	l3682
  5798     0C57                     l3678:
  5799     0C57  3001               	movlw	1
  5800     0C58  00A0               	movwf	??___lldiv
  5801     0C59                     u3195:
  5802     0C59  1003               	clrc
  5803     0C5A  0DF2               	rlf	___lldiv@divisor,f
  5804     0C5B  0DF3               	rlf	___lldiv@divisor+1,f
  5805     0C5C  0DF4               	rlf	___lldiv@divisor+2,f
  5806     0C5D  0DF5               	rlf	___lldiv@divisor+3,f
  5807     0C5E  0BA0               	decfsz	??___lldiv,f
  5808     0C5F  2C59               	goto	u3195
  5809     0C60                     l3680:
  5810     0C60  3001               	movlw	1
  5811     0C61  00FF               	movwf	btemp+1
  5812     0C62  087F               	movf	btemp+1,w
  5813     0C63  07A5               	addwf	___lldiv@counter,f
  5814     0C64                     l3682:
  5815     0C64  1FF5               	btfss	___lldiv@divisor+3,7
  5816     0C65  2C67               	goto	u3201
  5817     0C66  2C68               	goto	u3200
  5818     0C67                     u3201:
  5819     0C67  2C57               	goto	l3678
  5820     0C68                     u3200:
  5821     0C68                     l3684:
  5822     0C68  3001               	movlw	1
  5823     0C69  00A0               	movwf	??___lldiv
  5824     0C6A                     u3215:
  5825     0C6A  1003               	clrc
  5826     0C6B  0DA1               	rlf	___lldiv@quotient,f
  5827     0C6C  0DA2               	rlf	___lldiv@quotient+1,f
  5828     0C6D  0DA3               	rlf	___lldiv@quotient+2,f
  5829     0C6E  0DA4               	rlf	___lldiv@quotient+3,f
  5830     0C6F  0BA0               	decfsz	??___lldiv,f
  5831     0C70  2C6A               	goto	u3215
  5832     0C71                     l3686:
  5833     0C71  0875               	movf	___lldiv@divisor+3,w
  5834     0C72  0279               	subwf	___lldiv@dividend+3,w
  5835     0C73  1D03               	skipz
  5836     0C74  2C7F               	goto	u3225
  5837     0C75  0874               	movf	___lldiv@divisor+2,w
  5838     0C76  0278               	subwf	___lldiv@dividend+2,w
  5839     0C77  1D03               	skipz
  5840     0C78  2C7F               	goto	u3225
  5841     0C79  0873               	movf	___lldiv@divisor+1,w
  5842     0C7A  0277               	subwf	___lldiv@dividend+1,w
  5843     0C7B  1D03               	skipz
  5844     0C7C  2C7F               	goto	u3225
  5845     0C7D  0872               	movf	___lldiv@divisor,w
  5846     0C7E  0276               	subwf	___lldiv@dividend,w
  5847     0C7F                     u3225:
  5848     0C7F  1C03               	skipc
  5849     0C80  2C82               	goto	u3221
  5850     0C81  2C83               	goto	u3220
  5851     0C82                     u3221:
  5852     0C82  2C92               	goto	l3692
  5853     0C83                     u3220:
  5854     0C83                     l3688:
  5855     0C83  0872               	movf	___lldiv@divisor,w
  5856     0C84  02F6               	subwf	___lldiv@dividend,f
  5857     0C85  0873               	movf	___lldiv@divisor+1,w
  5858     0C86  1C03               	skipc
  5859     0C87  0F73               	incfsz	___lldiv@divisor+1,w
  5860     0C88  02F7               	subwf	___lldiv@dividend+1,f
  5861     0C89  0874               	movf	___lldiv@divisor+2,w
  5862     0C8A  1C03               	skipc
  5863     0C8B  0F74               	incfsz	___lldiv@divisor+2,w
  5864     0C8C  02F8               	subwf	___lldiv@dividend+2,f
  5865     0C8D  0875               	movf	___lldiv@divisor+3,w
  5866     0C8E  1C03               	skipc
  5867     0C8F  0F75               	incfsz	___lldiv@divisor+3,w
  5868     0C90  02F9               	subwf	___lldiv@dividend+3,f
  5869     0C91                     l3690:
  5870     0C91  1421               	bsf	___lldiv@quotient,0
  5871     0C92                     l3692:
  5872     0C92  3001               	movlw	1
  5873     0C93                     u3235:
  5874     0C93  1003               	clrc
  5875     0C94  0CF5               	rrf	___lldiv@divisor+3,f
  5876     0C95  0CF4               	rrf	___lldiv@divisor+2,f
  5877     0C96  0CF3               	rrf	___lldiv@divisor+1,f
  5878     0C97  0CF2               	rrf	___lldiv@divisor,f
  5879     0C98  3EFF               	addlw	-1
  5880     0C99  1D03               	skipz
  5881     0C9A  2C93               	goto	u3235
  5882     0C9B                     l3694:
  5883     0C9B  3001               	movlw	1
  5884     0C9C  02A5               	subwf	___lldiv@counter,f
  5885     0C9D  1D03               	btfss	3,2
  5886     0C9E  2CA0               	goto	u3241
  5887     0C9F  2CA1               	goto	u3240
  5888     0CA0                     u3241:
  5889     0CA0  2C68               	goto	l3684
  5890     0CA1                     u3240:
  5891     0CA1                     l3696:
  5892     0CA1  0824               	movf	___lldiv@quotient+3,w
  5893     0CA2  00F5               	movwf	?___lldiv+3
  5894     0CA3  0823               	movf	___lldiv@quotient+2,w
  5895     0CA4  00F4               	movwf	?___lldiv+2
  5896     0CA5  0822               	movf	___lldiv@quotient+1,w
  5897     0CA6  00F3               	movwf	?___lldiv+1
  5898     0CA7  0821               	movf	___lldiv@quotient,w
  5899     0CA8  00F2               	movwf	?___lldiv
  5900     0CA9                     l663:
  5901     0CA9  0008               	return
  5902     0CAA                     __end_of___lldiv:
  5903                           
  5904                           	psect	text18
  5905     1447                     __ptext18:	
  5906 ;; *************** function _init_ds1307 *****************
  5907 ;; Defined at:
  5908 ;;		line 12 in file "ds1307.c"
  5909 ;; Parameters:    Size  Location     Type
  5910 ;;		None
  5911 ;; Auto vars:     Size  Location     Type
  5912 ;;  dummy           1    6[COMMON] unsigned char 
  5913 ;; Return value:  Size  Location     Type
  5914 ;;                  1    wreg      void 
  5915 ;; Registers used:
  5916 ;;		wreg, status,2, status,0, pclath, cstack
  5917 ;; Tracked objects:
  5918 ;;		On entry : 0/0
  5919 ;;		On exit  : 0/0
  5920 ;;		Unchanged: 0/0
  5921 ;; Data sizes:     COMMON   BANK0   BANK1   BANK3   BANK2
  5922 ;;      Params:         0       0       0       0       0
  5923 ;;      Locals:         1       0       0       0       0
  5924 ;;      Temps:          0       0       0       0       0
  5925 ;;      Totals:         1       0       0       0       0
  5926 ;;Total ram usage:        1 bytes
  5927 ;; Hardware stack levels used: 1
  5928 ;; Hardware stack levels required when called: 5
  5929 ;; This function calls:
  5930 ;;		_read_ds1307
  5931 ;;		_write_ds1307
  5932 ;; This function is called by:
  5933 ;;		_init_config
  5934 ;; This function uses a non-reentrant model
  5935 ;;
  5936                           
  5937     1447                     _init_ds1307:	
  5938                           ;psect for function _init_ds1307
  5939                           
  5940     1447                     l3768:	
  5941                           ;incstack = 0
  5942                           ; Regs used in _init_ds1307: [wreg+status,2+status,0+pclath+cstack]
  5943                           
  5944                           
  5945                           ;ds1307.c: 14:     unsigned char dummy;;ds1307.c: 16:     dummy = read_ds1307(0x00);
  5946     1447  3000               	movlw	0
  5947     1448  160A  118A  25A2  160A  118A  	fcall	_read_ds1307
  5948     144D  00F6               	movwf	init_ds1307@dummy
  5949     144E                     l3770:
  5950                           
  5951                           ;ds1307.c: 17:     dummy = dummy & 0x7F;
  5952     144E  0876               	movf	init_ds1307@dummy,w
  5953     144F  397F               	andlw	127
  5954     1450  00F6               	movwf	init_ds1307@dummy
  5955     1451                     l3772:
  5956                           
  5957                           ;ds1307.c: 18:     write_ds1307(0x00, dummy);
  5958     1451  0876               	movf	init_ds1307@dummy,w
  5959     1452  00F3               	movwf	write_ds1307@data
  5960     1453  3000               	movlw	0
  5961     1454  160A  118A  24B0  160A  118A  	fcall	_write_ds1307
  5962     1459                     l274:
  5963     1459  0008               	return
  5964     145A                     __end_of_init_ds1307:
  5965                           
  5966                           	psect	text19
  5967     07FA                     __ptext19:	
  5968 ;; *************** function _init_digital_keypad *****************
  5969 ;; Defined at:
  5970 ;;		line 12 in file "digital_keypad.c"
  5971 ;; Parameters:    Size  Location     Type
  5972 ;;		None
  5973 ;; Auto vars:     Size  Location     Type
  5974 ;;		None
  5975 ;; Return value:  Size  Location     Type
  5976 ;;                  1    wreg      void 
  5977 ;; Registers used:
  5978 ;;		wreg, status,2
  5979 ;; Tracked objects:
  5980 ;;		On entry : 0/0
  5981 ;;		On exit  : 0/0
  5982 ;;		Unchanged: 0/0
  5983 ;; Data sizes:     COMMON   BANK0   BANK1   BANK3   BANK2
  5984 ;;      Params:         0       0       0       0       0
  5985 ;;      Locals:         0       0       0       0       0
  5986 ;;      Temps:          0       0       0       0       0
  5987 ;;      Totals:         0       0       0       0       0
  5988 ;;Total ram usage:        0 bytes
  5989 ;; Hardware stack levels used: 1
  5990 ;; Hardware stack levels required when called: 1
  5991 ;; This function calls:
  5992 ;;		Nothing
  5993 ;; This function is called by:
  5994 ;;		_init_config
  5995 ;; This function uses a non-reentrant model
  5996 ;;
  5997                           
  5998     07FA                     _init_digital_keypad:	
  5999                           ;psect for function _init_digital_keypad
  6000                           
  6001     07FA                     l2602:	
  6002                           ;incstack = 0
  6003                           ; Regs used in _init_digital_keypad: [wreg+status,2]
  6004                           
  6005                           
  6006                           ;digital_keypad.c: 15:     TRISB = TRISB | 0x3F;
  6007     07FA  1683               	bsf	3,5	;RP0=1, select bank1
  6008     07FB  1303               	bcf	3,6	;RP1=0, select bank1
  6009     07FC  0806               	movf	6,w	;volatile
  6010     07FD  383F               	iorlw	63
  6011     07FE  0086               	movwf	6	;volatile
  6012     07FF                     l228:
  6013     07FF  0008               	return
  6014     0800                     __end_of_init_digital_keypad:
  6015                           
  6016                           	psect	text20
  6017     0973                     __ptext20:	
  6018 ;; *************** function _init_clcd *****************
  6019 ;; Defined at:
  6020 ;;		line 52 in file "clcd.c"
  6021 ;; Parameters:    Size  Location     Type
  6022 ;;		None
  6023 ;; Auto vars:     Size  Location     Type
  6024 ;;		None
  6025 ;; Return value:  Size  Location     Type
  6026 ;;                  1    wreg      void 
  6027 ;; Registers used:
  6028 ;;		wreg, status,2, status,0, pclath, cstack
  6029 ;; Tracked objects:
  6030 ;;		On entry : 0/0
  6031 ;;		On exit  : 0/0
  6032 ;;		Unchanged: 0/0
  6033 ;; Data sizes:     COMMON   BANK0   BANK1   BANK3   BANK2
  6034 ;;      Params:         0       0       0       0       0
  6035 ;;      Locals:         0       0       0       0       0
  6036 ;;      Temps:          0       0       0       0       0
  6037 ;;      Totals:         0       0       0       0       0
  6038 ;;Total ram usage:        0 bytes
  6039 ;; Hardware stack levels used: 1
  6040 ;; Hardware stack levels required when called: 3
  6041 ;; This function calls:
  6042 ;;		_init_display_controller
  6043 ;; This function is called by:
  6044 ;;		_init_config
  6045 ;; This function uses a non-reentrant model
  6046 ;;
  6047                           
  6048     0973                     _init_clcd:	
  6049                           ;psect for function _init_clcd
  6050                           
  6051     0973                     l3760:	
  6052                           ;incstack = 0
  6053                           ; Regs used in _init_clcd: [wreg+status,2+status,0+pclath+cstack]
  6054                           
  6055                           
  6056                           ;clcd.c: 55:     TRISD = 0x00;
  6057     0973  1683               	bsf	3,5	;RP0=1, select bank1
  6058     0974  1303               	bcf	3,6	;RP1=0, select bank1
  6059     0975  0188               	clrf	8	;volatile
  6060     0976                     l3762:
  6061                           
  6062                           ;clcd.c: 58:     TRISE2 = 0;
  6063     0976  1109               	bcf	9,2	;volatile
  6064     0977                     l3764:
  6065                           
  6066                           ;clcd.c: 59:     TRISE1 = 0;
  6067     0977  1089               	bcf	9,1	;volatile
  6068     0978                     l3766:
  6069                           
  6070                           ;clcd.c: 61:     init_display_controller();
  6071     0978  120A  158A  2378  120A  158A  	fcall	_init_display_controller
  6072     097D                     l212:
  6073     097D  0008               	return
  6074     097E                     __end_of_init_clcd:
  6075                           
  6076                           	psect	text21
  6077     0B78                     __ptext21:	
  6078 ;; *************** function _init_display_controller *****************
  6079 ;; Defined at:
  6080 ;;		line 29 in file "clcd.c"
  6081 ;; Parameters:    Size  Location     Type
  6082 ;;		None
  6083 ;; Auto vars:     Size  Location     Type
  6084 ;;		None
  6085 ;; Return value:  Size  Location     Type
  6086 ;;                  1    wreg      void 
  6087 ;; Registers used:
  6088 ;;		wreg, status,2, status,0, pclath, cstack
  6089 ;; Tracked objects:
  6090 ;;		On entry : 0/0
  6091 ;;		On exit  : 0/0
  6092 ;;		Unchanged: 0/0
  6093 ;; Data sizes:     COMMON   BANK0   BANK1   BANK3   BANK2
  6094 ;;      Params:         0       0       0       0       0
  6095 ;;      Locals:         0       0       0       0       0
  6096 ;;      Temps:          2       0       0       0       0
  6097 ;;      Totals:         2       0       0       0       0
  6098 ;;Total ram usage:        2 bytes
  6099 ;; Hardware stack levels used: 1
  6100 ;; Hardware stack levels required when called: 2
  6101 ;; This function calls:
  6102 ;;		_clcd_write
  6103 ;; This function is called by:
  6104 ;;		_init_clcd
  6105 ;; This function uses a non-reentrant model
  6106 ;;
  6107                           
  6108     0B78                     _init_display_controller:	
  6109                           ;psect for function _init_display_controller
  6110                           
  6111     0B78                     l3634:	
  6112                           ;incstack = 0
  6113                           ; Regs used in _init_display_controller: [wreg+status,2+status,0+pclath+cstack]
  6114                           
  6115                           
  6116                           ;clcd.c: 32:     _delay((unsigned long)((30)*(20000000/4000.0)));
  6117     0B78  30C3               	movlw	195
  6118     0B79  00F7               	movwf	??_init_display_controller+1
  6119     0B7A  30CD               	movlw	205
  6120     0B7B  00F6               	movwf	??_init_display_controller
  6121     0B7C                     u4187:
  6122     0B7C  0BF6               	decfsz	??_init_display_controller,f
  6123     0B7D  2B7C               	goto	u4187
  6124     0B7E  0BF7               	decfsz	??_init_display_controller+1,f
  6125     0B7F  2B7C               	goto	u4187
  6126     0B80                     l3636:
  6127                           
  6128                           ;clcd.c: 35:     clcd_write(0x33, 0);
  6129     0B80  01F2               	clrf	clcd_write@mode
  6130     0B81  3033               	movlw	51
  6131     0B82  160A  118A  270F  120A  158A  	fcall	_clcd_write
  6132     0B87                     l3638:
  6133                           
  6134                           ;clcd.c: 36:     _delay((unsigned long)((4100)*(20000000/4000000.0)));
  6135     0B87  301B               	movlw	27
  6136     0B88  00F7               	movwf	??_init_display_controller+1
  6137     0B89  309E               	movlw	158
  6138     0B8A  00F6               	movwf	??_init_display_controller
  6139     0B8B                     u4197:
  6140     0B8B  0BF6               	decfsz	??_init_display_controller,f
  6141     0B8C  2B8B               	goto	u4197
  6142     0B8D  0BF7               	decfsz	??_init_display_controller+1,f
  6143     0B8E  2B8B               	goto	u4197
  6144     0B8F  0000               	nop
  6145                           
  6146                           ;clcd.c: 37:     clcd_write(0x33, 0);
  6147     0B90  01F2               	clrf	clcd_write@mode
  6148     0B91  3033               	movlw	51
  6149     0B92  160A  118A  270F  120A  158A  	fcall	_clcd_write
  6150     0B97                     l3640:
  6151                           
  6152                           ;clcd.c: 38:     _delay((unsigned long)((100)*(20000000/4000000.0)));
  6153     0B97  30A6               	movlw	166
  6154     0B98  00F6               	movwf	??_init_display_controller
  6155     0B99                     u4207:
  6156     0B99  0BF6               	decfsz	??_init_display_controller,f
  6157     0B9A  2B99               	goto	u4207
  6158     0B9B  0000               	nop
  6159     0B9C                     l3642:
  6160                           
  6161                           ;clcd.c: 39:     clcd_write(0x33, 0);
  6162     0B9C  01F2               	clrf	clcd_write@mode
  6163     0B9D  3033               	movlw	51
  6164     0B9E  160A  118A  270F  120A  158A  	fcall	_clcd_write
  6165     0BA3                     l3644:
  6166                           
  6167                           ;clcd.c: 40:     _delay((unsigned long)((1)*(20000000/4000000.0)));
  6168     0BA3  2BA4               	nop2	;2 cycle nop
  6169     0BA4  2BA5               	nop2	;2 cycle nop
  6170     0BA5  0000               	nop
  6171     0BA6                     l3646:
  6172                           
  6173                           ;clcd.c: 42:     clcd_write(0x02, 0);
  6174     0BA6  01F2               	clrf	clcd_write@mode
  6175     0BA7  3002               	movlw	2
  6176     0BA8  160A  118A  270F  120A  158A  	fcall	_clcd_write
  6177     0BAD                     l3648:
  6178                           
  6179                           ;clcd.c: 43:     _delay((unsigned long)((100)*(20000000/4000000.0)));
  6180     0BAD  30A6               	movlw	166
  6181     0BAE  00F6               	movwf	??_init_display_controller
  6182     0BAF                     u4217:
  6183     0BAF  0BF6               	decfsz	??_init_display_controller,f
  6184     0BB0  2BAF               	goto	u4217
  6185     0BB1  0000               	nop
  6186                           
  6187                           ;clcd.c: 44:     clcd_write(0x28, 0);
  6188     0BB2  01F2               	clrf	clcd_write@mode
  6189     0BB3  3028               	movlw	40
  6190     0BB4  160A  118A  270F  120A  158A  	fcall	_clcd_write
  6191     0BB9                     l3650:
  6192                           
  6193                           ;clcd.c: 45:     _delay((unsigned long)((100)*(20000000/4000000.0)));
  6194     0BB9  30A6               	movlw	166
  6195     0BBA  00F6               	movwf	??_init_display_controller
  6196     0BBB                     u4227:
  6197     0BBB  0BF6               	decfsz	??_init_display_controller,f
  6198     0BBC  2BBB               	goto	u4227
  6199     0BBD  0000               	nop
  6200     0BBE                     l3652:
  6201                           
  6202                           ;clcd.c: 46:     clcd_write(0x01, 0);
  6203     0BBE  01F2               	clrf	clcd_write@mode
  6204     0BBF  3001               	movlw	1
  6205     0BC0  160A  118A  270F  120A  158A  	fcall	_clcd_write
  6206                           
  6207                           ;clcd.c: 47:     _delay((unsigned long)((500)*(20000000/4000000.0)));
  6208     0BC5  3004               	movlw	4
  6209     0BC6  00F7               	movwf	??_init_display_controller+1
  6210     0BC7  303D               	movlw	61
  6211     0BC8  00F6               	movwf	??_init_display_controller
  6212     0BC9                     u4237:
  6213     0BC9  0BF6               	decfsz	??_init_display_controller,f
  6214     0BCA  2BC9               	goto	u4237
  6215     0BCB  0BF7               	decfsz	??_init_display_controller+1,f
  6216     0BCC  2BC9               	goto	u4237
  6217     0BCD  2BCE               	nop2
  6218     0BCE                     l3654:
  6219                           
  6220                           ;clcd.c: 48:     clcd_write(0x0C, 0);
  6221     0BCE  01F2               	clrf	clcd_write@mode
  6222     0BCF  300C               	movlw	12
  6223     0BD0  160A  118A  270F  120A  158A  	fcall	_clcd_write
  6224     0BD5                     l3656:
  6225                           
  6226                           ;clcd.c: 49:     _delay((unsigned long)((100)*(20000000/4000000.0)));
  6227     0BD5  30A6               	movlw	166
  6228     0BD6  00F6               	movwf	??_init_display_controller
  6229     0BD7                     u4247:
  6230     0BD7  0BF6               	decfsz	??_init_display_controller,f
  6231     0BD8  2BD7               	goto	u4247
  6232     0BD9  0000               	nop
  6233     0BDA                     l209:
  6234     0BDA  0008               	return
  6235     0BDB                     __end_of_init_display_controller:
  6236                           
  6237                           	psect	text22
  6238     13C8                     __ptext22:	
  6239 ;; *************** function _init_adc *****************
  6240 ;; Defined at:
  6241 ;;		line 11 in file "adc.c"
  6242 ;; Parameters:    Size  Location     Type
  6243 ;;		None
  6244 ;; Auto vars:     Size  Location     Type
  6245 ;;		None
  6246 ;; Return value:  Size  Location     Type
  6247 ;;                  1    wreg      void 
  6248 ;; Registers used:
  6249 ;;		None
  6250 ;; Tracked objects:
  6251 ;;		On entry : 0/0
  6252 ;;		On exit  : 0/0
  6253 ;;		Unchanged: 0/0
  6254 ;; Data sizes:     COMMON   BANK0   BANK1   BANK3   BANK2
  6255 ;;      Params:         0       0       0       0       0
  6256 ;;      Locals:         0       0       0       0       0
  6257 ;;      Temps:          0       0       0       0       0
  6258 ;;      Totals:         0       0       0       0       0
  6259 ;;Total ram usage:        0 bytes
  6260 ;; Hardware stack levels used: 1
  6261 ;; Hardware stack levels required when called: 1
  6262 ;; This function calls:
  6263 ;;		Nothing
  6264 ;; This function is called by:
  6265 ;;		_init_config
  6266 ;; This function uses a non-reentrant model
  6267 ;;
  6268                           
  6269     13C8                     _init_adc:	
  6270                           ;psect for function _init_adc
  6271                           
  6272     13C8                     l2502:	
  6273                           ;incstack = 0
  6274                           ; Regs used in _init_adc: []
  6275                           
  6276                           
  6277                           ;adc.c: 14:     ADFM = 1;
  6278     13C8  1683               	bsf	3,5	;RP0=1, select bank1
  6279     13C9  1303               	bcf	3,6	;RP1=0, select bank1
  6280     13CA  179F               	bsf	31,7	;volatile
  6281                           
  6282                           ;adc.c: 17:     ADON = 1;
  6283     13CB  1283               	bcf	3,5	;RP0=0, select bank0
  6284     13CC  1303               	bcf	3,6	;RP1=0, select bank0
  6285     13CD  141F               	bsf	31,0	;volatile
  6286     13CE                     l15:
  6287     13CE  0008               	return
  6288     13CF                     __end_of_init_adc:
  6289                           
  6290                           	psect	text23
  6291     0EE4                     __ptext23:	
  6292 ;; *************** function _download_log *****************
  6293 ;; Defined at:
  6294 ;;		line 338 in file "car_black_box.c"
  6295 ;; Parameters:    Size  Location     Type
  6296 ;;		None
  6297 ;; Auto vars:     Size  Location     Type
  6298 ;;  i               2   16[BANK0 ] int 
  6299 ;;  log            11    0[BANK0 ] unsigned char [11]
  6300 ;;  index           2   14[BANK0 ] int 
  6301 ;;  position        2   12[BANK0 ] int 
  6302 ;;  add             1   11[BANK0 ] unsigned char 
  6303 ;; Return value:  Size  Location     Type
  6304 ;;                  1    wreg      void 
  6305 ;; Registers used:
  6306 ;;		wreg, fsr0l, fsr0h, status,2, status,0, btemp+1, pclath, cstack
  6307 ;; Tracked objects:
  6308 ;;		On entry : 0/0
  6309 ;;		On exit  : 0/0
  6310 ;;		Unchanged: 0/0
  6311 ;; Data sizes:     COMMON   BANK0   BANK1   BANK3   BANK2
  6312 ;;      Params:         0       0       0       0       0
  6313 ;;      Locals:         0      18       0       0       0
  6314 ;;      Temps:          1       0       0       0       0
  6315 ;;      Totals:         1      18       0       0       0
  6316 ;;Total ram usage:       19 bytes
  6317 ;; Hardware stack levels used: 1
  6318 ;; Hardware stack levels required when called: 5
  6319 ;; This function calls:
  6320 ;;		___bmul
  6321 ;;		_eeprom_at24c04_read
  6322 ;;		_putchar
  6323 ;;		_puts
  6324 ;; This function is called by:
  6325 ;;		_main
  6326 ;; This function uses a non-reentrant model
  6327 ;;
  6328                           
  6329     0EE4                     _download_log:	
  6330                           ;psect for function _download_log
  6331                           
  6332     0EE4                     l4098:	
  6333                           ;incstack = 0
  6334                           ; Regs used in _download_log: [wreg-fsr0h+status,2+status,0+btemp+1+pclath+cstack]
  6335                           
  6336                           
  6337                           ;car_black_box.c: 340:     int index = -1;
  6338     0EE4  30FF               	movlw	255
  6339     0EE5  1283               	bcf	3,5	;RP0=0, select bank0
  6340     0EE6  1303               	bcf	3,6	;RP1=0, select bank0
  6341     0EE7  00AE               	movwf	download_log@index
  6342     0EE8  30FF               	movlw	255
  6343     0EE9  00AF               	movwf	download_log@index+1
  6344     0EEA                     l4100:
  6345                           
  6346                           ;car_black_box.c: 341:     char log[11];;car_black_box.c: 342:     log[10] = 0;
  6347     0EEA  01AA               	clrf	download_log@log+10
  6348     0EEB                     l4102:
  6349     0EEB                     l4104:
  6350                           
  6351                           ;car_black_box.c: 344:     unsigned char add;;car_black_box.c: 346:     if (pos == -1)
  6352     0EEB  0A7A               	incf	_pos,w
  6353     0EEC  1D03               	skipz
  6354     0EED  2EF2               	goto	u3791
  6355     0EEE  0A7B               	incf	_pos+1,w
  6356     0EEF  1D03               	btfss	3,2
  6357     0EF0  2EF2               	goto	u3791
  6358     0EF1  2EF3               	goto	u3790
  6359     0EF2                     u3791:
  6360     0EF2  2EFD               	goto	l4108
  6361     0EF3                     u3790:
  6362     0EF3                     l4106:
  6363                           
  6364                           ;car_black_box.c: 347:     {;car_black_box.c: 348:         puts("No logs available");
  6365     0EF3  3024               	movlw	low (STR_18| (0+32768))
  6366     0EF4  00F3               	movwf	puts@s
  6367     0EF5  3088               	movlw	high (STR_18| (0+32768))
  6368     0EF6  00F4               	movwf	puts@s+1
  6369     0EF7  160A  118A  2555  120A  158A  	fcall	_puts
  6370                           
  6371                           ;car_black_box.c: 349:     }
  6372     0EFC  2FFF               	goto	l159
  6373     0EFD                     l4108:
  6374                           
  6375                           ;car_black_box.c: 351:     {;car_black_box.c: 352:         puts("Logs :");
  6376     0EFD  304C               	movlw	low (STR_19| (0+32768))
  6377     0EFE  00F3               	movwf	puts@s
  6378     0EFF  3089               	movlw	high (STR_19| (0+32768))
  6379     0F00  00F4               	movwf	puts@s+1
  6380     0F01  160A  118A  2555  120A  158A  	fcall	_puts
  6381     0F06                     l4110:
  6382                           
  6383                           ;car_black_box.c: 353:         putchar('\n');
  6384     0F06  300A               	movlw	10
  6385     0F07  160A  118A  23FF  120A  158A  	fcall	_putchar
  6386     0F0C                     l4112:
  6387                           
  6388                           ;car_black_box.c: 354:         puts("#     Time        Event       Speed");
  6389     0F0C  3000               	movlw	low (STR_20| (0+32768))
  6390     0F0D  00F3               	movwf	puts@s
  6391     0F0E  3088               	movlw	high (STR_20| (0+32768))
  6392     0F0F  00F4               	movwf	puts@s+1
  6393     0F10  160A  118A  2555  120A  158A  	fcall	_puts
  6394                           
  6395                           ;car_black_box.c: 355:         putchar('\n');
  6396     0F15  300A               	movlw	10
  6397     0F16  160A  118A  23FF  120A  158A  	fcall	_putchar
  6398                           
  6399                           ;car_black_box.c: 356:         putchar('\r');
  6400     0F1B  300D               	movlw	13
  6401     0F1C  160A  118A  23FF  120A  158A  	fcall	_putchar
  6402                           
  6403                           ;car_black_box.c: 358:         while (index < pos)
  6404     0F21  2FEF               	goto	l4164
  6405     0F22                     l4114:
  6406                           
  6407                           ;car_black_box.c: 359:         {;car_black_box.c: 360:             position = index + 1;
  6408     0F22  1283               	bcf	3,5	;RP0=0, select bank0
  6409     0F23  1303               	bcf	3,6	;RP1=0, select bank0
  6410     0F24  082E               	movf	download_log@index,w
  6411     0F25  3E01               	addlw	1
  6412     0F26  00AC               	movwf	download_log@position
  6413     0F27  082F               	movf	download_log@index+1,w
  6414     0F28  1803               	skipnc
  6415     0F29  3E01               	addlw	1
  6416     0F2A  3E00               	addlw	0
  6417     0F2B  00AD               	movwf	download_log@position+1
  6418     0F2C                     l4116:
  6419                           
  6420                           ;car_black_box.c: 361:             index++;
  6421     0F2C  3001               	movlw	1
  6422     0F2D  07AE               	addwf	download_log@index,f
  6423     0F2E  1803               	skipnc
  6424     0F2F  0AAF               	incf	download_log@index+1,f
  6425     0F30  3000               	movlw	0
  6426     0F31  07AF               	addwf	download_log@index+1,f
  6427     0F32                     l4118:
  6428                           
  6429                           ;car_black_box.c: 363:             for (int i = 0; i < 10; i++)
  6430     0F32  01B0               	clrf	download_log@i
  6431     0F33  01B1               	clrf	download_log@i+1
  6432     0F34                     l4124:
  6433                           
  6434                           ;car_black_box.c: 364:             {;car_black_box.c: 366:                 add = positio
      +                          n * 10 + 5 + i;
  6435     0F34  300A               	movlw	10
  6436     0F35  00F2               	movwf	___bmul@multiplicand
  6437     0F36  1283               	bcf	3,5	;RP0=0, select bank0
  6438     0F37  1303               	bcf	3,6	;RP1=0, select bank0
  6439     0F38  082C               	movf	download_log@position,w
  6440     0F39  160A  118A  2482  120A  158A  	fcall	___bmul
  6441     0F3E  1283               	bcf	3,5	;RP0=0, select bank0
  6442     0F3F  1303               	bcf	3,6	;RP1=0, select bank0
  6443     0F40  0730               	addwf	download_log@i,w
  6444     0F41  3E05               	addlw	5
  6445     0F42  00AB               	movwf	download_log@add
  6446     0F43                     l4126:
  6447                           
  6448                           ;car_black_box.c: 367:                 log[i] = eeprom_at24c04_read(add);
  6449     0F43  0830               	movf	download_log@i,w
  6450     0F44  3E20               	addlw	(low (download_log@log| 0))& (0+255)
  6451     0F45  0084               	movwf	4
  6452     0F46  082B               	movf	download_log@add,w
  6453     0F47  160A  118A  25CD  120A  158A  	fcall	_eeprom_at24c04_read
  6454     0F4C  1383               	bcf	3,7	;select IRP bank0
  6455     0F4D  0080               	movwf	0
  6456     0F4E                     l4128:
  6457                           
  6458                           ;car_black_box.c: 368:             }
  6459     0F4E  3001               	movlw	1
  6460     0F4F  1283               	bcf	3,5	;RP0=0, select bank0
  6461     0F50  1303               	bcf	3,6	;RP1=0, select bank0
  6462     0F51  07B0               	addwf	download_log@i,f
  6463     0F52  1803               	skipnc
  6464     0F53  0AB1               	incf	download_log@i+1,f
  6465     0F54  3000               	movlw	0
  6466     0F55  07B1               	addwf	download_log@i+1,f
  6467     0F56                     l4130:
  6468     0F56  0831               	movf	download_log@i+1,w
  6469     0F57  3A80               	xorlw	128
  6470     0F58  00FF               	movwf	btemp+1
  6471     0F59  3080               	movlw	128
  6472     0F5A  027F               	subwf	btemp+1,w
  6473     0F5B  1D03               	skipz
  6474     0F5C  2F5F               	goto	u3805
  6475     0F5D  300A               	movlw	10
  6476     0F5E  0230               	subwf	download_log@i,w
  6477     0F5F                     u3805:
  6478     0F5F  1C03               	skipc
  6479     0F60  2F62               	goto	u3801
  6480     0F61  2F63               	goto	u3800
  6481     0F62                     u3801:
  6482     0F62  2F34               	goto	l4124
  6483     0F63                     u3800:
  6484     0F63                     l4132:
  6485                           
  6486                           ;car_black_box.c: 371:             putchar(index + '0');
  6487     0F63  1283               	bcf	3,5	;RP0=0, select bank0
  6488     0F64  1303               	bcf	3,6	;RP1=0, select bank0
  6489     0F65  082E               	movf	download_log@index,w
  6490     0F66  3E30               	addlw	48
  6491     0F67  160A  118A  23FF  120A  158A  	fcall	_putchar
  6492     0F6C                     l4134:
  6493                           
  6494                           ;car_black_box.c: 372:             puts("   ");
  6495     0F6C  30FC               	movlw	low ((STR_23+9)| (0+32768))
  6496     0F6D  00F3               	movwf	puts@s
  6497     0F6E  3088               	movlw	high ((STR_23+9)| (0+32768))
  6498     0F6F  00F4               	movwf	puts@s+1
  6499     0F70  160A  118A  2555  120A  158A  	fcall	_puts
  6500     0F75                     l4136:
  6501                           
  6502                           ;car_black_box.c: 375:             putchar(log[0]);
  6503     0F75  1283               	bcf	3,5	;RP0=0, select bank0
  6504     0F76  1303               	bcf	3,6	;RP1=0, select bank0
  6505     0F77  0820               	movf	download_log@log,w
  6506     0F78  160A  118A  23FF  120A  158A  	fcall	_putchar
  6507     0F7D                     l4138:
  6508                           
  6509                           ;car_black_box.c: 376:             putchar(log[1]);
  6510     0F7D  1283               	bcf	3,5	;RP0=0, select bank0
  6511     0F7E  1303               	bcf	3,6	;RP1=0, select bank0
  6512     0F7F  0821               	movf	download_log@log+1,w
  6513     0F80  160A  118A  23FF  120A  158A  	fcall	_putchar
  6514     0F85                     l4140:
  6515                           
  6516                           ;car_black_box.c: 377:             putchar(':');
  6517     0F85  303A               	movlw	58
  6518     0F86  160A  118A  23FF  120A  158A  	fcall	_putchar
  6519     0F8B                     l4142:
  6520                           
  6521                           ;car_black_box.c: 380:             putchar(log[2]);
  6522     0F8B  1283               	bcf	3,5	;RP0=0, select bank0
  6523     0F8C  1303               	bcf	3,6	;RP1=0, select bank0
  6524     0F8D  0822               	movf	download_log@log+2,w
  6525     0F8E  160A  118A  23FF  120A  158A  	fcall	_putchar
  6526     0F93                     l4144:
  6527                           
  6528                           ;car_black_box.c: 381:             putchar(log[3]);
  6529     0F93  1283               	bcf	3,5	;RP0=0, select bank0
  6530     0F94  1303               	bcf	3,6	;RP1=0, select bank0
  6531     0F95  0823               	movf	download_log@log+3,w
  6532     0F96  160A  118A  23FF  120A  158A  	fcall	_putchar
  6533     0F9B                     l4146:
  6534                           
  6535                           ;car_black_box.c: 382:             putchar(':');
  6536     0F9B  303A               	movlw	58
  6537     0F9C  160A  118A  23FF  120A  158A  	fcall	_putchar
  6538     0FA1                     l4148:
  6539                           
  6540                           ;car_black_box.c: 385:             putchar(log[4]);
  6541     0FA1  1283               	bcf	3,5	;RP0=0, select bank0
  6542     0FA2  1303               	bcf	3,6	;RP1=0, select bank0
  6543     0FA3  0824               	movf	download_log@log+4,w
  6544     0FA4  160A  118A  23FF  120A  158A  	fcall	_putchar
  6545     0FA9                     l4150:
  6546                           
  6547                           ;car_black_box.c: 386:             putchar(log[5]);
  6548     0FA9  1283               	bcf	3,5	;RP0=0, select bank0
  6549     0FAA  1303               	bcf	3,6	;RP1=0, select bank0
  6550     0FAB  0825               	movf	download_log@log+5,w
  6551     0FAC  160A  118A  23FF  120A  158A  	fcall	_putchar
  6552     0FB1                     l4152:
  6553                           
  6554                           ;car_black_box.c: 387:             puts("      ");
  6555     0FB1  30F9               	movlw	low ((STR_23+6)| (0+32768))
  6556     0FB2  00F3               	movwf	puts@s
  6557     0FB3  3088               	movlw	high ((STR_23+6)| (0+32768))
  6558     0FB4  00F4               	movwf	puts@s+1
  6559     0FB5  160A  118A  2555  120A  158A  	fcall	_puts
  6560                           
  6561                           ;car_black_box.c: 390:             putchar(log[6]);
  6562     0FBA  1283               	bcf	3,5	;RP0=0, select bank0
  6563     0FBB  1303               	bcf	3,6	;RP1=0, select bank0
  6564     0FBC  0826               	movf	download_log@log+6,w
  6565     0FBD  160A  118A  23FF  120A  158A  	fcall	_putchar
  6566                           
  6567                           ;car_black_box.c: 391:             putchar(log[7]);
  6568     0FC2  1283               	bcf	3,5	;RP0=0, select bank0
  6569     0FC3  1303               	bcf	3,6	;RP1=0, select bank0
  6570     0FC4  0827               	movf	download_log@log+7,w
  6571     0FC5  160A  118A  23FF  120A  158A  	fcall	_putchar
  6572     0FCA                     l4154:
  6573                           
  6574                           ;car_black_box.c: 392:             puts("            ");
  6575     0FCA  30F3               	movlw	low (STR_23| (0+32768))
  6576     0FCB  00F3               	movwf	puts@s
  6577     0FCC  3088               	movlw	high (STR_23| (0+32768))
  6578     0FCD  00F4               	movwf	puts@s+1
  6579     0FCE  160A  118A  2555  120A  158A  	fcall	_puts
  6580     0FD3                     l4156:
  6581                           
  6582                           ;car_black_box.c: 395:             putchar(log[8]);
  6583     0FD3  1283               	bcf	3,5	;RP0=0, select bank0
  6584     0FD4  1303               	bcf	3,6	;RP1=0, select bank0
  6585     0FD5  0828               	movf	download_log@log+8,w
  6586     0FD6  160A  118A  23FF  120A  158A  	fcall	_putchar
  6587     0FDB                     l4158:
  6588                           
  6589                           ;car_black_box.c: 396:             putchar(log[9]);
  6590     0FDB  1283               	bcf	3,5	;RP0=0, select bank0
  6591     0FDC  1303               	bcf	3,6	;RP1=0, select bank0
  6592     0FDD  0829               	movf	download_log@log+9,w
  6593     0FDE  160A  118A  23FF  120A  158A  	fcall	_putchar
  6594     0FE3                     l4160:
  6595                           
  6596                           ;car_black_box.c: 397:             putchar('\n');
  6597     0FE3  300A               	movlw	10
  6598     0FE4  160A  118A  23FF  120A  158A  	fcall	_putchar
  6599     0FE9                     l4162:
  6600                           
  6601                           ;car_black_box.c: 398:             putchar('\r');
  6602     0FE9  300D               	movlw	13
  6603     0FEA  160A  118A  23FF  120A  158A  	fcall	_putchar
  6604     0FEF                     l4164:
  6605                           
  6606                           ;car_black_box.c: 358:         while (index < pos)
  6607     0FEF  1283               	bcf	3,5	;RP0=0, select bank0
  6608     0FF0  1303               	bcf	3,6	;RP1=0, select bank0
  6609     0FF1  082F               	movf	download_log@index+1,w
  6610     0FF2  3A80               	xorlw	128
  6611     0FF3  00F6               	movwf	??_download_log
  6612     0FF4  087B               	movf	_pos+1,w
  6613     0FF5  3A80               	xorlw	128
  6614     0FF6  0276               	subwf	??_download_log,w
  6615     0FF7  1D03               	skipz
  6616     0FF8  2FFB               	goto	u3815
  6617     0FF9  087A               	movf	_pos,w
  6618     0FFA  022E               	subwf	download_log@index,w
  6619     0FFB                     u3815:
  6620     0FFB  1C03               	skipc
  6621     0FFC  2FFE               	goto	u3811
  6622     0FFD  2FFF               	goto	u3810
  6623     0FFE                     u3811:
  6624     0FFE  2F22               	goto	l4114
  6625     0FFF                     u3810:
  6626     0FFF                     l159:
  6627     0FFF  0008               	return
  6628     1000                     __end_of_download_log:
  6629                           
  6630                           	psect	text24
  6631     1555                     __ptext24:	
  6632 ;; *************** function _puts *****************
  6633 ;; Defined at:
  6634 ;;		line 41 in file "uart.c"
  6635 ;; Parameters:    Size  Location     Type
  6636 ;;  s               2    3[COMMON] PTR const unsigned char 
  6637 ;;		 -> STR_23(13), STR_22(7), STR_21(4), STR_20(36), 
  6638 ;;		 -> STR_19(7), STR_18(18), 
  6639 ;; Auto vars:     Size  Location     Type
  6640 ;;		None
  6641 ;; Return value:  Size  Location     Type
  6642 ;;                  1    wreg      void 
  6643 ;; Registers used:
  6644 ;;		wreg, fsr0l, fsr0h, status,2, status,0, btemp+1, pclath, cstack
  6645 ;; Tracked objects:
  6646 ;;		On entry : 0/0
  6647 ;;		On exit  : 0/0
  6648 ;;		Unchanged: 0/0
  6649 ;; Data sizes:     COMMON   BANK0   BANK1   BANK3   BANK2
  6650 ;;      Params:         2       0       0       0       0
  6651 ;;      Locals:         0       0       0       0       0
  6652 ;;      Temps:          0       0       0       0       0
  6653 ;;      Totals:         2       0       0       0       0
  6654 ;;Total ram usage:        2 bytes
  6655 ;; Hardware stack levels used: 1
  6656 ;; Hardware stack levels required when called: 2
  6657 ;; This function calls:
  6658 ;;		_putchar
  6659 ;; This function is called by:
  6660 ;;		_download_log
  6661 ;; This function uses a non-reentrant model
  6662 ;;
  6663                           
  6664     1555                     _puts:	
  6665                           ;psect for function _puts
  6666                           
  6667     1555                     l2586:	
  6668                           ;incstack = 0
  6669                           ; Regs used in _puts: [wreg-fsr0h+status,2+status,0+btemp+1+pclath+cstack]
  6670                           
  6671                           
  6672                           ;uart.c: 42:     while (*s) {
  6673     1555  2D6A               	goto	l2592
  6674     1556                     l2588:
  6675                           
  6676                           ;uart.c: 43:         putchar(*s++);
  6677     1556  0874               	movf	puts@s+1,w
  6678     1557  00FF               	movwf	btemp+1
  6679     1558  0873               	movf	puts@s,w
  6680     1559  0084               	movwf	4
  6681     155A  160A  118A  2000  160A  118A  	fcall	stringtab
  6682     155F  160A  118A  23FF  160A  118A  	fcall	_putchar
  6683     1564                     l2590:
  6684     1564  3001               	movlw	1
  6685     1565  07F3               	addwf	puts@s,f
  6686     1566  1803               	skipnc
  6687     1567  0AF4               	incf	puts@s+1,f
  6688     1568  3000               	movlw	0
  6689     1569  07F4               	addwf	puts@s+1,f
  6690     156A                     l2592:
  6691                           
  6692                           ;uart.c: 42:     while (*s) {
  6693     156A  0874               	movf	puts@s+1,w
  6694     156B  1283               	bcf	3,5	;RP0=0, select bank0
  6695     156C  1303               	bcf	3,6	;RP1=0, select bank0
  6696     156D  00FF               	movwf	btemp+1
  6697     156E  0873               	movf	puts@s,w
  6698     156F  0084               	movwf	4
  6699     1570  160A  118A  2000  160A  118A  	fcall	stringtab
  6700     1575  3A00               	xorlw	0
  6701     1576  1D03               	skipz
  6702     1577  2D79               	goto	u1831
  6703     1578  2D7A               	goto	u1830
  6704     1579                     u1831:
  6705     1579  2D56               	goto	l2588
  6706     157A                     u1830:
  6707     157A                     l541:
  6708     157A  0008               	return
  6709     157B                     __end_of_puts:
  6710                           
  6711                           	psect	text25
  6712     13FF                     __ptext25:	
  6713 ;; *************** function _putchar *****************
  6714 ;; Defined at:
  6715 ;;		line 28 in file "uart.c"
  6716 ;; Parameters:    Size  Location     Type
  6717 ;;  data            1    wreg     unsigned char 
  6718 ;; Auto vars:     Size  Location     Type
  6719 ;;  data            1    2[COMMON] unsigned char 
  6720 ;; Return value:  Size  Location     Type
  6721 ;;                  1    wreg      void 
  6722 ;; Registers used:
  6723 ;;		wreg
  6724 ;; Tracked objects:
  6725 ;;		On entry : 0/0
  6726 ;;		On exit  : 0/0
  6727 ;;		Unchanged: 0/0
  6728 ;; Data sizes:     COMMON   BANK0   BANK1   BANK3   BANK2
  6729 ;;      Params:         0       0       0       0       0
  6730 ;;      Locals:         1       0       0       0       0
  6731 ;;      Temps:          0       0       0       0       0
  6732 ;;      Totals:         1       0       0       0       0
  6733 ;;Total ram usage:        1 bytes
  6734 ;; Hardware stack levels used: 1
  6735 ;; Hardware stack levels required when called: 1
  6736 ;; This function calls:
  6737 ;;		Nothing
  6738 ;; This function is called by:
  6739 ;;		_download_log
  6740 ;;		_puts
  6741 ;; This function uses a non-reentrant model
  6742 ;;
  6743                           
  6744     13FF                     _putchar:	
  6745                           ;psect for function _putchar
  6746                           
  6747                           
  6748                           ;incstack = 0
  6749                           ; Regs used in _putchar: [wreg]
  6750                           ;putchar@data stored from wreg
  6751     13FF  00F2               	movwf	putchar@data
  6752     1400                     l2432:
  6753                           
  6754                           ;uart.c: 30:     TXREG = data;
  6755     1400  0872               	movf	putchar@data,w
  6756     1401  1283               	bcf	3,5	;RP0=0, select bank0
  6757     1402  1303               	bcf	3,6	;RP1=0, select bank0
  6758     1403  0099               	movwf	25	;volatile
  6759     1404                     l533:	
  6760                           ;uart.c: 35:     } while (TXIF != 1);
  6761                           
  6762     1404  1E0C               	btfss	12,4	;volatile
  6763     1405  2C07               	goto	u1641
  6764     1406  2C08               	goto	u1640
  6765     1407                     u1641:
  6766     1407  2C04               	goto	l533
  6767     1408                     u1640:
  6768     1408                     l534:
  6769                           
  6770                           ;uart.c: 38:     TXIF = 0;
  6771     1408  120C               	bcf	12,4	;volatile
  6772     1409                     l535:
  6773     1409  0008               	return
  6774     140A                     __end_of_putchar:
  6775                           
  6776                           	psect	text26
  6777     15CD                     __ptext26:	
  6778 ;; *************** function _eeprom_at24c04_read *****************
  6779 ;; Defined at:
  6780 ;;		line 22 in file "external_eeprom.c"
  6781 ;; Parameters:    Size  Location     Type
  6782 ;;  addr            1    wreg     unsigned char 
  6783 ;; Auto vars:     Size  Location     Type
  6784 ;;  addr            1    4[COMMON] unsigned char 
  6785 ;;  data            1    5[COMMON] unsigned char 
  6786 ;; Return value:  Size  Location     Type
  6787 ;;                  1    wreg      unsigned char 
  6788 ;; Registers used:
  6789 ;;		wreg, status,2, status,0, pclath, cstack
  6790 ;; Tracked objects:
  6791 ;;		On entry : 0/0
  6792 ;;		On exit  : 0/0
  6793 ;;		Unchanged: 0/0
  6794 ;; Data sizes:     COMMON   BANK0   BANK1   BANK3   BANK2
  6795 ;;      Params:         0       0       0       0       0
  6796 ;;      Locals:         2       0       0       0       0
  6797 ;;      Temps:          0       0       0       0       0
  6798 ;;      Totals:         2       0       0       0       0
  6799 ;;Total ram usage:        2 bytes
  6800 ;; Hardware stack levels used: 1
  6801 ;; Hardware stack levels required when called: 4
  6802 ;; This function calls:
  6803 ;;		_i2c_read
  6804 ;;		_i2c_rep_start
  6805 ;;		_i2c_start
  6806 ;;		_i2c_stop
  6807 ;;		_i2c_write
  6808 ;; This function is called by:
  6809 ;;		_login
  6810 ;;		_display_logs
  6811 ;;		_download_log
  6812 ;;		_init_at24c04
  6813 ;; This function uses a non-reentrant model
  6814 ;;
  6815                           
  6816     15CD                     _eeprom_at24c04_read:	
  6817                           ;psect for function _eeprom_at24c04_read
  6818                           
  6819                           
  6820                           ;incstack = 0
  6821                           ; Regs used in _eeprom_at24c04_read: [wreg+status,2+status,0+pclath+cstack]
  6822                           ;eeprom_at24c04_read@addr stored from wreg
  6823     15CD  00F4               	movwf	eeprom_at24c04_read@addr
  6824     15CE                     l3626:
  6825                           
  6826                           ;external_eeprom.c: 22: unsigned char eeprom_at24c04_read(unsigned char addr);external_e
      +                          eprom.c: 23: {;external_eeprom.c: 24:     unsigned char data;;external_eeprom.c: 26:    
      +                           i2c_start();
  6827     15CE  160A  118A  23D7  160A  118A  	fcall	_i2c_start
  6828                           
  6829                           ;external_eeprom.c: 27:     i2c_write(0xA0);
  6830     15D3  30A0               	movlw	160
  6831     15D4  160A  118A  23F4  160A  118A  	fcall	_i2c_write
  6832                           
  6833                           ;external_eeprom.c: 28:     i2c_write(addr);
  6834     15D9  0874               	movf	eeprom_at24c04_read@addr,w
  6835     15DA  160A  118A  23F4  160A  118A  	fcall	_i2c_write
  6836                           
  6837                           ;external_eeprom.c: 29:     i2c_rep_start();
  6838     15DF  160A  118A  23E9  160A  118A  	fcall	_i2c_rep_start
  6839                           
  6840                           ;external_eeprom.c: 30:     i2c_write(0xA1);
  6841     15E4  30A1               	movlw	161
  6842     15E5  160A  118A  23F4  160A  118A  	fcall	_i2c_write
  6843                           
  6844                           ;external_eeprom.c: 31:     data = i2c_read(0);
  6845     15EA  3000               	movlw	0
  6846     15EB  160A  118A  24EC  160A  118A  	fcall	_i2c_read
  6847     15F0  00F5               	movwf	eeprom_at24c04_read@data
  6848                           
  6849                           ;external_eeprom.c: 32:     i2c_stop();
  6850     15F1  160A  118A  23E0  160A  118A  	fcall	_i2c_stop
  6851     15F6                     l3628:
  6852                           
  6853                           ;external_eeprom.c: 34:     return data;
  6854     15F6  0875               	movf	eeprom_at24c04_read@data,w
  6855     15F7                     l300:
  6856     15F7  0008               	return
  6857     15F8                     __end_of_eeprom_at24c04_read:
  6858                           
  6859                           	psect	text27
  6860     1482                     __ptext27:	
  6861 ;; *************** function ___bmul *****************
  6862 ;; Defined at:
  6863 ;;		line 4 in file "C:\Program Files\Microchip\xc8\v2.46\pic\sources\c99\common\Umul8.c"
  6864 ;; Parameters:    Size  Location     Type
  6865 ;;  multiplier      1    wreg     unsigned char 
  6866 ;;  multiplicand    1    2[COMMON] unsigned char 
  6867 ;; Auto vars:     Size  Location     Type
  6868 ;;  multiplier      1    4[COMMON] unsigned char 
  6869 ;;  product         1    3[COMMON] unsigned char 
  6870 ;; Return value:  Size  Location     Type
  6871 ;;                  1    wreg      unsigned char 
  6872 ;; Registers used:
  6873 ;;		wreg, status,2, status,0, btemp+1
  6874 ;; Tracked objects:
  6875 ;;		On entry : 0/0
  6876 ;;		On exit  : 0/0
  6877 ;;		Unchanged: 0/0
  6878 ;; Data sizes:     COMMON   BANK0   BANK1   BANK3   BANK2
  6879 ;;      Params:         1       0       0       0       0
  6880 ;;      Locals:         2       0       0       0       0
  6881 ;;      Temps:          0       0       0       0       0
  6882 ;;      Totals:         3       0       0       0       0
  6883 ;;Total ram usage:        3 bytes
  6884 ;; Hardware stack levels used: 1
  6885 ;; Hardware stack levels required when called: 1
  6886 ;; This function calls:
  6887 ;;		Nothing
  6888 ;; This function is called by:
  6889 ;;		_log_event
  6890 ;;		_display_logs
  6891 ;;		_download_log
  6892 ;; This function uses a non-reentrant model
  6893 ;;
  6894                           
  6895     1482                     ___bmul:	
  6896                           ;psect for function ___bmul
  6897                           
  6898                           
  6899                           ;incstack = 0
  6900                           ; Regs used in ___bmul: [wreg+status,2+status,0+btemp+1]
  6901                           ;___bmul@multiplier stored from wreg
  6902     1482  00F4               	movwf	___bmul@multiplier
  6903     1483                     l3658:
  6904     1483  01F3               	clrf	___bmul@product
  6905     1484                     l3660:
  6906     1484  1C74               	btfss	___bmul@multiplier,0
  6907     1485  2C87               	goto	u3161
  6908     1486  2C88               	goto	u3160
  6909     1487                     u3161:
  6910     1487  2C8C               	goto	l3664
  6911     1488                     u3160:
  6912     1488                     l3662:
  6913     1488  0872               	movf	___bmul@multiplicand,w
  6914     1489  00FF               	movwf	btemp+1
  6915     148A  087F               	movf	btemp+1,w
  6916     148B  07F3               	addwf	___bmul@product,f
  6917     148C                     l3664:
  6918     148C  1003               	clrc
  6919     148D  0DF2               	rlf	___bmul@multiplicand,f
  6920     148E                     l3666:
  6921     148E  1003               	clrc
  6922     148F  0CF4               	rrf	___bmul@multiplier,f
  6923     1490                     l3668:
  6924     1490  0874               	movf	___bmul@multiplier,w
  6925     1491  1D03               	btfss	3,2
  6926     1492  2C94               	goto	u3171
  6927     1493  2C95               	goto	u3170
  6928     1494                     u3171:
  6929     1494  2C84               	goto	l3660
  6930     1495                     u3170:
  6931     1495                     l3670:
  6932     1495  0873               	movf	___bmul@product,w
  6933     1496                     l653:
  6934     1496  0008               	return
  6935     1497                     __end_of___bmul:
  6936                           
  6937                           	psect	text28
  6938     0A71                     __ptext28:	
  6939 ;; *************** function _display_dashboard *****************
  6940 ;; Defined at:
  6941 ;;		line 95 in file "car_black_box.c"
  6942 ;; Parameters:    Size  Location     Type
  6943 ;;  event           1    wreg     PTR unsigned char 
  6944 ;;		 -> main@event(3), 
  6945 ;;  speed           1    5[BANK0 ] unsigned char 
  6946 ;; Auto vars:     Size  Location     Type
  6947 ;;  event           1    8[BANK0 ] PTR unsigned char 
  6948 ;;		 -> main@event(3), 
  6949 ;; Return value:  Size  Location     Type
  6950 ;;                  1    wreg      void 
  6951 ;; Registers used:
  6952 ;;		wreg, fsr0l, fsr0h, status,2, status,0, btemp+1, pclath, cstack
  6953 ;; Tracked objects:
  6954 ;;		On entry : 0/0
  6955 ;;		On exit  : 0/0
  6956 ;;		Unchanged: 0/0
  6957 ;; Data sizes:     COMMON   BANK0   BANK1   BANK3   BANK2
  6958 ;;      Params:         0       1       0       0       0
  6959 ;;      Locals:         0       1       0       0       0
  6960 ;;      Temps:          0       2       0       0       0
  6961 ;;      Totals:         0       4       0       0       0
  6962 ;;Total ram usage:        4 bytes
  6963 ;; Hardware stack levels used: 1
  6964 ;; Hardware stack levels required when called: 7
  6965 ;; This function calls:
  6966 ;;		___awdiv
  6967 ;;		___awmod
  6968 ;;		_clcd_print
  6969 ;;		_clcd_putch
  6970 ;;		_display_time
  6971 ;; This function is called by:
  6972 ;;		_main
  6973 ;; This function uses a non-reentrant model
  6974 ;;
  6975                           
  6976     0A71                     _display_dashboard:	
  6977                           ;psect for function _display_dashboard
  6978                           
  6979                           
  6980                           ;incstack = 0
  6981                           ; Regs used in _display_dashboard: [wreg-fsr0h+status,2+status,0+btemp+1+pclath+cstack]
  6982                           ;display_dashboard@event stored from wreg
  6983     0A71  1283               	bcf	3,5	;RP0=0, select bank0
  6984     0A72  1303               	bcf	3,6	;RP1=0, select bank0
  6985     0A73  00A8               	movwf	display_dashboard@event
  6986     0A74                     l3862:
  6987                           
  6988                           ;car_black_box.c: 99:     clcd_print("TIME     E  SP", (0x80 + 2));
  6989     0A74  306B               	movlw	low ((STR_14+2)| (0+32768))
  6990     0A75  00F6               	movwf	clcd_print@str
  6991     0A76  3088               	movlw	high ((STR_14+2)| (0+32768))
  6992     0A77  00F7               	movwf	clcd_print@str+1
  6993     0A78  3082               	movlw	130
  6994     0A79  00F8               	movwf	clcd_print@addr
  6995     0A7A  160A  118A  267C  120A  158A  	fcall	_clcd_print
  6996     0A7F                     l3864:
  6997                           
  6998                           ;car_black_box.c: 100:     display_time();
  6999     0A7F  120A  158A  221B  120A  158A  	fcall	_display_time
  7000     0A84                     l3866:
  7001                           
  7002                           ;car_black_box.c: 101:     clcd_print(event, (0xC0 + 11));
  7003     0A84  1283               	bcf	3,5	;RP0=0, select bank0
  7004     0A85  1303               	bcf	3,6	;RP1=0, select bank0
  7005     0A86  0828               	movf	display_dashboard@event,w
  7006     0A87  00F6               	movwf	clcd_print@str
  7007     0A88  3000               	movlw	0
  7008     0A89  00F7               	movwf	clcd_print@str+1
  7009     0A8A  30CB               	movlw	203
  7010     0A8B  00F8               	movwf	clcd_print@addr
  7011     0A8C  160A  118A  267C  120A  158A  	fcall	_clcd_print
  7012     0A91                     l3868:
  7013                           
  7014                           ;car_black_box.c: 102:     clcd_putch(speed / 10 + '0', (0xC0 + 14));
  7015     0A91  30CE               	movlw	206
  7016     0A92  1283               	bcf	3,5	;RP0=0, select bank0
  7017     0A93  1303               	bcf	3,6	;RP1=0, select bank0
  7018     0A94  00A3               	movwf	clcd_putch@addr
  7019     0A95  300A               	movlw	10
  7020     0A96  00F2               	movwf	___awdiv@divisor
  7021     0A97  3000               	movlw	0
  7022     0A98  00F3               	movwf	___awdiv@divisor+1
  7023     0A99  0825               	movf	display_dashboard@speed,w
  7024     0A9A  00A6               	movwf	??_display_dashboard
  7025     0A9B  01A7               	clrf	??_display_dashboard+1
  7026     0A9C  0826               	movf	??_display_dashboard,w
  7027     0A9D  00F4               	movwf	___awdiv@dividend
  7028     0A9E  0827               	movf	??_display_dashboard+1,w
  7029     0A9F  00F5               	movwf	___awdiv@dividend+1
  7030     0AA0  120A  158A  23DB  120A  158A  	fcall	___awdiv
  7031     0AA5  0872               	movf	?___awdiv,w
  7032     0AA6  3E30               	addlw	48
  7033     0AA7  160A  118A  246D  120A  158A  	fcall	_clcd_putch
  7034     0AAC                     l3870:
  7035                           
  7036                           ;car_black_box.c: 103:     clcd_putch(speed % 10 + '0', (0xC0 + 15));
  7037     0AAC  30CF               	movlw	207
  7038     0AAD  1283               	bcf	3,5	;RP0=0, select bank0
  7039     0AAE  1303               	bcf	3,6	;RP1=0, select bank0
  7040     0AAF  00A3               	movwf	clcd_putch@addr
  7041     0AB0  300A               	movlw	10
  7042     0AB1  00F2               	movwf	___awmod@divisor
  7043     0AB2  3000               	movlw	0
  7044     0AB3  00F3               	movwf	___awmod@divisor+1
  7045     0AB4  0825               	movf	display_dashboard@speed,w
  7046     0AB5  00A6               	movwf	??_display_dashboard
  7047     0AB6  01A7               	clrf	??_display_dashboard+1
  7048     0AB7  0826               	movf	??_display_dashboard,w
  7049     0AB8  00F4               	movwf	___awmod@dividend
  7050     0AB9  0827               	movf	??_display_dashboard+1,w
  7051     0ABA  00F5               	movwf	___awmod@dividend+1
  7052     0ABB  120A  158A  231F  120A  158A  	fcall	___awmod
  7053     0AC0  0872               	movf	?___awmod,w
  7054     0AC1  3E30               	addlw	48
  7055     0AC2  160A  118A  246D  120A  158A  	fcall	_clcd_putch
  7056     0AC7                     l76:
  7057     0AC7  0008               	return
  7058     0AC8                     __end_of_display_dashboard:
  7059                           
  7060                           	psect	text29
  7061     0A1B                     __ptext29:	
  7062 ;; *************** function _display_time *****************
  7063 ;; Defined at:
  7064 ;;		line 82 in file "car_black_box.c"
  7065 ;; Parameters:    Size  Location     Type
  7066 ;;		None
  7067 ;; Auto vars:     Size  Location     Type
  7068 ;;		None
  7069 ;; Return value:  Size  Location     Type
  7070 ;;                  1    wreg      void 
  7071 ;; Registers used:
  7072 ;;		wreg, status,2, status,0, pclath, cstack
  7073 ;; Tracked objects:
  7074 ;;		On entry : 0/0
  7075 ;;		On exit  : 0/0
  7076 ;;		Unchanged: 0/0
  7077 ;; Data sizes:     COMMON   BANK0   BANK1   BANK3   BANK2
  7078 ;;      Params:         0       0       0       0       0
  7079 ;;      Locals:         0       0       0       0       0
  7080 ;;      Temps:          0       0       0       0       0
  7081 ;;      Totals:         0       0       0       0       0
  7082 ;;Total ram usage:        0 bytes
  7083 ;; Hardware stack levels used: 1
  7084 ;; Hardware stack levels required when called: 6
  7085 ;; This function calls:
  7086 ;;		_clcd_putch
  7087 ;;		_get_time
  7088 ;; This function is called by:
  7089 ;;		_display_dashboard
  7090 ;; This function uses a non-reentrant model
  7091 ;;
  7092                           
  7093     0A1B                     _display_time:	
  7094                           ;psect for function _display_time
  7095                           
  7096     0A1B                     l3700:	
  7097                           ;incstack = 0
  7098                           ; Regs used in _display_time: [wreg+status,2+status,0+pclath+cstack]
  7099                           
  7100                           
  7101                           ;car_black_box.c: 83:     get_time();
  7102     0A1B  120A  158A  217E  120A  158A  	fcall	_get_time
  7103                           
  7104                           ;car_black_box.c: 85:     clcd_putch(time[0], (0xC0 + 1));
  7105     0A20  30C1               	movlw	193
  7106     0A21  1283               	bcf	3,5	;RP0=0, select bank0
  7107     0A22  1303               	bcf	3,6	;RP1=0, select bank0
  7108     0A23  00A3               	movwf	clcd_putch@addr
  7109     0A24  0867               	movf	_time,w
  7110     0A25  160A  118A  246D  120A  158A  	fcall	_clcd_putch
  7111                           
  7112                           ;car_black_box.c: 86:     clcd_putch(time[1], (0xC0 + 2));
  7113     0A2A  30C2               	movlw	194
  7114     0A2B  1283               	bcf	3,5	;RP0=0, select bank0
  7115     0A2C  1303               	bcf	3,6	;RP1=0, select bank0
  7116     0A2D  00A3               	movwf	clcd_putch@addr
  7117     0A2E  0868               	movf	_time+1,w
  7118     0A2F  160A  118A  246D  120A  158A  	fcall	_clcd_putch
  7119                           
  7120                           ;car_black_box.c: 87:     clcd_putch(':', (0xC0 + 3));
  7121     0A34  30C3               	movlw	195
  7122     0A35  1283               	bcf	3,5	;RP0=0, select bank0
  7123     0A36  1303               	bcf	3,6	;RP1=0, select bank0
  7124     0A37  00A3               	movwf	clcd_putch@addr
  7125     0A38  303A               	movlw	58
  7126     0A39  160A  118A  246D  120A  158A  	fcall	_clcd_putch
  7127                           
  7128                           ;car_black_box.c: 88:     clcd_putch(time[2], (0xC0 + 4));
  7129     0A3E  30C4               	movlw	196
  7130     0A3F  1283               	bcf	3,5	;RP0=0, select bank0
  7131     0A40  1303               	bcf	3,6	;RP1=0, select bank0
  7132     0A41  00A3               	movwf	clcd_putch@addr
  7133     0A42  0869               	movf	_time+2,w
  7134     0A43  160A  118A  246D  120A  158A  	fcall	_clcd_putch
  7135                           
  7136                           ;car_black_box.c: 89:     clcd_putch(time[3], (0xC0 + 5));
  7137     0A48  30C5               	movlw	197
  7138     0A49  1283               	bcf	3,5	;RP0=0, select bank0
  7139     0A4A  1303               	bcf	3,6	;RP1=0, select bank0
  7140     0A4B  00A3               	movwf	clcd_putch@addr
  7141     0A4C  086A               	movf	_time+3,w
  7142     0A4D  160A  118A  246D  120A  158A  	fcall	_clcd_putch
  7143                           
  7144                           ;car_black_box.c: 90:     clcd_putch(':', (0xC0 + 6));
  7145     0A52  30C6               	movlw	198
  7146     0A53  1283               	bcf	3,5	;RP0=0, select bank0
  7147     0A54  1303               	bcf	3,6	;RP1=0, select bank0
  7148     0A55  00A3               	movwf	clcd_putch@addr
  7149     0A56  303A               	movlw	58
  7150     0A57  160A  118A  246D  120A  158A  	fcall	_clcd_putch
  7151                           
  7152                           ;car_black_box.c: 91:     clcd_putch(time[4], (0xC0 + 7));
  7153     0A5C  30C7               	movlw	199
  7154     0A5D  1283               	bcf	3,5	;RP0=0, select bank0
  7155     0A5E  1303               	bcf	3,6	;RP1=0, select bank0
  7156     0A5F  00A3               	movwf	clcd_putch@addr
  7157     0A60  086B               	movf	_time+4,w
  7158     0A61  160A  118A  246D  120A  158A  	fcall	_clcd_putch
  7159                           
  7160                           ;car_black_box.c: 92:     clcd_putch(time[5], (0xC0 + 8));
  7161     0A66  30C8               	movlw	200
  7162     0A67  1283               	bcf	3,5	;RP0=0, select bank0
  7163     0A68  1303               	bcf	3,6	;RP1=0, select bank0
  7164     0A69  00A3               	movwf	clcd_putch@addr
  7165     0A6A  086C               	movf	_time+5,w
  7166     0A6B  160A  118A  246D  120A  158A  	fcall	_clcd_putch
  7167     0A70                     l73:
  7168     0A70  0008               	return
  7169     0A71                     __end_of_display_time:
  7170                           
  7171                           	psect	text30
  7172     0B1F                     __ptext30:	
  7173 ;; *************** function ___awmod *****************
  7174 ;; Defined at:
  7175 ;;		line 5 in file "C:\Program Files\Microchip\xc8\v2.46\pic\sources\c99\common\awmod.c"
  7176 ;; Parameters:    Size  Location     Type
  7177 ;;  divisor         2    2[COMMON] int 
  7178 ;;  dividend        2    4[COMMON] int 
  7179 ;; Auto vars:     Size  Location     Type
  7180 ;;  sign            1    7[COMMON] unsigned char 
  7181 ;;  counter         1    6[COMMON] unsigned char 
  7182 ;; Return value:  Size  Location     Type
  7183 ;;                  2    2[COMMON] int 
  7184 ;; Registers used:
  7185 ;;		wreg, status,2, status,0, btemp+1
  7186 ;; Tracked objects:
  7187 ;;		On entry : 0/0
  7188 ;;		On exit  : 0/0
  7189 ;;		Unchanged: 0/0
  7190 ;; Data sizes:     COMMON   BANK0   BANK1   BANK3   BANK2
  7191 ;;      Params:         4       0       0       0       0
  7192 ;;      Locals:         2       0       0       0       0
  7193 ;;      Temps:          0       0       0       0       0
  7194 ;;      Totals:         6       0       0       0       0
  7195 ;;Total ram usage:        6 bytes
  7196 ;; Hardware stack levels used: 1
  7197 ;; Hardware stack levels required when called: 1
  7198 ;; This function calls:
  7199 ;;		Nothing
  7200 ;; This function is called by:
  7201 ;;		_display_dashboard
  7202 ;;		_log_car_event
  7203 ;;		_login
  7204 ;; This function uses a non-reentrant model
  7205 ;;
  7206                           
  7207     0B1F                     ___awmod:	
  7208                           ;psect for function ___awmod
  7209                           
  7210     0B1F                     l3824:	
  7211                           ;incstack = 0
  7212                           ; Regs used in ___awmod: [wreg+status,2+status,0+btemp+1]
  7213                           
  7214     0B1F  01F7               	clrf	___awmod@sign
  7215     0B20                     l3826:
  7216     0B20  1FF5               	btfss	___awmod@dividend+1,7
  7217     0B21  2B23               	goto	u3401
  7218     0B22  2B24               	goto	u3400
  7219     0B23                     u3401:
  7220     0B23  2B2B               	goto	l3832
  7221     0B24                     u3400:
  7222     0B24                     l3828:
  7223     0B24  09F4               	comf	___awmod@dividend,f
  7224     0B25  09F5               	comf	___awmod@dividend+1,f
  7225     0B26  0AF4               	incf	___awmod@dividend,f
  7226     0B27  1903               	skipnz
  7227     0B28  0AF5               	incf	___awmod@dividend+1,f
  7228     0B29                     l3830:
  7229     0B29  01F7               	clrf	___awmod@sign
  7230     0B2A  0AF7               	incf	___awmod@sign,f
  7231     0B2B                     l3832:
  7232     0B2B  1FF3               	btfss	___awmod@divisor+1,7
  7233     0B2C  2B2E               	goto	u3411
  7234     0B2D  2B2F               	goto	u3410
  7235     0B2E                     u3411:
  7236     0B2E  2B34               	goto	l3836
  7237     0B2F                     u3410:
  7238     0B2F                     l3834:
  7239     0B2F  09F2               	comf	___awmod@divisor,f
  7240     0B30  09F3               	comf	___awmod@divisor+1,f
  7241     0B31  0AF2               	incf	___awmod@divisor,f
  7242     0B32  1903               	skipnz
  7243     0B33  0AF3               	incf	___awmod@divisor+1,f
  7244     0B34                     l3836:
  7245     0B34  0872               	movf	___awmod@divisor,w
  7246     0B35  0473               	iorwf	___awmod@divisor+1,w
  7247     0B36  1903               	btfsc	3,2
  7248     0B37  2B39               	goto	u3421
  7249     0B38  2B3A               	goto	u3420
  7250     0B39                     u3421:
  7251     0B39  2B69               	goto	l3854
  7252     0B3A                     u3420:
  7253     0B3A                     l3838:
  7254     0B3A  01F6               	clrf	___awmod@counter
  7255     0B3B  0AF6               	incf	___awmod@counter,f
  7256     0B3C  2B48               	goto	l3844
  7257     0B3D                     l3840:
  7258     0B3D  3001               	movlw	1
  7259     0B3E                     u3435:
  7260     0B3E  1003               	clrc
  7261     0B3F  0DF2               	rlf	___awmod@divisor,f
  7262     0B40  0DF3               	rlf	___awmod@divisor+1,f
  7263     0B41  3EFF               	addlw	-1
  7264     0B42  1D03               	skipz
  7265     0B43  2B3E               	goto	u3435
  7266     0B44                     l3842:
  7267     0B44  3001               	movlw	1
  7268     0B45  00FF               	movwf	btemp+1
  7269     0B46  087F               	movf	btemp+1,w
  7270     0B47  07F6               	addwf	___awmod@counter,f
  7271     0B48                     l3844:
  7272     0B48  1FF3               	btfss	___awmod@divisor+1,7
  7273     0B49  2B4B               	goto	u3441
  7274     0B4A  2B4C               	goto	u3440
  7275     0B4B                     u3441:
  7276     0B4B  2B3D               	goto	l3840
  7277     0B4C                     u3440:
  7278     0B4C                     l3846:
  7279     0B4C  0873               	movf	___awmod@divisor+1,w
  7280     0B4D  0275               	subwf	___awmod@dividend+1,w
  7281     0B4E  1D03               	skipz
  7282     0B4F  2B52               	goto	u3455
  7283     0B50  0872               	movf	___awmod@divisor,w
  7284     0B51  0274               	subwf	___awmod@dividend,w
  7285     0B52                     u3455:
  7286     0B52  1C03               	skipc
  7287     0B53  2B55               	goto	u3451
  7288     0B54  2B56               	goto	u3450
  7289     0B55                     u3451:
  7290     0B55  2B5C               	goto	l3850
  7291     0B56                     u3450:
  7292     0B56                     l3848:
  7293     0B56  0872               	movf	___awmod@divisor,w
  7294     0B57  02F4               	subwf	___awmod@dividend,f
  7295     0B58  0873               	movf	___awmod@divisor+1,w
  7296     0B59  1C03               	skipc
  7297     0B5A  03F5               	decf	___awmod@dividend+1,f
  7298     0B5B  02F5               	subwf	___awmod@dividend+1,f
  7299     0B5C                     l3850:
  7300     0B5C  3001               	movlw	1
  7301     0B5D                     u3465:
  7302     0B5D  1003               	clrc
  7303     0B5E  0CF3               	rrf	___awmod@divisor+1,f
  7304     0B5F  0CF2               	rrf	___awmod@divisor,f
  7305     0B60  3EFF               	addlw	-1
  7306     0B61  1D03               	skipz
  7307     0B62  2B5D               	goto	u3465
  7308     0B63                     l3852:
  7309     0B63  3001               	movlw	1
  7310     0B64  02F6               	subwf	___awmod@counter,f
  7311     0B65  1D03               	btfss	3,2
  7312     0B66  2B68               	goto	u3471
  7313     0B67  2B69               	goto	u3470
  7314     0B68                     u3471:
  7315     0B68  2B4C               	goto	l3846
  7316     0B69                     u3470:
  7317     0B69                     l3854:
  7318     0B69  0877               	movf	___awmod@sign,w
  7319     0B6A  1903               	btfsc	3,2
  7320     0B6B  2B6D               	goto	u3481
  7321     0B6C  2B6E               	goto	u3480
  7322     0B6D                     u3481:
  7323     0B6D  2B73               	goto	l3858
  7324     0B6E                     u3480:
  7325     0B6E                     l3856:
  7326     0B6E  09F4               	comf	___awmod@dividend,f
  7327     0B6F  09F5               	comf	___awmod@dividend+1,f
  7328     0B70  0AF4               	incf	___awmod@dividend,f
  7329     0B71  1903               	skipnz
  7330     0B72  0AF5               	incf	___awmod@dividend+1,f
  7331     0B73                     l3858:
  7332     0B73  0875               	movf	___awmod@dividend+1,w
  7333     0B74  00F3               	movwf	?___awmod+1
  7334     0B75  0874               	movf	___awmod@dividend,w
  7335     0B76  00F2               	movwf	?___awmod
  7336     0B77                     l793:
  7337     0B77  0008               	return
  7338     0B78                     __end_of___awmod:
  7339                           
  7340                           	psect	text31
  7341     0BDB                     __ptext31:	
  7342 ;; *************** function ___awdiv *****************
  7343 ;; Defined at:
  7344 ;;		line 5 in file "C:\Program Files\Microchip\xc8\v2.46\pic\sources\c99\common\awdiv.c"
  7345 ;; Parameters:    Size  Location     Type
  7346 ;;  divisor         2    2[COMMON] int 
  7347 ;;  dividend        2    4[COMMON] int 
  7348 ;; Auto vars:     Size  Location     Type
  7349 ;;  quotient        2    8[COMMON] int 
  7350 ;;  sign            1    7[COMMON] unsigned char 
  7351 ;;  counter         1    6[COMMON] unsigned char 
  7352 ;; Return value:  Size  Location     Type
  7353 ;;                  2    2[COMMON] int 
  7354 ;; Registers used:
  7355 ;;		wreg, status,2, status,0, btemp+1
  7356 ;; Tracked objects:
  7357 ;;		On entry : 0/0
  7358 ;;		On exit  : 0/0
  7359 ;;		Unchanged: 0/0
  7360 ;; Data sizes:     COMMON   BANK0   BANK1   BANK3   BANK2
  7361 ;;      Params:         4       0       0       0       0
  7362 ;;      Locals:         4       0       0       0       0
  7363 ;;      Temps:          0       0       0       0       0
  7364 ;;      Totals:         8       0       0       0       0
  7365 ;;Total ram usage:        8 bytes
  7366 ;; Hardware stack levels used: 1
  7367 ;; Hardware stack levels required when called: 1
  7368 ;; This function calls:
  7369 ;;		Nothing
  7370 ;; This function is called by:
  7371 ;;		_display_dashboard
  7372 ;;		_log_car_event
  7373 ;;		_login
  7374 ;; This function uses a non-reentrant model
  7375 ;;
  7376                           
  7377     0BDB                     ___awdiv:	
  7378                           ;psect for function ___awdiv
  7379                           
  7380     0BDB                     l3780:	
  7381                           ;incstack = 0
  7382                           ; Regs used in ___awdiv: [wreg+status,2+status,0+btemp+1]
  7383                           
  7384     0BDB  01F7               	clrf	___awdiv@sign
  7385     0BDC                     l3782:
  7386     0BDC  1FF3               	btfss	___awdiv@divisor+1,7
  7387     0BDD  2BDF               	goto	u3301
  7388     0BDE  2BE0               	goto	u3300
  7389     0BDF                     u3301:
  7390     0BDF  2BE7               	goto	l3788
  7391     0BE0                     u3300:
  7392     0BE0                     l3784:
  7393     0BE0  09F2               	comf	___awdiv@divisor,f
  7394     0BE1  09F3               	comf	___awdiv@divisor+1,f
  7395     0BE2  0AF2               	incf	___awdiv@divisor,f
  7396     0BE3  1903               	skipnz
  7397     0BE4  0AF3               	incf	___awdiv@divisor+1,f
  7398     0BE5                     l3786:
  7399     0BE5  01F7               	clrf	___awdiv@sign
  7400     0BE6  0AF7               	incf	___awdiv@sign,f
  7401     0BE7                     l3788:
  7402     0BE7  1FF5               	btfss	___awdiv@dividend+1,7
  7403     0BE8  2BEA               	goto	u3311
  7404     0BE9  2BEB               	goto	u3310
  7405     0BEA                     u3311:
  7406     0BEA  2BF4               	goto	l3794
  7407     0BEB                     u3310:
  7408     0BEB                     l3790:
  7409     0BEB  09F4               	comf	___awdiv@dividend,f
  7410     0BEC  09F5               	comf	___awdiv@dividend+1,f
  7411     0BED  0AF4               	incf	___awdiv@dividend,f
  7412     0BEE  1903               	skipnz
  7413     0BEF  0AF5               	incf	___awdiv@dividend+1,f
  7414     0BF0                     l3792:
  7415     0BF0  3001               	movlw	1
  7416     0BF1  00FF               	movwf	btemp+1
  7417     0BF2  087F               	movf	btemp+1,w
  7418     0BF3  06F7               	xorwf	___awdiv@sign,f
  7419     0BF4                     l3794:
  7420     0BF4  01F8               	clrf	___awdiv@quotient
  7421     0BF5  01F9               	clrf	___awdiv@quotient+1
  7422     0BF6                     l3796:
  7423     0BF6  0872               	movf	___awdiv@divisor,w
  7424     0BF7  0473               	iorwf	___awdiv@divisor+1,w
  7425     0BF8  1903               	btfsc	3,2
  7426     0BF9  2BFB               	goto	u3321
  7427     0BFA  2BFC               	goto	u3320
  7428     0BFB                     u3321:
  7429     0BFB  2C33               	goto	l3816
  7430     0BFC                     u3320:
  7431     0BFC                     l3798:
  7432     0BFC  01F6               	clrf	___awdiv@counter
  7433     0BFD  0AF6               	incf	___awdiv@counter,f
  7434     0BFE  2C0A               	goto	l3804
  7435     0BFF                     l3800:
  7436     0BFF  3001               	movlw	1
  7437     0C00                     u3335:
  7438     0C00  1003               	clrc
  7439     0C01  0DF2               	rlf	___awdiv@divisor,f
  7440     0C02  0DF3               	rlf	___awdiv@divisor+1,f
  7441     0C03  3EFF               	addlw	-1
  7442     0C04  1D03               	skipz
  7443     0C05  2C00               	goto	u3335
  7444     0C06                     l3802:
  7445     0C06  3001               	movlw	1
  7446     0C07  00FF               	movwf	btemp+1
  7447     0C08  087F               	movf	btemp+1,w
  7448     0C09  07F6               	addwf	___awdiv@counter,f
  7449     0C0A                     l3804:
  7450     0C0A  1FF3               	btfss	___awdiv@divisor+1,7
  7451     0C0B  2C0D               	goto	u3341
  7452     0C0C  2C0E               	goto	u3340
  7453     0C0D                     u3341:
  7454     0C0D  2BFF               	goto	l3800
  7455     0C0E                     u3340:
  7456     0C0E                     l3806:
  7457     0C0E  3001               	movlw	1
  7458     0C0F                     u3355:
  7459     0C0F  1003               	clrc
  7460     0C10  0DF8               	rlf	___awdiv@quotient,f
  7461     0C11  0DF9               	rlf	___awdiv@quotient+1,f
  7462     0C12  3EFF               	addlw	-1
  7463     0C13  1D03               	skipz
  7464     0C14  2C0F               	goto	u3355
  7465     0C15  0873               	movf	___awdiv@divisor+1,w
  7466     0C16  0275               	subwf	___awdiv@dividend+1,w
  7467     0C17  1D03               	skipz
  7468     0C18  2C1B               	goto	u3365
  7469     0C19  0872               	movf	___awdiv@divisor,w
  7470     0C1A  0274               	subwf	___awdiv@dividend,w
  7471     0C1B                     u3365:
  7472     0C1B  1C03               	skipc
  7473     0C1C  2C1E               	goto	u3361
  7474     0C1D  2C1F               	goto	u3360
  7475     0C1E                     u3361:
  7476     0C1E  2C26               	goto	l3812
  7477     0C1F                     u3360:
  7478     0C1F                     l3808:
  7479     0C1F  0872               	movf	___awdiv@divisor,w
  7480     0C20  02F4               	subwf	___awdiv@dividend,f
  7481     0C21  0873               	movf	___awdiv@divisor+1,w
  7482     0C22  1C03               	skipc
  7483     0C23  03F5               	decf	___awdiv@dividend+1,f
  7484     0C24  02F5               	subwf	___awdiv@dividend+1,f
  7485     0C25                     l3810:
  7486     0C25  1478               	bsf	___awdiv@quotient,0
  7487     0C26                     l3812:
  7488     0C26  3001               	movlw	1
  7489     0C27                     u3375:
  7490     0C27  1003               	clrc
  7491     0C28  0CF3               	rrf	___awdiv@divisor+1,f
  7492     0C29  0CF2               	rrf	___awdiv@divisor,f
  7493     0C2A  3EFF               	addlw	-1
  7494     0C2B  1D03               	skipz
  7495     0C2C  2C27               	goto	u3375
  7496     0C2D                     l3814:
  7497     0C2D  3001               	movlw	1
  7498     0C2E  02F6               	subwf	___awdiv@counter,f
  7499     0C2F  1D03               	btfss	3,2
  7500     0C30  2C32               	goto	u3381
  7501     0C31  2C33               	goto	u3380
  7502     0C32                     u3381:
  7503     0C32  2C0E               	goto	l3806
  7504     0C33                     u3380:
  7505     0C33                     l3816:
  7506     0C33  0877               	movf	___awdiv@sign,w
  7507     0C34  1903               	btfsc	3,2
  7508     0C35  2C37               	goto	u3391
  7509     0C36  2C38               	goto	u3390
  7510     0C37                     u3391:
  7511     0C37  2C3D               	goto	l3820
  7512     0C38                     u3390:
  7513     0C38                     l3818:
  7514     0C38  09F8               	comf	___awdiv@quotient,f
  7515     0C39  09F9               	comf	___awdiv@quotient+1,f
  7516     0C3A  0AF8               	incf	___awdiv@quotient,f
  7517     0C3B  1903               	skipnz
  7518     0C3C  0AF9               	incf	___awdiv@quotient+1,f
  7519     0C3D                     l3820:
  7520     0C3D  0879               	movf	___awdiv@quotient+1,w
  7521     0C3E  00F3               	movwf	?___awdiv+1
  7522     0C3F  0878               	movf	___awdiv@quotient,w
  7523     0C40  00F2               	movwf	?___awdiv
  7524     0C41                     l780:
  7525     0C41  0008               	return
  7526     0C42                     __end_of___awdiv:
  7527                           
  7528                           	psect	text32
  7529     157B                     __ptext32:	
  7530 ;; *************** function _clear_log *****************
  7531 ;; Defined at:
  7532 ;;		line 328 in file "car_black_box.c"
  7533 ;; Parameters:    Size  Location     Type
  7534 ;;		None
  7535 ;; Auto vars:     Size  Location     Type
  7536 ;;		None
  7537 ;; Return value:  Size  Location     Type
  7538 ;;                  1    wreg      void 
  7539 ;; Registers used:
  7540 ;;		wreg, fsr0l, fsr0h, status,2, status,0, btemp+1, pclath, cstack
  7541 ;; Tracked objects:
  7542 ;;		On entry : 0/0
  7543 ;;		On exit  : 0/0
  7544 ;;		Unchanged: 0/0
  7545 ;; Data sizes:     COMMON   BANK0   BANK1   BANK3   BANK2
  7546 ;;      Params:         0       0       0       0       0
  7547 ;;      Locals:         0       0       0       0       0
  7548 ;;      Temps:          0       3       0       0       0
  7549 ;;      Totals:         0       3       0       0       0
  7550 ;;Total ram usage:        3 bytes
  7551 ;; Hardware stack levels used: 1
  7552 ;; Hardware stack levels required when called: 3
  7553 ;; This function calls:
  7554 ;;		_clcd_print
  7555 ;;		_clear_screen
  7556 ;; This function is called by:
  7557 ;;		_main
  7558 ;; This function uses a non-reentrant model
  7559 ;;
  7560                           
  7561     157B                     _clear_log:	
  7562                           ;psect for function _clear_log
  7563                           
  7564     157B                     l4088:	
  7565                           ;incstack = 0
  7566                           ; Regs used in _clear_log: [wreg-fsr0h+status,2+status,0+btemp+1+pclath+cstack]
  7567                           
  7568                           
  7569                           ;car_black_box.c: 330:     pos = -1;
  7570     157B  30FF               	movlw	255
  7571     157C  00FA               	movwf	_pos
  7572     157D  30FF               	movlw	255
  7573     157E  00FB               	movwf	_pos+1
  7574     157F                     l4090:
  7575                           
  7576                           ;car_black_box.c: 331:     roll_over_flag = 0;
  7577     157F  1283               	bcf	3,5	;RP0=0, select bank0
  7578     1580  1303               	bcf	3,6	;RP1=0, select bank0
  7579     1581  01DC               	clrf	_roll_over_flag
  7580     1582  01DD               	clrf	_roll_over_flag+1
  7581     1583                     l4092:
  7582                           
  7583                           ;car_black_box.c: 332:     clcd_print("  logs cleared  ", (0x80 + 0));
  7584     1583  3058               	movlw	low (STR_17| (0+32768))
  7585     1584  00F6               	movwf	clcd_print@str
  7586     1585  3088               	movlw	high (STR_17| (0+32768))
  7587     1586  00F7               	movwf	clcd_print@str+1
  7588     1587  3080               	movlw	128
  7589     1588  00F8               	movwf	clcd_print@addr
  7590     1589  160A  118A  267C  160A  118A  	fcall	_clcd_print
  7591     158E                     l4094:
  7592                           
  7593                           ;car_black_box.c: 333:     _delay((unsigned long)((2000)*(20000000/4000.0)));
  7594     158E  3033               	movlw	51
  7595     158F  1283               	bcf	3,5	;RP0=0, select bank0
  7596     1590  1303               	bcf	3,6	;RP1=0, select bank0
  7597     1591  00A2               	movwf	??_clear_log+2
  7598     1592  30BB               	movlw	187
  7599     1593  00A1               	movwf	??_clear_log+1
  7600     1594  30DF               	movlw	223
  7601     1595  00A0               	movwf	??_clear_log
  7602     1596                     u4257:
  7603     1596  0BA0               	decfsz	??_clear_log,f
  7604     1597  2D96               	goto	u4257
  7605     1598  0BA1               	decfsz	??_clear_log+1,f
  7606     1599  2D96               	goto	u4257
  7607     159A  0BA2               	decfsz	??_clear_log+2,f
  7608     159B  2D96               	goto	u4257
  7609     159C                     l4096:
  7610                           
  7611                           ;car_black_box.c: 334:     clear_screen();
  7612     159C  160A  118A  2424  160A  118A  	fcall	_clear_screen
  7613     15A1                     l149:
  7614     15A1  0008               	return
  7615     15A2                     __end_of_clear_log:
  7616                           
  7617                           	psect	text33
  7618     1424                     __ptext33:	
  7619 ;; *************** function _clear_screen *****************
  7620 ;; Defined at:
  7621 ;;		line 160 in file "car_black_box.c"
  7622 ;; Parameters:    Size  Location     Type
  7623 ;;		None
  7624 ;; Auto vars:     Size  Location     Type
  7625 ;;		None
  7626 ;; Return value:  Size  Location     Type
  7627 ;;                  1    wreg      void 
  7628 ;; Registers used:
  7629 ;;		wreg, status,2, status,0, pclath, cstack
  7630 ;; Tracked objects:
  7631 ;;		On entry : 0/0
  7632 ;;		On exit  : 0/0
  7633 ;;		Unchanged: 0/0
  7634 ;; Data sizes:     COMMON   BANK0   BANK1   BANK3   BANK2
  7635 ;;      Params:         0       0       0       0       0
  7636 ;;      Locals:         0       0       0       0       0
  7637 ;;      Temps:          2       0       0       0       0
  7638 ;;      Totals:         2       0       0       0       0
  7639 ;;Total ram usage:        2 bytes
  7640 ;; Hardware stack levels used: 1
  7641 ;; Hardware stack levels required when called: 2
  7642 ;; This function calls:
  7643 ;;		_clcd_write
  7644 ;; This function is called by:
  7645 ;;		_menu_screen
  7646 ;;		_login
  7647 ;;		_display_logs
  7648 ;;		_clear_log
  7649 ;;		_main
  7650 ;; This function uses a non-reentrant model
  7651 ;;
  7652                           
  7653     1424                     _clear_screen:	
  7654                           ;psect for function _clear_screen
  7655                           
  7656     1424                     l3622:	
  7657                           ;incstack = 0
  7658                           ; Regs used in _clear_screen: [wreg+status,2+status,0+pclath+cstack]
  7659                           
  7660                           
  7661                           ;car_black_box.c: 161:     clcd_write(0x01, 0);
  7662     1424  01F2               	clrf	clcd_write@mode
  7663     1425  3001               	movlw	1
  7664     1426  160A  118A  270F  160A  118A  	fcall	_clcd_write
  7665     142B                     l3624:
  7666                           
  7667                           ;car_black_box.c: 162:     _delay((unsigned long)((500)*(20000000/4000000.0)));
  7668     142B  3004               	movlw	4
  7669     142C  00F7               	movwf	??_clear_screen+1
  7670     142D  303D               	movlw	61
  7671     142E  00F6               	movwf	??_clear_screen
  7672     142F                     u4267:
  7673     142F  0BF6               	decfsz	??_clear_screen,f
  7674     1430  2C2F               	goto	u4267
  7675     1431  0BF7               	decfsz	??_clear_screen+1,f
  7676     1432  2C2F               	goto	u4267
  7677     1433  2C34               	nop2
  7678     1434                     l97:
  7679     1434  0008               	return
  7680     1435                     __end_of_clear_screen:
  7681                           
  7682                           	psect	text34
  7683     0049                     __ptext34:	
  7684 ;; *************** function _change_time *****************
  7685 ;; Defined at:
  7686 ;;		line 403 in file "car_black_box.c"
  7687 ;; Parameters:    Size  Location     Type
  7688 ;;  key             1    wreg     unsigned char 
  7689 ;;  reset_time      1    5[BANK0 ] unsigned char 
  7690 ;; Auto vars:     Size  Location     Type
  7691 ;;  key             1   10[BANK0 ] unsigned char 
  7692 ;;  buffer          1   11[BANK0 ] unsigned char 
  7693 ;; Return value:  Size  Location     Type
  7694 ;;                  2    5[BANK0 ] int 
  7695 ;; Registers used:
  7696 ;;		wreg, fsr0l, fsr0h, status,2, status,0, btemp+1, pclath, cstack
  7697 ;; Tracked objects:
  7698 ;;		On entry : 0/0
  7699 ;;		On exit  : 0/0
  7700 ;;		Unchanged: 0/0
  7701 ;; Data sizes:     COMMON   BANK0   BANK1   BANK3   BANK2
  7702 ;;      Params:         0       2       0       0       0
  7703 ;;      Locals:         0       2       0       0       0
  7704 ;;      Temps:          0       3       0       0       0
  7705 ;;      Totals:         0       7       0       0       0
  7706 ;;Total ram usage:        7 bytes
  7707 ;; Hardware stack levels used: 1
  7708 ;; Hardware stack levels required when called: 6
  7709 ;; This function calls:
  7710 ;;		___lwdiv
  7711 ;;		___lwmod
  7712 ;;		___wmul
  7713 ;;		_clcd_print
  7714 ;;		_clcd_putch
  7715 ;;		_clcd_write
  7716 ;;		_get_time
  7717 ;;		_write_ds1307
  7718 ;; This function is called by:
  7719 ;;		_main
  7720 ;; This function uses a non-reentrant model
  7721 ;;
  7722                           
  7723     0049                     _change_time:	
  7724                           ;psect for function _change_time
  7725                           
  7726                           
  7727                           ;incstack = 0
  7728                           ; Regs used in _change_time: [wreg-fsr0h+status,2+status,0+btemp+1+pclath+cstack]
  7729                           ;change_time@key stored from wreg
  7730     0049  1283               	bcf	3,5	;RP0=0, select bank0
  7731     004A  1303               	bcf	3,6	;RP1=0, select bank0
  7732     004B  00AA               	movwf	change_time@key
  7733     004C                     l4166:
  7734                           
  7735                           ;car_black_box.c: 403: int change_time(unsigned char key, unsigned char reset_time);car_
      +                          black_box.c: 404: {;car_black_box.c: 405:     static unsigned int new_time[3];;car_black
      +                          _box.c: 406:     static unsigned int blink_pos;;car_black_box.c: 407:     static unsigne
      +                          d char wait;;car_black_box.c: 408:     static unsigned char blink;;car_black_box.c: 409:
      +                               static char t_done = 0;;car_black_box.c: 410:     char buffer;;car_black_box.c: 412
      +                          :     if (reset_time == 0x0A)
  7736     004C  300A               	movlw	10
  7737     004D  0625               	xorwf	change_time@reset_time,w
  7738     004E  1D03               	btfss	3,2
  7739     004F  2851               	goto	u3821
  7740     0050  2852               	goto	u3820
  7741     0051                     u3821:
  7742     0051  28C9               	goto	l4182
  7743     0052                     u3820:
  7744     0052                     l4168:
  7745                           
  7746                           ;car_black_box.c: 413:     {;car_black_box.c: 414:         get_time();
  7747     0052  120A  158A  217E  120A  118A  	fcall	_get_time
  7748                           
  7749                           ;car_black_box.c: 417:         new_time[0] = (time[0] & 0x0F) * 10 + (time[1] & 0x0F);
  7750     0057  300F               	movlw	15
  7751     0058  1283               	bcf	3,5	;RP0=0, select bank0
  7752     0059  1303               	bcf	3,6	;RP1=0, select bank0
  7753     005A  0568               	andwf	_time+1,w
  7754     005B  00A7               	movwf	??_change_time
  7755     005C  0867               	movf	_time,w
  7756     005D  390F               	andlw	15
  7757     005E  00A8               	movwf	??_change_time+1
  7758     005F  01A9               	clrf	??_change_time+2
  7759     0060  0828               	movf	??_change_time+1,w
  7760     0061  00F2               	movwf	___wmul@multiplier
  7761     0062  0829               	movf	??_change_time+2,w
  7762     0063  00F3               	movwf	___wmul@multiplier+1
  7763     0064  300A               	movlw	10
  7764     0065  00F4               	movwf	___wmul@multiplicand
  7765     0066  3000               	movlw	0
  7766     0067  00F5               	movwf	___wmul@multiplicand+1
  7767     0068  160A  118A  2530  120A  118A  	fcall	___wmul
  7768     006D  1283               	bcf	3,5	;RP0=0, select bank0
  7769     006E  1303               	bcf	3,6	;RP1=0, select bank0
  7770     006F  0827               	movf	??_change_time,w
  7771     0070  0772               	addwf	?___wmul,w
  7772     0071  00CB               	movwf	change_time@new_time
  7773     0072  3000               	movlw	0
  7774     0073  1803               	skipnc
  7775     0074  3001               	movlw	1
  7776     0075  0773               	addwf	?___wmul+1,w
  7777     0076  00CC               	movwf	change_time@new_time+1
  7778                           
  7779                           ;car_black_box.c: 420:         new_time[1] = (time[2] & 0x0F) * 10 + (time[3] & 0x0F);
  7780     0077  300F               	movlw	15
  7781     0078  056A               	andwf	_time+3,w
  7782     0079  00A7               	movwf	??_change_time
  7783     007A  0869               	movf	_time+2,w
  7784     007B  390F               	andlw	15
  7785     007C  00A8               	movwf	??_change_time+1
  7786     007D  01A9               	clrf	??_change_time+2
  7787     007E  0828               	movf	??_change_time+1,w
  7788     007F  00F2               	movwf	___wmul@multiplier
  7789     0080  0829               	movf	??_change_time+2,w
  7790     0081  00F3               	movwf	___wmul@multiplier+1
  7791     0082  300A               	movlw	10
  7792     0083  00F4               	movwf	___wmul@multiplicand
  7793     0084  3000               	movlw	0
  7794     0085  00F5               	movwf	___wmul@multiplicand+1
  7795     0086  160A  118A  2530  120A  118A  	fcall	___wmul
  7796     008B  1283               	bcf	3,5	;RP0=0, select bank0
  7797     008C  1303               	bcf	3,6	;RP1=0, select bank0
  7798     008D  0827               	movf	??_change_time,w
  7799     008E  0772               	addwf	?___wmul,w
  7800     008F  00CD               	movwf	change_time@new_time+2
  7801     0090  3000               	movlw	0
  7802     0091  1803               	skipnc
  7803     0092  3001               	movlw	1
  7804     0093  0773               	addwf	?___wmul+1,w
  7805     0094  00CE               	movwf	change_time@new_time+3
  7806                           
  7807                           ;car_black_box.c: 423:         new_time[2] = (time[4] & 0x0F) * 10 + (time[5] & 0x0F);
  7808     0095  300F               	movlw	15
  7809     0096  056C               	andwf	_time+5,w
  7810     0097  00A7               	movwf	??_change_time
  7811     0098  086B               	movf	_time+4,w
  7812     0099  390F               	andlw	15
  7813     009A  00A8               	movwf	??_change_time+1
  7814     009B  01A9               	clrf	??_change_time+2
  7815     009C  0828               	movf	??_change_time+1,w
  7816     009D  00F2               	movwf	___wmul@multiplier
  7817     009E  0829               	movf	??_change_time+2,w
  7818     009F  00F3               	movwf	___wmul@multiplier+1
  7819     00A0  300A               	movlw	10
  7820     00A1  00F4               	movwf	___wmul@multiplicand
  7821     00A2  3000               	movlw	0
  7822     00A3  00F5               	movwf	___wmul@multiplicand+1
  7823     00A4  160A  118A  2530  120A  118A  	fcall	___wmul
  7824     00A9  1283               	bcf	3,5	;RP0=0, select bank0
  7825     00AA  1303               	bcf	3,6	;RP1=0, select bank0
  7826     00AB  0827               	movf	??_change_time,w
  7827     00AC  0772               	addwf	?___wmul,w
  7828     00AD  00CF               	movwf	change_time@new_time+4
  7829     00AE  3000               	movlw	0
  7830     00AF  1803               	skipnc
  7831     00B0  3001               	movlw	1
  7832     00B1  0773               	addwf	?___wmul+1,w
  7833     00B2  00D0               	movwf	change_time@new_time+5
  7834     00B3                     l4170:
  7835                           
  7836                           ;car_black_box.c: 425:         clcd_print("Time (HH:MM:SS)", (0x80 + 0));
  7837     00B3  308B               	movlw	low (STR_24| (0+32768))
  7838     00B4  00F6               	movwf	clcd_print@str
  7839     00B5  3088               	movlw	high (STR_24| (0+32768))
  7840     00B6  00F7               	movwf	clcd_print@str+1
  7841     00B7  3080               	movlw	128
  7842     00B8  00F8               	movwf	clcd_print@addr
  7843     00B9  160A  118A  267C  120A  118A  	fcall	_clcd_print
  7844     00BE                     l4172:
  7845                           
  7846                           ;car_black_box.c: 427:         blink_pos = 2;
  7847     00BE  3002               	movlw	2
  7848     00BF  1283               	bcf	3,5	;RP0=0, select bank0
  7849     00C0  1303               	bcf	3,6	;RP1=0, select bank0
  7850     00C1  00D8               	movwf	change_time@blink_pos
  7851     00C2  3000               	movlw	0
  7852     00C3  00D9               	movwf	change_time@blink_pos+1
  7853     00C4                     l4174:
  7854                           
  7855                           ;car_black_box.c: 428:         wait = 0;
  7856     00C4  01E0               	clrf	change_time@wait
  7857     00C5                     l4176:
  7858                           
  7859                           ;car_black_box.c: 429:         blink = 0;
  7860     00C5  01DF               	clrf	change_time@blink
  7861     00C6                     l4178:
  7862                           
  7863                           ;car_black_box.c: 430:         t_done = 0;
  7864     00C6  01DE               	clrf	change_time@t_done
  7865     00C7                     l4180:
  7866                           
  7867                           ;car_black_box.c: 431:         key = 0x3F;
  7868     00C7  303F               	movlw	63
  7869     00C8  00AA               	movwf	change_time@key
  7870     00C9                     l4182:
  7871                           
  7872                           ;car_black_box.c: 434:     if (t_done)
  7873     00C9  085E               	movf	change_time@t_done,w
  7874     00CA  1903               	btfsc	3,2
  7875     00CB  28CD               	goto	u3831
  7876     00CC  28CE               	goto	u3830
  7877     00CD                     u3831:
  7878     00CD  29E9               	goto	l4226
  7879     00CE                     u3830:
  7880     00CE                     l4184:
  7881                           
  7882                           ;car_black_box.c: 435:         return 0x2F;
  7883     00CE  302F               	movlw	47
  7884     00CF  1283               	bcf	3,5	;RP0=0, select bank0
  7885     00D0  1303               	bcf	3,6	;RP1=0, select bank0
  7886     00D1  00A5               	movwf	?_change_time
  7887     00D2  3000               	movlw	0
  7888     00D3  00A6               	movwf	?_change_time+1
  7889     00D4  2B16               	goto	l174
  7890     00D5                     l4188:
  7891                           
  7892                           ;car_black_box.c: 440:             new_time[blink_pos]++;
  7893     00D5  0858               	movf	change_time@blink_pos,w
  7894     00D6  00A7               	movwf	??_change_time
  7895     00D7  0727               	addwf	??_change_time,w
  7896     00D8  3E4B               	addlw	(low (change_time@new_time| 0))& (0+255)
  7897     00D9  0084               	movwf	4
  7898     00DA  3001               	movlw	1
  7899     00DB  1383               	bcf	3,7	;select IRP bank0
  7900     00DC  0780               	addwf	0,f
  7901     00DD  0A84               	incf	4,f
  7902     00DE  1803               	skipnc
  7903     00DF  0A80               	incf	0,f
  7904                           
  7905                           ;car_black_box.c: 441:             break;
  7906     00E0  29F4               	goto	l4228
  7907     00E1                     l4190:
  7908                           
  7909                           ;car_black_box.c: 444:             blink_pos = (blink_pos + 1) % 3;
  7910     00E1  3003               	movlw	3
  7911     00E2  00F2               	movwf	___lwmod@divisor
  7912     00E3  3000               	movlw	0
  7913     00E4  00F3               	movwf	___lwmod@divisor+1
  7914     00E5  0858               	movf	change_time@blink_pos,w
  7915     00E6  3E01               	addlw	1
  7916     00E7  00F4               	movwf	___lwmod@dividend
  7917     00E8  0859               	movf	change_time@blink_pos+1,w
  7918     00E9  1803               	skipnc
  7919     00EA  3E01               	addlw	1
  7920     00EB  3E00               	addlw	0
  7921     00EC  00F5               	movwf	___lwmod@dividend+1
  7922     00ED  160A  118A  2745  120A  118A  	fcall	___lwmod
  7923     00F2  0873               	movf	?___lwmod+1,w
  7924     00F3  1283               	bcf	3,5	;RP0=0, select bank0
  7925     00F4  1303               	bcf	3,6	;RP1=0, select bank0
  7926     00F5  00D9               	movwf	change_time@blink_pos+1
  7927     00F6  0872               	movf	?___lwmod,w
  7928     00F7  00D8               	movwf	change_time@blink_pos
  7929                           
  7930                           ;car_black_box.c: 445:             break;
  7931     00F8  29F4               	goto	l4228
  7932     00F9                     l4192:
  7933                           
  7934                           ;car_black_box.c: 449:             get_time();
  7935     00F9  120A  158A  217E  120A  118A  	fcall	_get_time
  7936     00FE                     l4194:
  7937                           
  7938                           ;car_black_box.c: 451:             buffer = ((new_time[0] / 10) << 4) | new_time[0] % 10
      +                          ;
  7939     00FE  300A               	movlw	10
  7940     00FF  00F2               	movwf	___lwmod@divisor
  7941     0100  3000               	movlw	0
  7942     0101  00F3               	movwf	___lwmod@divisor+1
  7943     0102  1283               	bcf	3,5	;RP0=0, select bank0
  7944     0103  1303               	bcf	3,6	;RP1=0, select bank0
  7945     0104  084C               	movf	change_time@new_time+1,w
  7946     0105  00F5               	movwf	___lwmod@dividend+1
  7947     0106  084B               	movf	change_time@new_time,w
  7948     0107  00F4               	movwf	___lwmod@dividend
  7949     0108  160A  118A  2745  120A  118A  	fcall	___lwmod
  7950     010D  0872               	movf	?___lwmod,w
  7951     010E  1283               	bcf	3,5	;RP0=0, select bank0
  7952     010F  1303               	bcf	3,6	;RP1=0, select bank0
  7953     0110  00A7               	movwf	??_change_time
  7954     0111  0873               	movf	?___lwmod+1,w
  7955     0112  00A8               	movwf	??_change_time+1
  7956     0113  300A               	movlw	10
  7957     0114  00F6               	movwf	___lwdiv@divisor
  7958     0115  3000               	movlw	0
  7959     0116  00F7               	movwf	___lwdiv@divisor+1
  7960     0117  084C               	movf	change_time@new_time+1,w
  7961     0118  00F9               	movwf	___lwdiv@dividend+1
  7962     0119  084B               	movf	change_time@new_time,w
  7963     011A  00F8               	movwf	___lwdiv@dividend
  7964     011B  160A  118A  27BA  120A  118A  	fcall	___lwdiv
  7965     0120  0876               	movf	?___lwdiv,w
  7966     0121  1283               	bcf	3,5	;RP0=0, select bank0
  7967     0122  1303               	bcf	3,6	;RP1=0, select bank0
  7968     0123  00A9               	movwf	??_change_time+2
  7969     0124  3003               	movlw	3
  7970     0125                     u3845:
  7971     0125  1003               	clrc
  7972     0126  0DA9               	rlf	??_change_time+2,f
  7973     0127  3EFF               	addlw	-1
  7974     0128  1D03               	skipz
  7975     0129  2925               	goto	u3845
  7976     012A  1003               	clrc
  7977     012B  0D29               	rlf	??_change_time+2,w
  7978     012C  0427               	iorwf	??_change_time,w
  7979     012D  00AB               	movwf	change_time@buffer
  7980     012E                     l4196:
  7981                           
  7982                           ;car_black_box.c: 452:             clock_reg[0] = (clock_reg[0] & 0xC0) | buffer;
  7983     012E  0851               	movf	_clock_reg,w
  7984     012F  39C0               	andlw	192
  7985     0130  042B               	iorwf	change_time@buffer,w
  7986     0131  00D1               	movwf	_clock_reg
  7987     0132                     l4198:
  7988                           
  7989                           ;car_black_box.c: 453:             write_ds1307(0x02, clock_reg[0]);
  7990     0132  0851               	movf	_clock_reg,w
  7991     0133  00F3               	movwf	write_ds1307@data
  7992     0134  3002               	movlw	2
  7993     0135  160A  118A  24B0  120A  118A  	fcall	_write_ds1307
  7994     013A                     l4200:
  7995                           
  7996                           ;car_black_box.c: 456:             buffer = ((new_time[1] / 10) << 4) | new_time[1] % 10
      +                          ;
  7997     013A  300A               	movlw	10
  7998     013B  00F2               	movwf	___lwmod@divisor
  7999     013C  3000               	movlw	0
  8000     013D  00F3               	movwf	___lwmod@divisor+1
  8001     013E  1283               	bcf	3,5	;RP0=0, select bank0
  8002     013F  1303               	bcf	3,6	;RP1=0, select bank0
  8003     0140  084E               	movf	change_time@new_time+3,w
  8004     0141  00F5               	movwf	___lwmod@dividend+1
  8005     0142  084D               	movf	change_time@new_time+2,w
  8006     0143  00F4               	movwf	___lwmod@dividend
  8007     0144  160A  118A  2745  120A  118A  	fcall	___lwmod
  8008     0149  0872               	movf	?___lwmod,w
  8009     014A  1283               	bcf	3,5	;RP0=0, select bank0
  8010     014B  1303               	bcf	3,6	;RP1=0, select bank0
  8011     014C  00A7               	movwf	??_change_time
  8012     014D  0873               	movf	?___lwmod+1,w
  8013     014E  00A8               	movwf	??_change_time+1
  8014     014F  300A               	movlw	10
  8015     0150  00F6               	movwf	___lwdiv@divisor
  8016     0151  3000               	movlw	0
  8017     0152  00F7               	movwf	___lwdiv@divisor+1
  8018     0153  084E               	movf	change_time@new_time+3,w
  8019     0154  00F9               	movwf	___lwdiv@dividend+1
  8020     0155  084D               	movf	change_time@new_time+2,w
  8021     0156  00F8               	movwf	___lwdiv@dividend
  8022     0157  160A  118A  27BA  120A  118A  	fcall	___lwdiv
  8023     015C  0876               	movf	?___lwdiv,w
  8024     015D  1283               	bcf	3,5	;RP0=0, select bank0
  8025     015E  1303               	bcf	3,6	;RP1=0, select bank0
  8026     015F  00A9               	movwf	??_change_time+2
  8027     0160  3003               	movlw	3
  8028     0161                     u3855:
  8029     0161  1003               	clrc
  8030     0162  0DA9               	rlf	??_change_time+2,f
  8031     0163  3EFF               	addlw	-1
  8032     0164  1D03               	skipz
  8033     0165  2961               	goto	u3855
  8034     0166  1003               	clrc
  8035     0167  0D29               	rlf	??_change_time+2,w
  8036     0168  0427               	iorwf	??_change_time,w
  8037     0169  00AB               	movwf	change_time@buffer
  8038                           
  8039                           ;car_black_box.c: 457:             clock_reg[1] = (clock_reg[1] & 0x80) | buffer;
  8040     016A  0852               	movf	_clock_reg+1,w
  8041     016B  3980               	andlw	128
  8042     016C  042B               	iorwf	change_time@buffer,w
  8043     016D  00D2               	movwf	_clock_reg+1
  8044     016E                     l4202:
  8045                           
  8046                           ;car_black_box.c: 458:             write_ds1307(0x01, clock_reg[1]);
  8047     016E  0852               	movf	_clock_reg+1,w
  8048     016F  00F3               	movwf	write_ds1307@data
  8049     0170  3001               	movlw	1
  8050     0171  160A  118A  24B0  120A  118A  	fcall	_write_ds1307
  8051     0176                     l4204:
  8052                           
  8053                           ;car_black_box.c: 461:             buffer = ((new_time[2] / 10) << 4) | new_time[2] % 10
      +                          ;
  8054     0176  300A               	movlw	10
  8055     0177  00F2               	movwf	___lwmod@divisor
  8056     0178  3000               	movlw	0
  8057     0179  00F3               	movwf	___lwmod@divisor+1
  8058     017A  1283               	bcf	3,5	;RP0=0, select bank0
  8059     017B  1303               	bcf	3,6	;RP1=0, select bank0
  8060     017C  0850               	movf	change_time@new_time+5,w
  8061     017D  00F5               	movwf	___lwmod@dividend+1
  8062     017E  084F               	movf	change_time@new_time+4,w
  8063     017F  00F4               	movwf	___lwmod@dividend
  8064     0180  160A  118A  2745  120A  118A  	fcall	___lwmod
  8065     0185  0872               	movf	?___lwmod,w
  8066     0186  1283               	bcf	3,5	;RP0=0, select bank0
  8067     0187  1303               	bcf	3,6	;RP1=0, select bank0
  8068     0188  00A7               	movwf	??_change_time
  8069     0189  0873               	movf	?___lwmod+1,w
  8070     018A  00A8               	movwf	??_change_time+1
  8071     018B  300A               	movlw	10
  8072     018C  00F6               	movwf	___lwdiv@divisor
  8073     018D  3000               	movlw	0
  8074     018E  00F7               	movwf	___lwdiv@divisor+1
  8075     018F  0850               	movf	change_time@new_time+5,w
  8076     0190  00F9               	movwf	___lwdiv@dividend+1
  8077     0191  084F               	movf	change_time@new_time+4,w
  8078     0192  00F8               	movwf	___lwdiv@dividend
  8079     0193  160A  118A  27BA  120A  118A  	fcall	___lwdiv
  8080     0198  0876               	movf	?___lwdiv,w
  8081     0199  1283               	bcf	3,5	;RP0=0, select bank0
  8082     019A  1303               	bcf	3,6	;RP1=0, select bank0
  8083     019B  00A9               	movwf	??_change_time+2
  8084     019C  3003               	movlw	3
  8085     019D                     u3865:
  8086     019D  1003               	clrc
  8087     019E  0DA9               	rlf	??_change_time+2,f
  8088     019F  3EFF               	addlw	-1
  8089     01A0  1D03               	skipz
  8090     01A1  299D               	goto	u3865
  8091     01A2  1003               	clrc
  8092     01A3  0D29               	rlf	??_change_time+2,w
  8093     01A4  0427               	iorwf	??_change_time,w
  8094     01A5  00AB               	movwf	change_time@buffer
  8095     01A6                     l4206:
  8096                           
  8097                           ;car_black_box.c: 462:             clock_reg[2] = (clock_reg[2] & 0x80) | buffer;
  8098     01A6  0853               	movf	_clock_reg+2,w
  8099     01A7  3980               	andlw	128
  8100     01A8  042B               	iorwf	change_time@buffer,w
  8101     01A9  00D3               	movwf	_clock_reg+2
  8102     01AA                     l4208:
  8103                           
  8104                           ;car_black_box.c: 463:             write_ds1307(0x00, clock_reg[2]);
  8105     01AA  0853               	movf	_clock_reg+2,w
  8106     01AB  00F3               	movwf	write_ds1307@data
  8107     01AC  3000               	movlw	0
  8108     01AD  160A  118A  24B0  120A  118A  	fcall	_write_ds1307
  8109     01B2                     l4210:
  8110                           
  8111                           ;car_black_box.c: 465:             clcd_write(0x01, 0);
  8112     01B2  01F2               	clrf	clcd_write@mode
  8113     01B3  3001               	movlw	1
  8114     01B4  160A  118A  270F  120A  118A  	fcall	_clcd_write
  8115     01B9                     l4212:
  8116                           
  8117                           ;car_black_box.c: 466:             clcd_print("Time changed", (0x80 + 2));
  8118     01B9  3000               	movlw	low (STR_25| (0+32768))
  8119     01BA  00F6               	movwf	clcd_print@str
  8120     01BB  3089               	movlw	high (STR_25| (0+32768))
  8121     01BC  00F7               	movwf	clcd_print@str+1
  8122     01BD  3082               	movlw	130
  8123     01BE  00F8               	movwf	clcd_print@addr
  8124     01BF  160A  118A  267C  120A  118A  	fcall	_clcd_print
  8125     01C4                     l4214:
  8126                           
  8127                           ;car_black_box.c: 467:             clcd_print("Successfully", (0xC0 + 2));
  8128     01C4  301A               	movlw	low (STR_26| (0+32768))
  8129     01C5  00F6               	movwf	clcd_print@str
  8130     01C6  3089               	movlw	high (STR_26| (0+32768))
  8131     01C7  00F7               	movwf	clcd_print@str+1
  8132     01C8  30C2               	movlw	194
  8133     01C9  00F8               	movwf	clcd_print@addr
  8134     01CA  160A  118A  267C  120A  118A  	fcall	_clcd_print
  8135     01CF                     l4216:
  8136                           
  8137                           ;car_black_box.c: 469:             t_done = 1;
  8138     01CF  1283               	bcf	3,5	;RP0=0, select bank0
  8139     01D0  1303               	bcf	3,6	;RP1=0, select bank0
  8140     01D1  01DE               	clrf	change_time@t_done
  8141     01D2  0ADE               	incf	change_time@t_done,f
  8142     01D3                     l4218:
  8143                           
  8144                           ;car_black_box.c: 470:             _delay((unsigned long)((1000)*(20000000/4000.0)));
  8145     01D3  301A               	movlw	26
  8146     01D4  1283               	bcf	3,5	;RP0=0, select bank0
  8147     01D5  1303               	bcf	3,6	;RP1=0, select bank0
  8148     01D6  00A9               	movwf	??_change_time+2
  8149     01D7  305E               	movlw	94
  8150     01D8  00A8               	movwf	??_change_time+1
  8151     01D9  306D               	movlw	109
  8152     01DA  00A7               	movwf	??_change_time
  8153     01DB                     u4277:
  8154     01DB  0BA7               	decfsz	??_change_time,f
  8155     01DC  29DB               	goto	u4277
  8156     01DD  0BA8               	decfsz	??_change_time+1,f
  8157     01DE  29DB               	goto	u4277
  8158     01DF  0BA9               	decfsz	??_change_time+2,f
  8159     01E0  29DB               	goto	u4277
  8160     01E1  29E2               	nop2
  8161     01E2                     l4220:
  8162                           
  8163                           ;car_black_box.c: 471:             return 0x1F;
  8164     01E2  301F               	movlw	31
  8165     01E3  1283               	bcf	3,5	;RP0=0, select bank0
  8166     01E4  1303               	bcf	3,6	;RP1=0, select bank0
  8167     01E5  00A5               	movwf	?_change_time
  8168     01E6  3000               	movlw	0
  8169     01E7  00A6               	movwf	?_change_time+1
  8170     01E8  2B16               	goto	l174
  8171     01E9                     l4226:
  8172     01E9  082A               	movf	change_time@key,w
  8173                           
  8174                           ; Switch size 1, requested type "simple"
  8175                           ; Number of cases is 3, Range of values is 47 to 68
  8176                           ; switch strategies available:
  8177                           ; Name         Instructions Cycles
  8178                           ; simple_byte           10     6 (average)
  8179                           ; direct_byte           77    11 (fixed)
  8180                           ; jumptable            263     9 (fixed)
  8181                           ;	Chosen strategy is simple_byte
  8182     01EA  3A2F               	xorlw	47	; case 47
  8183     01EB  1903               	skipnz
  8184     01EC  28E1               	goto	l4190
  8185     01ED  3A18               	xorlw	24	; case 55
  8186     01EE  1903               	skipnz
  8187     01EF  28D5               	goto	l4188
  8188     01F0  3A73               	xorlw	115	; case 68
  8189     01F1  1903               	skipnz
  8190     01F2  28F9               	goto	l4192
  8191     01F3  29F4               	goto	l4228
  8192     01F4                     l4228:
  8193                           
  8194                           ;car_black_box.c: 475:     if (new_time[0] > 23)
  8195     01F4  3000               	movlw	0
  8196     01F5  024C               	subwf	change_time@new_time+1,w
  8197     01F6  3018               	movlw	24
  8198     01F7  1903               	skipnz
  8199     01F8  024B               	subwf	change_time@new_time,w
  8200     01F9  1C03               	skipc
  8201     01FA  29FC               	goto	u3871
  8202     01FB  29FD               	goto	u3870
  8203     01FC                     u3871:
  8204     01FC  29FF               	goto	l4232
  8205     01FD                     u3870:
  8206     01FD                     l4230:
  8207                           
  8208                           ;car_black_box.c: 476:         new_time[0] = 0;
  8209     01FD  01CB               	clrf	change_time@new_time
  8210     01FE  01CC               	clrf	change_time@new_time+1
  8211     01FF                     l4232:
  8212                           
  8213                           ;car_black_box.c: 477:     if (new_time[1] > 59)
  8214     01FF  3000               	movlw	0
  8215     0200  024E               	subwf	change_time@new_time+3,w
  8216     0201  303C               	movlw	60
  8217     0202  1903               	skipnz
  8218     0203  024D               	subwf	change_time@new_time+2,w
  8219     0204  1C03               	skipc
  8220     0205  2A07               	goto	u3881
  8221     0206  2A08               	goto	u3880
  8222     0207                     u3881:
  8223     0207  2A0A               	goto	l4236
  8224     0208                     u3880:
  8225     0208                     l4234:
  8226                           
  8227                           ;car_black_box.c: 478:         new_time[1] = 0;
  8228     0208  01CD               	clrf	change_time@new_time+2
  8229     0209  01CE               	clrf	change_time@new_time+3
  8230     020A                     l4236:
  8231                           
  8232                           ;car_black_box.c: 479:     if (new_time[2] > 59)
  8233     020A  3000               	movlw	0
  8234     020B  0250               	subwf	change_time@new_time+5,w
  8235     020C  303C               	movlw	60
  8236     020D  1903               	skipnz
  8237     020E  024F               	subwf	change_time@new_time+4,w
  8238     020F  1C03               	skipc
  8239     0210  2A12               	goto	u3891
  8240     0211  2A13               	goto	u3890
  8241     0212                     u3891:
  8242     0212  2A15               	goto	l4240
  8243     0213                     u3890:
  8244     0213                     l4238:
  8245                           
  8246                           ;car_black_box.c: 480:         new_time[2] = 0;
  8247     0213  01CF               	clrf	change_time@new_time+4
  8248     0214  01D0               	clrf	change_time@new_time+5
  8249     0215                     l4240:
  8250                           
  8251                           ;car_black_box.c: 482:     if (wait++ == 1)
  8252     0215  3001               	movlw	1
  8253     0216  00FF               	movwf	btemp+1
  8254     0217  087F               	movf	btemp+1,w
  8255     0218  07E0               	addwf	change_time@wait,f
  8256     0219  3002               	movlw	2
  8257     021A  0660               	xorwf	change_time@wait,w
  8258     021B  1D03               	btfss	3,2
  8259     021C  2A1E               	goto	u3901
  8260     021D  2A1F               	goto	u3900
  8261     021E                     u3901:
  8262     021E  2A71               	goto	l4266
  8263     021F                     u3900:
  8264     021F                     l4242:
  8265                           
  8266                           ;car_black_box.c: 483:     {;car_black_box.c: 484:         wait = 0;
  8267     021F  01E0               	clrf	change_time@wait
  8268     0220                     l4244:
  8269                           
  8270                           ;car_black_box.c: 485:         blink = !blink;
  8271     0220  085F               	movf	change_time@blink,w
  8272     0221  1903               	btfsc	3,2
  8273     0222  2A24               	goto	u3911
  8274     0223  2A26               	goto	u3910
  8275     0224                     u3911:
  8276     0224  3001               	movlw	1
  8277     0225  2A27               	goto	u3920
  8278     0226                     u3910:
  8279     0226  3000               	movlw	0
  8280     0227                     u3920:
  8281     0227  00DF               	movwf	change_time@blink
  8282     0228                     l4246:
  8283                           
  8284                           ;car_black_box.c: 488:         if (blink)
  8285     0228  085F               	movf	change_time@blink,w
  8286     0229  1903               	btfsc	3,2
  8287     022A  2A2C               	goto	u3931
  8288     022B  2A2D               	goto	u3930
  8289     022C                     u3931:
  8290     022C  2A71               	goto	l4266
  8291     022D                     u3930:
  8292     022D  2A61               	goto	l4264
  8293     022E                     l4250:
  8294                           
  8295                           ;car_black_box.c: 493:                     clcd_print("  ", (0xC0 + 0));
  8296     022E  30FD               	movlw	low ((STR_23+10)| (0+32768))
  8297     022F  00F6               	movwf	clcd_print@str
  8298     0230  3088               	movlw	high ((STR_23+10)| (0+32768))
  8299     0231  00F7               	movwf	clcd_print@str+1
  8300     0232  30C0               	movlw	192
  8301     0233  00F8               	movwf	clcd_print@addr
  8302     0234  160A  118A  267C  120A  118A  	fcall	_clcd_print
  8303     0239                     l4252:
  8304                           
  8305                           ;car_black_box.c: 494:                     _delay((unsigned long)((160)*(20000000/4000.0
      +                          )));
  8306     0239  3005               	movlw	5
  8307     023A  1283               	bcf	3,5	;RP0=0, select bank0
  8308     023B  1303               	bcf	3,6	;RP1=0, select bank0
  8309     023C  00A9               	movwf	??_change_time+2
  8310     023D  300F               	movlw	15
  8311     023E  00A8               	movwf	??_change_time+1
  8312     023F  30F0               	movlw	240
  8313     0240  00A7               	movwf	??_change_time
  8314     0241                     u4287:
  8315     0241  0BA7               	decfsz	??_change_time,f
  8316     0242  2A41               	goto	u4287
  8317     0243  0BA8               	decfsz	??_change_time+1,f
  8318     0244  2A41               	goto	u4287
  8319     0245  0BA9               	decfsz	??_change_time+2,f
  8320     0246  2A41               	goto	u4287
  8321     0247  0000               	nop
  8322                           
  8323                           ;car_black_box.c: 495:                     break;
  8324     0248  2A71               	goto	l4266
  8325     0249                     l4254:
  8326                           
  8327                           ;car_black_box.c: 497:                     clcd_print("  ", (0xC0 + 3));
  8328     0249  30FD               	movlw	low ((STR_23+10)| (0+32768))
  8329     024A  00F6               	movwf	clcd_print@str
  8330     024B  3088               	movlw	high ((STR_23+10)| (0+32768))
  8331     024C  00F7               	movwf	clcd_print@str+1
  8332     024D  30C3               	movlw	195
  8333     024E  00F8               	movwf	clcd_print@addr
  8334     024F  160A  118A  267C  120A  118A  	fcall	_clcd_print
  8335     0254  2A39               	goto	l4252
  8336     0255                     l4258:
  8337                           
  8338                           ;car_black_box.c: 501:                     clcd_print("  ", (0xC0 + 6));
  8339     0255  30FD               	movlw	low ((STR_23+10)| (0+32768))
  8340     0256  00F6               	movwf	clcd_print@str
  8341     0257  3088               	movlw	high ((STR_23+10)| (0+32768))
  8342     0258  00F7               	movwf	clcd_print@str+1
  8343     0259  30C6               	movlw	198
  8344     025A  00F8               	movwf	clcd_print@addr
  8345     025B  160A  118A  267C  120A  118A  	fcall	_clcd_print
  8346     0260  2A39               	goto	l4252
  8347     0261                     l4264:
  8348                           
  8349                           ; Switch on 2 bytes has been partitioned into a top level switch of size 1, and 1 sub-sw
      +                          itches
  8350                           ; Switch size 1, requested type "simple"
  8351                           ; Number of cases is 1, Range of values is 0 to 0
  8352                           ; switch strategies available:
  8353                           ; Name         Instructions Cycles
  8354                           ; simple_byte            4     3 (average)
  8355                           ; direct_byte           11     8 (fixed)
  8356                           ; jumptable            260     6 (fixed)
  8357                           ;	Chosen strategy is simple_byte
  8358     0261  0859               	movf	change_time@blink_pos+1,w
  8359     0262  3A00               	xorlw	0	; case 0
  8360     0263  1903               	skipnz
  8361     0264  2A66               	goto	l4518
  8362     0265  2A71               	goto	l4266
  8363     0266                     l4518:
  8364                           
  8365                           ; Switch size 1, requested type "simple"
  8366                           ; Number of cases is 3, Range of values is 0 to 2
  8367                           ; switch strategies available:
  8368                           ; Name         Instructions Cycles
  8369                           ; simple_byte           10     6 (average)
  8370                           ; direct_byte           17     8 (fixed)
  8371                           ; jumptable            260     6 (fixed)
  8372                           ;	Chosen strategy is simple_byte
  8373     0266  0858               	movf	change_time@blink_pos,w
  8374     0267  3A00               	xorlw	0	; case 0
  8375     0268  1903               	skipnz
  8376     0269  2A2E               	goto	l4250
  8377     026A  3A01               	xorlw	1	; case 1
  8378     026B  1903               	skipnz
  8379     026C  2A49               	goto	l4254
  8380     026D  3A03               	xorlw	3	; case 2
  8381     026E  1903               	skipnz
  8382     026F  2A55               	goto	l4258
  8383     0270  2A71               	goto	l4266
  8384     0271                     l4266:
  8385                           
  8386                           ;car_black_box.c: 509:     clcd_putch(new_time[0] / 10 + '0', (0xC0 + 0));
  8387     0271  30C0               	movlw	192
  8388     0272  1283               	bcf	3,5	;RP0=0, select bank0
  8389     0273  1303               	bcf	3,6	;RP1=0, select bank0
  8390     0274  00A3               	movwf	clcd_putch@addr
  8391     0275  300A               	movlw	10
  8392     0276  00F6               	movwf	___lwdiv@divisor
  8393     0277  3000               	movlw	0
  8394     0278  00F7               	movwf	___lwdiv@divisor+1
  8395     0279  084C               	movf	change_time@new_time+1,w
  8396     027A  00F9               	movwf	___lwdiv@dividend+1
  8397     027B  084B               	movf	change_time@new_time,w
  8398     027C  00F8               	movwf	___lwdiv@dividend
  8399     027D  160A  118A  27BA  120A  118A  	fcall	___lwdiv
  8400     0282  0876               	movf	?___lwdiv,w
  8401     0283  3E30               	addlw	48
  8402     0284  160A  118A  246D  120A  118A  	fcall	_clcd_putch
  8403                           
  8404                           ;car_black_box.c: 510:     clcd_putch(new_time[0] % 10 + '0', (0xC0 + 1));
  8405     0289  30C1               	movlw	193
  8406     028A  1283               	bcf	3,5	;RP0=0, select bank0
  8407     028B  1303               	bcf	3,6	;RP1=0, select bank0
  8408     028C  00A3               	movwf	clcd_putch@addr
  8409     028D  300A               	movlw	10
  8410     028E  00F2               	movwf	___lwmod@divisor
  8411     028F  3000               	movlw	0
  8412     0290  00F3               	movwf	___lwmod@divisor+1
  8413     0291  084C               	movf	change_time@new_time+1,w
  8414     0292  00F5               	movwf	___lwmod@dividend+1
  8415     0293  084B               	movf	change_time@new_time,w
  8416     0294  00F4               	movwf	___lwmod@dividend
  8417     0295  160A  118A  2745  120A  118A  	fcall	___lwmod
  8418     029A  0872               	movf	?___lwmod,w
  8419     029B  3E30               	addlw	48
  8420     029C  160A  118A  246D  120A  118A  	fcall	_clcd_putch
  8421     02A1                     l4268:
  8422                           
  8423                           ;car_black_box.c: 511:     clcd_putch(':', (0xC0 + 2));
  8424     02A1  30C2               	movlw	194
  8425     02A2  1283               	bcf	3,5	;RP0=0, select bank0
  8426     02A3  1303               	bcf	3,6	;RP1=0, select bank0
  8427     02A4  00A3               	movwf	clcd_putch@addr
  8428     02A5  303A               	movlw	58
  8429     02A6  160A  118A  246D  120A  118A  	fcall	_clcd_putch
  8430     02AB                     l4270:
  8431                           
  8432                           ;car_black_box.c: 514:     clcd_putch(new_time[1] / 10 + '0', (0xC0 + 3));
  8433     02AB  30C3               	movlw	195
  8434     02AC  1283               	bcf	3,5	;RP0=0, select bank0
  8435     02AD  1303               	bcf	3,6	;RP1=0, select bank0
  8436     02AE  00A3               	movwf	clcd_putch@addr
  8437     02AF  300A               	movlw	10
  8438     02B0  00F6               	movwf	___lwdiv@divisor
  8439     02B1  3000               	movlw	0
  8440     02B2  00F7               	movwf	___lwdiv@divisor+1
  8441     02B3  084E               	movf	change_time@new_time+3,w
  8442     02B4  00F9               	movwf	___lwdiv@dividend+1
  8443     02B5  084D               	movf	change_time@new_time+2,w
  8444     02B6  00F8               	movwf	___lwdiv@dividend
  8445     02B7  160A  118A  27BA  120A  118A  	fcall	___lwdiv
  8446     02BC  0876               	movf	?___lwdiv,w
  8447     02BD  3E30               	addlw	48
  8448     02BE  160A  118A  246D  120A  118A  	fcall	_clcd_putch
  8449     02C3                     l4272:
  8450                           
  8451                           ;car_black_box.c: 515:     clcd_putch(new_time[1] % 10 + '0', (0xC0 + 4));
  8452     02C3  30C4               	movlw	196
  8453     02C4  1283               	bcf	3,5	;RP0=0, select bank0
  8454     02C5  1303               	bcf	3,6	;RP1=0, select bank0
  8455     02C6  00A3               	movwf	clcd_putch@addr
  8456     02C7  300A               	movlw	10
  8457     02C8  00F2               	movwf	___lwmod@divisor
  8458     02C9  3000               	movlw	0
  8459     02CA  00F3               	movwf	___lwmod@divisor+1
  8460     02CB  084E               	movf	change_time@new_time+3,w
  8461     02CC  00F5               	movwf	___lwmod@dividend+1
  8462     02CD  084D               	movf	change_time@new_time+2,w
  8463     02CE  00F4               	movwf	___lwmod@dividend
  8464     02CF  160A  118A  2745  120A  118A  	fcall	___lwmod
  8465     02D4  0872               	movf	?___lwmod,w
  8466     02D5  3E30               	addlw	48
  8467     02D6  160A  118A  246D  120A  118A  	fcall	_clcd_putch
  8468     02DB                     l4274:
  8469                           
  8470                           ;car_black_box.c: 516:     clcd_putch(':', (0xC0 + 5));
  8471     02DB  30C5               	movlw	197
  8472     02DC  1283               	bcf	3,5	;RP0=0, select bank0
  8473     02DD  1303               	bcf	3,6	;RP1=0, select bank0
  8474     02DE  00A3               	movwf	clcd_putch@addr
  8475     02DF  303A               	movlw	58
  8476     02E0  160A  118A  246D  120A  118A  	fcall	_clcd_putch
  8477                           
  8478                           ;car_black_box.c: 519:     clcd_putch(new_time[2] / 10 + '0', (0xC0 + 6));
  8479     02E5  30C6               	movlw	198
  8480     02E6  1283               	bcf	3,5	;RP0=0, select bank0
  8481     02E7  1303               	bcf	3,6	;RP1=0, select bank0
  8482     02E8  00A3               	movwf	clcd_putch@addr
  8483     02E9  300A               	movlw	10
  8484     02EA  00F6               	movwf	___lwdiv@divisor
  8485     02EB  3000               	movlw	0
  8486     02EC  00F7               	movwf	___lwdiv@divisor+1
  8487     02ED  0850               	movf	change_time@new_time+5,w
  8488     02EE  00F9               	movwf	___lwdiv@dividend+1
  8489     02EF  084F               	movf	change_time@new_time+4,w
  8490     02F0  00F8               	movwf	___lwdiv@dividend
  8491     02F1  160A  118A  27BA  120A  118A  	fcall	___lwdiv
  8492     02F6  0876               	movf	?___lwdiv,w
  8493     02F7  3E30               	addlw	48
  8494     02F8  160A  118A  246D  120A  118A  	fcall	_clcd_putch
  8495                           
  8496                           ;car_black_box.c: 520:     clcd_putch(new_time[2] % 10 + '0', (0xC0 + 7));
  8497     02FD  30C7               	movlw	199
  8498     02FE  1283               	bcf	3,5	;RP0=0, select bank0
  8499     02FF  1303               	bcf	3,6	;RP1=0, select bank0
  8500     0300  00A3               	movwf	clcd_putch@addr
  8501     0301  300A               	movlw	10
  8502     0302  00F2               	movwf	___lwmod@divisor
  8503     0303  3000               	movlw	0
  8504     0304  00F3               	movwf	___lwmod@divisor+1
  8505     0305  0850               	movf	change_time@new_time+5,w
  8506     0306  00F5               	movwf	___lwmod@dividend+1
  8507     0307  084F               	movf	change_time@new_time+4,w
  8508     0308  00F4               	movwf	___lwmod@dividend
  8509     0309  160A  118A  2745  120A  118A  	fcall	___lwmod
  8510     030E  0872               	movf	?___lwmod,w
  8511     030F  3E30               	addlw	48
  8512     0310  160A  118A  246D  120A  118A  	fcall	_clcd_putch
  8513     0315  28CE               	goto	l4184
  8514     0316                     l174:
  8515     0316  0008               	return
  8516     0317                     __end_of_change_time:
  8517                           
  8518                           	psect	text35
  8519     14B0                     __ptext35:	
  8520 ;; *************** function _write_ds1307 *****************
  8521 ;; Defined at:
  8522 ;;		line 36 in file "ds1307.c"
  8523 ;; Parameters:    Size  Location     Type
  8524 ;;  addr            1    wreg     unsigned char 
  8525 ;;  data            1    3[COMMON] unsigned char 
  8526 ;; Auto vars:     Size  Location     Type
  8527 ;;  addr            1    4[COMMON] unsigned char 
  8528 ;; Return value:  Size  Location     Type
  8529 ;;                  1    wreg      void 
  8530 ;; Registers used:
  8531 ;;		wreg, status,2, status,0, pclath, cstack
  8532 ;; Tracked objects:
  8533 ;;		On entry : 0/0
  8534 ;;		On exit  : 0/0
  8535 ;;		Unchanged: 0/0
  8536 ;; Data sizes:     COMMON   BANK0   BANK1   BANK3   BANK2
  8537 ;;      Params:         1       0       0       0       0
  8538 ;;      Locals:         1       0       0       0       0
  8539 ;;      Temps:          0       0       0       0       0
  8540 ;;      Totals:         2       0       0       0       0
  8541 ;;Total ram usage:        2 bytes
  8542 ;; Hardware stack levels used: 1
  8543 ;; Hardware stack levels required when called: 3
  8544 ;; This function calls:
  8545 ;;		_i2c_start
  8546 ;;		_i2c_stop
  8547 ;;		_i2c_write
  8548 ;; This function is called by:
  8549 ;;		_change_time
  8550 ;;		_init_ds1307
  8551 ;; This function uses a non-reentrant model
  8552 ;;
  8553                           
  8554     14B0                     _write_ds1307:	
  8555                           ;psect for function _write_ds1307
  8556                           
  8557                           
  8558                           ;incstack = 0
  8559                           ; Regs used in _write_ds1307: [wreg+status,2+status,0+pclath+cstack]
  8560                           ;write_ds1307@addr stored from wreg
  8561     14B0  00F4               	movwf	write_ds1307@addr
  8562     14B1                     l3632:
  8563                           
  8564                           ;ds1307.c: 36: void write_ds1307(unsigned char addr, unsigned char data);ds1307.c: 37: {
      +                          ;ds1307.c: 38:     i2c_start();
  8565     14B1  160A  118A  23D7  160A  118A  	fcall	_i2c_start
  8566                           
  8567                           ;ds1307.c: 39:     i2c_write(0b11010000);
  8568     14B6  30D0               	movlw	208
  8569     14B7  160A  118A  23F4  160A  118A  	fcall	_i2c_write
  8570                           
  8571                           ;ds1307.c: 40:     i2c_write(addr);
  8572     14BC  0874               	movf	write_ds1307@addr,w
  8573     14BD  160A  118A  23F4  160A  118A  	fcall	_i2c_write
  8574                           
  8575                           ;ds1307.c: 41:     i2c_write(data);
  8576     14C2  0873               	movf	write_ds1307@data,w
  8577     14C3  160A  118A  23F4  160A  118A  	fcall	_i2c_write
  8578                           
  8579                           ;ds1307.c: 42:     i2c_stop();
  8580     14C8  160A  118A  23E0  160A  118A  	fcall	_i2c_stop
  8581     14CD                     l280:
  8582     14CD  0008               	return
  8583     14CE                     __end_of_write_ds1307:
  8584                           
  8585                           	psect	text36
  8586     097E                     __ptext36:	
  8587 ;; *************** function _get_time *****************
  8588 ;; Defined at:
  8589 ;;		line 63 in file "car_black_box.c"
  8590 ;; Parameters:    Size  Location     Type
  8591 ;;		None
  8592 ;; Auto vars:     Size  Location     Type
  8593 ;;		None
  8594 ;; Return value:  Size  Location     Type
  8595 ;;                  1    wreg      void 
  8596 ;; Registers used:
  8597 ;;		wreg, status,2, status,0, pclath, cstack
  8598 ;; Tracked objects:
  8599 ;;		On entry : 0/0
  8600 ;;		On exit  : 0/0
  8601 ;;		Unchanged: 0/0
  8602 ;; Data sizes:     COMMON   BANK0   BANK1   BANK3   BANK2
  8603 ;;      Params:         0       0       0       0       0
  8604 ;;      Locals:         0       0       0       0       0
  8605 ;;      Temps:          1       0       0       0       0
  8606 ;;      Totals:         1       0       0       0       0
  8607 ;;Total ram usage:        1 bytes
  8608 ;; Hardware stack levels used: 1
  8609 ;; Hardware stack levels required when called: 5
  8610 ;; This function calls:
  8611 ;;		_read_ds1307
  8612 ;; This function is called by:
  8613 ;;		_display_time
  8614 ;;		_log_car_event
  8615 ;;		_change_time
  8616 ;; This function uses a non-reentrant model
  8617 ;;
  8618                           
  8619     097E                     _get_time:	
  8620                           ;psect for function _get_time
  8621                           
  8622     097E                     l3586:	
  8623                           ;incstack = 0
  8624                           ; Regs used in _get_time: [wreg+status,2+status,0+pclath+cstack]
  8625                           
  8626                           
  8627                           ;car_black_box.c: 64:     clock_reg[0] = read_ds1307(0x02);
  8628     097E  3002               	movlw	2
  8629     097F  160A  118A  25A2  120A  158A  	fcall	_read_ds1307
  8630     0984  1283               	bcf	3,5	;RP0=0, select bank0
  8631     0985  1303               	bcf	3,6	;RP1=0, select bank0
  8632     0986  00D1               	movwf	_clock_reg
  8633                           
  8634                           ;car_black_box.c: 65:     clock_reg[1] = read_ds1307(0x01);
  8635     0987  3001               	movlw	1
  8636     0988  160A  118A  25A2  120A  158A  	fcall	_read_ds1307
  8637     098D  1283               	bcf	3,5	;RP0=0, select bank0
  8638     098E  1303               	bcf	3,6	;RP1=0, select bank0
  8639     098F  00D2               	movwf	_clock_reg+1
  8640                           
  8641                           ;car_black_box.c: 66:     clock_reg[2] = read_ds1307(0x00);
  8642     0990  3000               	movlw	0
  8643     0991  160A  118A  25A2  120A  158A  	fcall	_read_ds1307
  8644     0996  1283               	bcf	3,5	;RP0=0, select bank0
  8645     0997  1303               	bcf	3,6	;RP1=0, select bank0
  8646     0998  00D3               	movwf	_clock_reg+2
  8647     0999                     l3588:
  8648                           
  8649                           ;car_black_box.c: 68:     time[0] = ((clock_reg[0] >> 4) & 0x03) + '0';
  8650     0999  0851               	movf	_clock_reg,w
  8651     099A  00F6               	movwf	??_get_time
  8652     099B  3004               	movlw	4
  8653     099C                     u3115:
  8654     099C  1003               	clrc
  8655     099D  0CF6               	rrf	??_get_time,f
  8656     099E  3EFF               	addlw	-1
  8657     099F  1D03               	skipz
  8658     09A0  299C               	goto	u3115
  8659     09A1  0876               	movf	??_get_time,w
  8660     09A2  3903               	andlw	3
  8661     09A3  3E30               	addlw	48
  8662     09A4  00E7               	movwf	_time
  8663     09A5                     l3590:
  8664                           
  8665                           ;car_black_box.c: 69:     time[1] = (clock_reg[0] & 0x0F) + '0';
  8666     09A5  0851               	movf	_clock_reg,w
  8667     09A6  390F               	andlw	15
  8668     09A7  3E30               	addlw	48
  8669     09A8  00E8               	movwf	_time+1
  8670     09A9                     l3592:
  8671                           
  8672                           ;car_black_box.c: 73:     time[2] = ((clock_reg[1] >> 4) & 0x07) + '0';
  8673     09A9  0852               	movf	_clock_reg+1,w
  8674     09AA  00F6               	movwf	??_get_time
  8675     09AB  3004               	movlw	4
  8676     09AC                     u3125:
  8677     09AC  1003               	clrc
  8678     09AD  0CF6               	rrf	??_get_time,f
  8679     09AE  3EFF               	addlw	-1
  8680     09AF  1D03               	skipz
  8681     09B0  29AC               	goto	u3125
  8682     09B1  0876               	movf	??_get_time,w
  8683     09B2  3907               	andlw	7
  8684     09B3  3E30               	addlw	48
  8685     09B4  00E9               	movwf	_time+2
  8686     09B5                     l3594:
  8687                           
  8688                           ;car_black_box.c: 74:     time[3] = (clock_reg[1] & 0x0F) + '0';
  8689     09B5  0852               	movf	_clock_reg+1,w
  8690     09B6  390F               	andlw	15
  8691     09B7  3E30               	addlw	48
  8692     09B8  00EA               	movwf	_time+3
  8693     09B9                     l3596:
  8694                           
  8695                           ;car_black_box.c: 77:     time[4] = ((clock_reg[2] >> 4) & 0x07) + '0';
  8696     09B9  0853               	movf	_clock_reg+2,w
  8697     09BA  00F6               	movwf	??_get_time
  8698     09BB  3004               	movlw	4
  8699     09BC                     u3135:
  8700     09BC  1003               	clrc
  8701     09BD  0CF6               	rrf	??_get_time,f
  8702     09BE  3EFF               	addlw	-1
  8703     09BF  1D03               	skipz
  8704     09C0  29BC               	goto	u3135
  8705     09C1  0876               	movf	??_get_time,w
  8706     09C2  3907               	andlw	7
  8707     09C3  3E30               	addlw	48
  8708     09C4  00EB               	movwf	_time+4
  8709     09C5                     l3598:
  8710                           
  8711                           ;car_black_box.c: 78:     time[5] = (clock_reg[2] & 0x0F) + '0';
  8712     09C5  0853               	movf	_clock_reg+2,w
  8713     09C6  390F               	andlw	15
  8714     09C7  3E30               	addlw	48
  8715     09C8  00EC               	movwf	_time+5
  8716     09C9                     l3600:
  8717                           
  8718                           ;car_black_box.c: 79:     time[6] = '\0';
  8719     09C9  01ED               	clrf	_time+6
  8720     09CA                     l70:
  8721     09CA  0008               	return
  8722     09CB                     __end_of_get_time:
  8723                           
  8724                           	psect	text37
  8725     15A2                     __ptext37:	
  8726 ;; *************** function _read_ds1307 *****************
  8727 ;; Defined at:
  8728 ;;		line 21 in file "ds1307.c"
  8729 ;; Parameters:    Size  Location     Type
  8730 ;;  addr            1    wreg     unsigned char 
  8731 ;; Auto vars:     Size  Location     Type
  8732 ;;  addr            1    4[COMMON] unsigned char 
  8733 ;;  data            1    5[COMMON] unsigned char 
  8734 ;; Return value:  Size  Location     Type
  8735 ;;                  1    wreg      unsigned char 
  8736 ;; Registers used:
  8737 ;;		wreg, status,2, status,0, pclath, cstack
  8738 ;; Tracked objects:
  8739 ;;		On entry : 0/0
  8740 ;;		On exit  : 0/0
  8741 ;;		Unchanged: 0/0
  8742 ;; Data sizes:     COMMON   BANK0   BANK1   BANK3   BANK2
  8743 ;;      Params:         0       0       0       0       0
  8744 ;;      Locals:         2       0       0       0       0
  8745 ;;      Temps:          0       0       0       0       0
  8746 ;;      Totals:         2       0       0       0       0
  8747 ;;Total ram usage:        2 bytes
  8748 ;; Hardware stack levels used: 1
  8749 ;; Hardware stack levels required when called: 4
  8750 ;; This function calls:
  8751 ;;		_i2c_read
  8752 ;;		_i2c_rep_start
  8753 ;;		_i2c_start
  8754 ;;		_i2c_stop
  8755 ;;		_i2c_write
  8756 ;; This function is called by:
  8757 ;;		_get_time
  8758 ;;		_init_ds1307
  8759 ;; This function uses a non-reentrant model
  8760 ;;
  8761                           
  8762     15A2                     _read_ds1307:	
  8763                           ;psect for function _read_ds1307
  8764                           
  8765                           
  8766                           ;incstack = 0
  8767                           ; Regs used in _read_ds1307: [wreg+status,2+status,0+pclath+cstack]
  8768                           ;read_ds1307@addr stored from wreg
  8769     15A2  00F4               	movwf	read_ds1307@addr
  8770     15A3                     l3558:
  8771                           
  8772                           ;ds1307.c: 21: unsigned char read_ds1307(unsigned char addr);ds1307.c: 22: {;ds1307.c: 2
      +                          3:     unsigned char data;;ds1307.c: 25:     i2c_start();
  8773     15A3  160A  118A  23D7  160A  118A  	fcall	_i2c_start
  8774                           
  8775                           ;ds1307.c: 26:     i2c_write(0b11010000);
  8776     15A8  30D0               	movlw	208
  8777     15A9  160A  118A  23F4  160A  118A  	fcall	_i2c_write
  8778                           
  8779                           ;ds1307.c: 27:     i2c_write(addr);
  8780     15AE  0874               	movf	read_ds1307@addr,w
  8781     15AF  160A  118A  23F4  160A  118A  	fcall	_i2c_write
  8782                           
  8783                           ;ds1307.c: 28:     i2c_rep_start();
  8784     15B4  160A  118A  23E9  160A  118A  	fcall	_i2c_rep_start
  8785                           
  8786                           ;ds1307.c: 29:     i2c_write(0b11010001);
  8787     15B9  30D1               	movlw	209
  8788     15BA  160A  118A  23F4  160A  118A  	fcall	_i2c_write
  8789                           
  8790                           ;ds1307.c: 30:     data = i2c_read(0);
  8791     15BF  3000               	movlw	0
  8792     15C0  160A  118A  24EC  160A  118A  	fcall	_i2c_read
  8793     15C5  00F5               	movwf	read_ds1307@data
  8794                           
  8795                           ;ds1307.c: 31:     i2c_stop();
  8796     15C6  160A  118A  23E0  160A  118A  	fcall	_i2c_stop
  8797     15CB                     l3560:
  8798                           
  8799                           ;ds1307.c: 33:     return data;
  8800     15CB  0875               	movf	read_ds1307@data,w
  8801     15CC                     l277:
  8802     15CC  0008               	return
  8803     15CD                     __end_of_read_ds1307:
  8804                           
  8805                           	psect	text38
  8806     13F4                     __ptext38:	
  8807 ;; *************** function _i2c_write *****************
  8808 ;; Defined at:
  8809 ;;		line 73 in file "i2c.c"
  8810 ;; Parameters:    Size  Location     Type
  8811 ;;  data            1    wreg     unsigned char 
  8812 ;; Auto vars:     Size  Location     Type
  8813 ;;  data            1    2[COMMON] unsigned char 
  8814 ;; Return value:  Size  Location     Type
  8815 ;;                  2  265[None  ] int 
  8816 ;; Registers used:
  8817 ;;		wreg, status,2, status,0, pclath, cstack
  8818 ;; Tracked objects:
  8819 ;;		On entry : 0/0
  8820 ;;		On exit  : 0/0
  8821 ;;		Unchanged: 0/0
  8822 ;; Data sizes:     COMMON   BANK0   BANK1   BANK3   BANK2
  8823 ;;      Params:         0       0       0       0       0
  8824 ;;      Locals:         1       0       0       0       0
  8825 ;;      Temps:          0       0       0       0       0
  8826 ;;      Totals:         1       0       0       0       0
  8827 ;;Total ram usage:        1 bytes
  8828 ;; Hardware stack levels used: 1
  8829 ;; Hardware stack levels required when called: 2
  8830 ;; This function calls:
  8831 ;;		_i2c_wait_for_idle
  8832 ;; This function is called by:
  8833 ;;		_read_ds1307
  8834 ;;		_write_ds1307
  8835 ;;		_eeprom_at24c04_read
  8836 ;;		_eeprom_at24c04_byte_write
  8837 ;; This function uses a non-reentrant model
  8838 ;;
  8839                           
  8840     13F4                     _i2c_write:	
  8841                           ;psect for function _i2c_write
  8842                           
  8843                           
  8844                           ;incstack = 0
  8845                           ; Regs used in _i2c_write: [wreg+status,2+status,0+pclath+cstack]
  8846                           ;i2c_write@data stored from wreg
  8847     13F4  00F2               	movwf	i2c_write@data
  8848     13F5                     l3534:
  8849                           
  8850                           ;i2c.c: 73: int i2c_write(unsigned char data);i2c.c: 74: {;i2c.c: 75:     i2c_wait_for_i
      +                          dle();
  8851     13F5  160A  118A  240A  160A  118A  	fcall	_i2c_wait_for_idle
  8852     13FA                     l3536:
  8853                           
  8854                           ;i2c.c: 76:     SSPBUF = data;
  8855     13FA  0872               	movf	i2c_write@data,w
  8856     13FB  1283               	bcf	3,5	;RP0=0, select bank0
  8857     13FC  1303               	bcf	3,6	;RP1=0, select bank0
  8858     13FD  0093               	movwf	19	;volatile
  8859     13FE                     l3538:
  8860     13FE                     l361:	
  8861                           ;i2c.c: 78:     return !ACKSTAT;;	Return value of _i2c_write is never used
  8862                           
  8863     13FE  0008               	return
  8864     13FF                     __end_of_i2c_write:
  8865                           
  8866                           	psect	text39
  8867     13E9                     __ptext39:	
  8868 ;; *************** function _i2c_rep_start *****************
  8869 ;; Defined at:
  8870 ;;		line 36 in file "i2c.c"
  8871 ;; Parameters:    Size  Location     Type
  8872 ;;		None
  8873 ;; Auto vars:     Size  Location     Type
  8874 ;;		None
  8875 ;; Return value:  Size  Location     Type
  8876 ;;                  1    wreg      void 
  8877 ;; Registers used:
  8878 ;;		wreg, status,2, status,0, pclath, cstack
  8879 ;; Tracked objects:
  8880 ;;		On entry : 0/0
  8881 ;;		On exit  : 0/0
  8882 ;;		Unchanged: 0/0
  8883 ;; Data sizes:     COMMON   BANK0   BANK1   BANK3   BANK2
  8884 ;;      Params:         0       0       0       0       0
  8885 ;;      Locals:         0       0       0       0       0
  8886 ;;      Temps:          0       0       0       0       0
  8887 ;;      Totals:         0       0       0       0       0
  8888 ;;Total ram usage:        0 bytes
  8889 ;; Hardware stack levels used: 1
  8890 ;; Hardware stack levels required when called: 3
  8891 ;; This function calls:
  8892 ;;		_i2c_start
  8893 ;;		_i2c_stop
  8894 ;; This function is called by:
  8895 ;;		_read_ds1307
  8896 ;;		_eeprom_at24c04_read
  8897 ;; This function uses a non-reentrant model
  8898 ;;
  8899                           
  8900     13E9                     _i2c_rep_start:	
  8901                           ;psect for function _i2c_rep_start
  8902                           
  8903     13E9                     l3542:	
  8904                           ;incstack = 0
  8905                           ; Regs used in _i2c_rep_start: [wreg+status,2+status,0+pclath+cstack]
  8906                           
  8907                           
  8908                           ;i2c.c: 38:     i2c_stop();
  8909     13E9  160A  118A  23E0  160A  118A  	fcall	_i2c_stop
  8910                           
  8911                           ;i2c.c: 39:     i2c_start();
  8912     13EE  160A  118A  23D7  160A  118A  	fcall	_i2c_start
  8913     13F3                     l350:
  8914     13F3  0008               	return
  8915     13F4                     __end_of_i2c_rep_start:
  8916                           
  8917                           	psect	text40
  8918     13E0                     __ptext40:	
  8919 ;; *************** function _i2c_stop *****************
  8920 ;; Defined at:
  8921 ;;		line 43 in file "i2c.c"
  8922 ;; Parameters:    Size  Location     Type
  8923 ;;		None
  8924 ;; Auto vars:     Size  Location     Type
  8925 ;;		None
  8926 ;; Return value:  Size  Location     Type
  8927 ;;                  1    wreg      void 
  8928 ;; Registers used:
  8929 ;;		wreg, status,2, status,0, pclath, cstack
  8930 ;; Tracked objects:
  8931 ;;		On entry : 0/0
  8932 ;;		On exit  : 0/0
  8933 ;;		Unchanged: 0/0
  8934 ;; Data sizes:     COMMON   BANK0   BANK1   BANK3   BANK2
  8935 ;;      Params:         0       0       0       0       0
  8936 ;;      Locals:         0       0       0       0       0
  8937 ;;      Temps:          0       0       0       0       0
  8938 ;;      Totals:         0       0       0       0       0
  8939 ;;Total ram usage:        0 bytes
  8940 ;; Hardware stack levels used: 1
  8941 ;; Hardware stack levels required when called: 2
  8942 ;; This function calls:
  8943 ;;		_i2c_wait_for_idle
  8944 ;; This function is called by:
  8945 ;;		_read_ds1307
  8946 ;;		_write_ds1307
  8947 ;;		_eeprom_at24c04_read
  8948 ;;		_eeprom_at24c04_byte_write
  8949 ;;		_i2c_rep_start
  8950 ;; This function uses a non-reentrant model
  8951 ;;
  8952                           
  8953     13E0                     _i2c_stop:	
  8954                           ;psect for function _i2c_stop
  8955                           
  8956     13E0                     l3530:	
  8957                           ;incstack = 0
  8958                           ; Regs used in _i2c_stop: [wreg+status,2+status,0+pclath+cstack]
  8959                           
  8960                           
  8961                           ;i2c.c: 45:     i2c_wait_for_idle();
  8962     13E0  160A  118A  240A  160A  118A  	fcall	_i2c_wait_for_idle
  8963     13E5                     l3532:
  8964                           
  8965                           ;i2c.c: 46:     PEN = 1;
  8966     13E5  1683               	bsf	3,5	;RP0=1, select bank1
  8967     13E6  1303               	bcf	3,6	;RP1=0, select bank1
  8968     13E7  1511               	bsf	17,2	;volatile
  8969     13E8                     l353:
  8970     13E8  0008               	return
  8971     13E9                     __end_of_i2c_stop:
  8972                           
  8973                           	psect	text41
  8974     13D7                     __ptext41:	
  8975 ;; *************** function _i2c_start *****************
  8976 ;; Defined at:
  8977 ;;		line 30 in file "i2c.c"
  8978 ;; Parameters:    Size  Location     Type
  8979 ;;		None
  8980 ;; Auto vars:     Size  Location     Type
  8981 ;;		None
  8982 ;; Return value:  Size  Location     Type
  8983 ;;                  1    wreg      void 
  8984 ;; Registers used:
  8985 ;;		wreg, status,2, status,0, pclath, cstack
  8986 ;; Tracked objects:
  8987 ;;		On entry : 0/0
  8988 ;;		On exit  : 0/0
  8989 ;;		Unchanged: 0/0
  8990 ;; Data sizes:     COMMON   BANK0   BANK1   BANK3   BANK2
  8991 ;;      Params:         0       0       0       0       0
  8992 ;;      Locals:         0       0       0       0       0
  8993 ;;      Temps:          0       0       0       0       0
  8994 ;;      Totals:         0       0       0       0       0
  8995 ;;Total ram usage:        0 bytes
  8996 ;; Hardware stack levels used: 1
  8997 ;; Hardware stack levels required when called: 2
  8998 ;; This function calls:
  8999 ;;		_i2c_wait_for_idle
  9000 ;; This function is called by:
  9001 ;;		_read_ds1307
  9002 ;;		_write_ds1307
  9003 ;;		_eeprom_at24c04_read
  9004 ;;		_eeprom_at24c04_byte_write
  9005 ;;		_i2c_rep_start
  9006 ;; This function uses a non-reentrant model
  9007 ;;
  9008                           
  9009     13D7                     _i2c_start:	
  9010                           ;psect for function _i2c_start
  9011                           
  9012     13D7                     l3526:	
  9013                           ;incstack = 0
  9014                           ; Regs used in _i2c_start: [wreg+status,2+status,0+pclath+cstack]
  9015                           
  9016                           
  9017                           ;i2c.c: 32:     i2c_wait_for_idle();
  9018     13D7  160A  118A  240A  160A  118A  	fcall	_i2c_wait_for_idle
  9019     13DC                     l3528:
  9020                           
  9021                           ;i2c.c: 33:     SEN = 1;
  9022     13DC  1683               	bsf	3,5	;RP0=1, select bank1
  9023     13DD  1303               	bcf	3,6	;RP1=0, select bank1
  9024     13DE  1411               	bsf	17,0	;volatile
  9025     13DF                     l347:
  9026     13DF  0008               	return
  9027     13E0                     __end_of_i2c_start:
  9028                           
  9029                           	psect	text42
  9030     14EC                     __ptext42:	
  9031 ;; *************** function _i2c_read *****************
  9032 ;; Defined at:
  9033 ;;		line 49 in file "i2c.c"
  9034 ;; Parameters:    Size  Location     Type
  9035 ;;  ack             1    wreg     unsigned char 
  9036 ;; Auto vars:     Size  Location     Type
  9037 ;;  ack             1    2[COMMON] unsigned char 
  9038 ;;  data            1    3[COMMON] unsigned char 
  9039 ;; Return value:  Size  Location     Type
  9040 ;;                  1    wreg      unsigned char 
  9041 ;; Registers used:
  9042 ;;		wreg, status,2, status,0, pclath, cstack
  9043 ;; Tracked objects:
  9044 ;;		On entry : 0/0
  9045 ;;		On exit  : 0/0
  9046 ;;		Unchanged: 0/0
  9047 ;; Data sizes:     COMMON   BANK0   BANK1   BANK3   BANK2
  9048 ;;      Params:         0       0       0       0       0
  9049 ;;      Locals:         2       0       0       0       0
  9050 ;;      Temps:          0       0       0       0       0
  9051 ;;      Totals:         2       0       0       0       0
  9052 ;;Total ram usage:        2 bytes
  9053 ;; Hardware stack levels used: 1
  9054 ;; Hardware stack levels required when called: 2
  9055 ;; This function calls:
  9056 ;;		_i2c_wait_for_idle
  9057 ;; This function is called by:
  9058 ;;		_read_ds1307
  9059 ;;		_eeprom_at24c04_read
  9060 ;; This function uses a non-reentrant model
  9061 ;;
  9062                           
  9063     14EC                     _i2c_read:	
  9064                           ;psect for function _i2c_read
  9065                           
  9066                           
  9067                           ;incstack = 0
  9068                           ; Regs used in _i2c_read: [wreg+status,2+status,0+pclath+cstack]
  9069                           ;i2c_read@ack stored from wreg
  9070     14EC  00F2               	movwf	i2c_read@ack
  9071     14ED                     l3544:
  9072                           
  9073                           ;i2c.c: 49: unsigned char i2c_read(unsigned char ack);i2c.c: 50: {;i2c.c: 51:     unsign
      +                          ed char data;;i2c.c: 53:     i2c_wait_for_idle();
  9074     14ED  160A  118A  240A  160A  118A  	fcall	_i2c_wait_for_idle
  9075     14F2                     l3546:
  9076                           
  9077                           ;i2c.c: 54:     RCEN = 1;
  9078     14F2  1683               	bsf	3,5	;RP0=1, select bank1
  9079     14F3  1303               	bcf	3,6	;RP1=0, select bank1
  9080     14F4  1591               	bsf	17,3	;volatile
  9081                           
  9082                           ;i2c.c: 56:     i2c_wait_for_idle();
  9083     14F5  160A  118A  240A  160A  118A  	fcall	_i2c_wait_for_idle
  9084     14FA                     l3548:
  9085                           
  9086                           ;i2c.c: 57:     data = SSPBUF;
  9087     14FA  1283               	bcf	3,5	;RP0=0, select bank0
  9088     14FB  1303               	bcf	3,6	;RP1=0, select bank0
  9089     14FC  0813               	movf	19,w	;volatile
  9090     14FD  00F3               	movwf	i2c_read@data
  9091     14FE                     l3550:
  9092                           
  9093                           ;i2c.c: 59:     if (ack == 1)
  9094     14FE  0372               	decf	i2c_read@ack,w
  9095     14FF  1D03               	btfss	3,2
  9096     1500  2D02               	goto	u3071
  9097     1501  2D03               	goto	u3070
  9098     1502                     u3071:
  9099     1502  2D07               	goto	l356
  9100     1503                     u3070:
  9101     1503                     l3552:
  9102                           
  9103                           ;i2c.c: 60:     {;i2c.c: 61:         ACKDT = 1;
  9104     1503  1683               	bsf	3,5	;RP0=1, select bank1
  9105     1504  1303               	bcf	3,6	;RP1=0, select bank1
  9106     1505  1691               	bsf	17,5	;volatile
  9107                           
  9108                           ;i2c.c: 62:     }
  9109     1506  2D0A               	goto	l357
  9110     1507                     l356:	
  9111                           ;i2c.c: 63:     else
  9112                           
  9113                           
  9114                           ;i2c.c: 64:     {;i2c.c: 65:         ACKDT = 0;
  9115     1507  1683               	bsf	3,5	;RP0=1, select bank1
  9116     1508  1303               	bcf	3,6	;RP1=0, select bank1
  9117     1509  1291               	bcf	17,5	;volatile
  9118     150A                     l357:	
  9119                           ;i2c.c: 66:     }
  9120                           
  9121                           
  9122                           ;i2c.c: 68:     ACKEN = 1;
  9123     150A  1611               	bsf	17,4	;volatile
  9124     150B                     l3554:
  9125                           
  9126                           ;i2c.c: 70:     return data;
  9127     150B  0873               	movf	i2c_read@data,w
  9128     150C                     l358:
  9129     150C  0008               	return
  9130     150D                     __end_of_i2c_read:
  9131                           
  9132                           	psect	text43
  9133     140A                     __ptext43:	
  9134 ;; *************** function _i2c_wait_for_idle *****************
  9135 ;; Defined at:
  9136 ;;		line 24 in file "i2c.c"
  9137 ;; Parameters:    Size  Location     Type
  9138 ;;		None
  9139 ;; Auto vars:     Size  Location     Type
  9140 ;;		None
  9141 ;; Return value:  Size  Location     Type
  9142 ;;                  1    wreg      void 
  9143 ;; Registers used:
  9144 ;;		wreg, status,2
  9145 ;; Tracked objects:
  9146 ;;		On entry : 0/0
  9147 ;;		On exit  : 0/0
  9148 ;;		Unchanged: 0/0
  9149 ;; Data sizes:     COMMON   BANK0   BANK1   BANK3   BANK2
  9150 ;;      Params:         0       0       0       0       0
  9151 ;;      Locals:         0       0       0       0       0
  9152 ;;      Temps:          0       0       0       0       0
  9153 ;;      Totals:         0       0       0       0       0
  9154 ;;Total ram usage:        0 bytes
  9155 ;; Hardware stack levels used: 1
  9156 ;; Hardware stack levels required when called: 1
  9157 ;; This function calls:
  9158 ;;		Nothing
  9159 ;; This function is called by:
  9160 ;;		_i2c_start
  9161 ;;		_i2c_stop
  9162 ;;		_i2c_read
  9163 ;;		_i2c_write
  9164 ;; This function uses a non-reentrant model
  9165 ;;
  9166                           
  9167     140A                     _i2c_wait_for_idle:	
  9168                           ;psect for function _i2c_wait_for_idle
  9169                           
  9170     140A                     l3522:	
  9171                           ;incstack = 0
  9172                           ; Regs used in _i2c_wait_for_idle: [wreg+status,2]
  9173                           
  9174     140A                     l341:	
  9175                           ;i2c.c: 27:     while (R_nW || (SSPCON2 & 0x1F));
  9176                           
  9177     140A  1683               	bsf	3,5	;RP0=1, select bank1
  9178     140B  1303               	bcf	3,6	;RP1=0, select bank1
  9179     140C  1914               	btfsc	20,2	;volatile
  9180     140D  2C0F               	goto	u3051
  9181     140E  2C10               	goto	u3050
  9182     140F                     u3051:
  9183     140F  2C0A               	goto	l341
  9184     1410                     u3050:
  9185     1410                     l3524:
  9186     1410  0811               	movf	17,w	;volatile
  9187     1411  391F               	andlw	31
  9188     1412  1D03               	btfss	3,2
  9189     1413  2C15               	goto	u3061
  9190     1414  2C16               	goto	u3060
  9191     1415                     u3061:
  9192     1415  2C0A               	goto	l341
  9193     1416                     u3060:
  9194     1416                     l344:
  9195     1416  0008               	return
  9196     1417                     __end_of_i2c_wait_for_idle:
  9197                           
  9198                           	psect	text44
  9199     146D                     __ptext44:	
  9200 ;; *************** function _clcd_putch *****************
  9201 ;; Defined at:
  9202 ;;		line 64 in file "clcd.c"
  9203 ;; Parameters:    Size  Location     Type
  9204 ;;  data            1    wreg     const unsigned char 
  9205 ;;  addr            1    3[BANK0 ] unsigned char 
  9206 ;; Auto vars:     Size  Location     Type
  9207 ;;  data            1    4[BANK0 ] const unsigned char 
  9208 ;; Return value:  Size  Location     Type
  9209 ;;                  1    wreg      void 
  9210 ;; Registers used:
  9211 ;;		wreg, status,2, status,0, pclath, cstack
  9212 ;; Tracked objects:
  9213 ;;		On entry : 0/0
  9214 ;;		On exit  : 0/0
  9215 ;;		Unchanged: 0/0
  9216 ;; Data sizes:     COMMON   BANK0   BANK1   BANK3   BANK2
  9217 ;;      Params:         0       1       0       0       0
  9218 ;;      Locals:         0       1       0       0       0
  9219 ;;      Temps:          0       0       0       0       0
  9220 ;;      Totals:         0       2       0       0       0
  9221 ;;Total ram usage:        2 bytes
  9222 ;; Hardware stack levels used: 1
  9223 ;; Hardware stack levels required when called: 2
  9224 ;; This function calls:
  9225 ;;		_clcd_write
  9226 ;; This function is called by:
  9227 ;;		_display_time
  9228 ;;		_display_dashboard
  9229 ;;		_menu_screen
  9230 ;;		_login
  9231 ;;		_display_logs
  9232 ;;		_change_time
  9233 ;; This function uses a non-reentrant model
  9234 ;;
  9235                           
  9236     146D                     _clcd_putch:	
  9237                           ;psect for function _clcd_putch
  9238                           
  9239                           
  9240                           ;incstack = 0
  9241                           ; Regs used in _clcd_putch: [wreg+status,2+status,0+pclath+cstack]
  9242                           ;clcd_putch@data stored from wreg
  9243     146D  1283               	bcf	3,5	;RP0=0, select bank0
  9244     146E  1303               	bcf	3,6	;RP1=0, select bank0
  9245     146F  00A4               	movwf	clcd_putch@data
  9246     1470                     l3602:
  9247                           
  9248                           ;clcd.c: 64: void clcd_putch(const char data, unsigned char addr);clcd.c: 65: {;clcd.c: 
      +                          66:     clcd_write(addr, 0);
  9249     1470  01F2               	clrf	clcd_write@mode
  9250     1471  0823               	movf	clcd_putch@addr,w
  9251     1472  160A  118A  270F  160A  118A  	fcall	_clcd_write
  9252                           
  9253                           ;clcd.c: 67:     clcd_write(data, 1);
  9254     1477  01F2               	clrf	clcd_write@mode
  9255     1478  0AF2               	incf	clcd_write@mode,f
  9256     1479  1283               	bcf	3,5	;RP0=0, select bank0
  9257     147A  1303               	bcf	3,6	;RP1=0, select bank0
  9258     147B  0824               	movf	clcd_putch@data,w
  9259     147C  160A  118A  270F  160A  118A  	fcall	_clcd_write
  9260     1481                     l215:
  9261     1481  0008               	return
  9262     1482                     __end_of_clcd_putch:
  9263                           
  9264                           	psect	text45
  9265     167C                     __ptext45:	
  9266 ;; *************** function _clcd_print *****************
  9267 ;; Defined at:
  9268 ;;		line 70 in file "clcd.c"
  9269 ;; Parameters:    Size  Location     Type
  9270 ;;  str             2    6[COMMON] PTR const unsigned char 
  9271 ;;		 -> STR_42(17), STR_41(17), STR_40(17), STR_39(17), 
  9272 ;;		 -> STR_38(15), main@event(3), STR_29(3), STR_28(3), 
  9273 ;;		 -> STR_27(3), STR_26(13), STR_25(13), STR_24(16), 
  9274 ;;		 -> STR_17(17), STR_16(17), STR_15(17), STR_14(17), 
  9275 ;;		 -> STR_13(15), STR_12(5), STR_11(9), STR_10(16), 
  9276 ;;		 -> STR_9(14), STR_8(15), STR_7(14), STR_6(15), 
  9277 ;;		 -> STR_5(14), STR_4(9), STR_3(13), STR_2(10), 
  9278 ;;		 -> STR_1(9), 
  9279 ;;  addr            1    8[COMMON] unsigned char 
  9280 ;; Auto vars:     Size  Location     Type
  9281 ;;		None
  9282 ;; Return value:  Size  Location     Type
  9283 ;;                  1    wreg      void 
  9284 ;; Registers used:
  9285 ;;		wreg, fsr0l, fsr0h, status,2, status,0, btemp+1, pclath, cstack
  9286 ;; Tracked objects:
  9287 ;;		On entry : 0/0
  9288 ;;		On exit  : 0/0
  9289 ;;		Unchanged: 0/0
  9290 ;; Data sizes:     COMMON   BANK0   BANK1   BANK3   BANK2
  9291 ;;      Params:         3       0       0       0       0
  9292 ;;      Locals:         0       0       0       0       0
  9293 ;;      Temps:          0       0       0       0       0
  9294 ;;      Totals:         3       0       0       0       0
  9295 ;;Total ram usage:        3 bytes
  9296 ;; Hardware stack levels used: 1
  9297 ;; Hardware stack levels required when called: 2
  9298 ;; This function calls:
  9299 ;;		_clcd_write
  9300 ;; This function is called by:
  9301 ;;		_display_dashboard
  9302 ;;		_menu_screen
  9303 ;;		_login
  9304 ;;		_display_logs
  9305 ;;		_view_log
  9306 ;;		_clear_log
  9307 ;;		_change_time
  9308 ;;		_main
  9309 ;; This function uses a non-reentrant model
  9310 ;;
  9311                           
  9312     167C                     _clcd_print:	
  9313                           ;psect for function _clcd_print
  9314                           
  9315     167C                     l3604:	
  9316                           ;incstack = 0
  9317                           ; Regs used in _clcd_print: [wreg-fsr0h+status,2+status,0+btemp+1+pclath+cstack]
  9318                           
  9319                           
  9320                           ;clcd.c: 70: void clcd_print(const char *str, unsigned char addr);clcd.c: 71: {;clcd.c: 
      +                          72:     clcd_write(addr, 0);
  9321     167C  01F2               	clrf	clcd_write@mode
  9322     167D  0878               	movf	clcd_print@addr,w
  9323     167E  160A  118A  270F  160A  118A  	fcall	_clcd_write
  9324                           
  9325                           ;clcd.c: 74:     while (*str != '\0')
  9326     1683  2E9A               	goto	l3610
  9327     1684                     l3606:
  9328                           
  9329                           ;clcd.c: 75:     {;clcd.c: 76:         clcd_write(*str, 1);
  9330     1684  01F2               	clrf	clcd_write@mode
  9331     1685  0AF2               	incf	clcd_write@mode,f
  9332     1686  0877               	movf	clcd_print@str+1,w
  9333     1687  00FF               	movwf	btemp+1
  9334     1688  0876               	movf	clcd_print@str,w
  9335     1689  0084               	movwf	4
  9336     168A  160A  118A  2000  160A  118A  	fcall	stringtab
  9337     168F  160A  118A  270F  160A  118A  	fcall	_clcd_write
  9338     1694                     l3608:
  9339                           
  9340                           ;clcd.c: 77:         str++;
  9341     1694  3001               	movlw	1
  9342     1695  07F6               	addwf	clcd_print@str,f
  9343     1696  1803               	skipnc
  9344     1697  0AF7               	incf	clcd_print@str+1,f
  9345     1698  3000               	movlw	0
  9346     1699  07F7               	addwf	clcd_print@str+1,f
  9347     169A                     l3610:
  9348                           
  9349                           ;clcd.c: 74:     while (*str != '\0')
  9350     169A  0877               	movf	clcd_print@str+1,w
  9351     169B  1283               	bcf	3,5	;RP0=0, select bank0
  9352     169C  1303               	bcf	3,6	;RP1=0, select bank0
  9353     169D  00FF               	movwf	btemp+1
  9354     169E  0876               	movf	clcd_print@str,w
  9355     169F  0084               	movwf	4
  9356     16A0  160A  118A  2000  160A  118A  	fcall	stringtab
  9357     16A5  3A00               	xorlw	0
  9358     16A6  1D03               	skipz
  9359     16A7  2EA9               	goto	u3141
  9360     16A8  2EAA               	goto	u3140
  9361     16A9                     u3141:
  9362     16A9  2E84               	goto	l3606
  9363     16AA                     u3140:
  9364     16AA                     l221:
  9365     16AA  0008               	return
  9366     16AB                     __end_of_clcd_print:
  9367                           
  9368                           	psect	text46
  9369     170F                     __ptext46:	
  9370 ;; *************** function _clcd_write *****************
  9371 ;; Defined at:
  9372 ;;		line 12 in file "clcd.c"
  9373 ;; Parameters:    Size  Location     Type
  9374 ;;  byte            1    wreg     unsigned char 
  9375 ;;  mode            1    2[COMMON] unsigned char 
  9376 ;; Auto vars:     Size  Location     Type
  9377 ;;  byte            1    5[COMMON] unsigned char 
  9378 ;; Return value:  Size  Location     Type
  9379 ;;                  1    wreg      void 
  9380 ;; Registers used:
  9381 ;;		wreg, status,2, status,0
  9382 ;; Tracked objects:
  9383 ;;		On entry : 0/0
  9384 ;;		On exit  : 0/0
  9385 ;;		Unchanged: 0/0
  9386 ;; Data sizes:     COMMON   BANK0   BANK1   BANK3   BANK2
  9387 ;;      Params:         1       0       0       0       0
  9388 ;;      Locals:         1       0       0       0       0
  9389 ;;      Temps:          2       0       0       0       0
  9390 ;;      Totals:         4       0       0       0       0
  9391 ;;Total ram usage:        4 bytes
  9392 ;; Hardware stack levels used: 1
  9393 ;; Hardware stack levels required when called: 1
  9394 ;; This function calls:
  9395 ;;		Nothing
  9396 ;; This function is called by:
  9397 ;;		_clear_screen
  9398 ;;		_login
  9399 ;;		_change_time
  9400 ;;		_init_display_controller
  9401 ;;		_clcd_putch
  9402 ;;		_clcd_print
  9403 ;;		_main
  9404 ;; This function uses a non-reentrant model
  9405 ;;
  9406                           
  9407     170F                     _clcd_write:	
  9408                           ;psect for function _clcd_write
  9409                           
  9410                           
  9411                           ;incstack = 0
  9412                           ; Regs used in _clcd_write: [wreg+status,2+status,0]
  9413                           ;clcd_write@byte stored from wreg
  9414     170F  00F5               	movwf	clcd_write@byte
  9415     1710                     l3564:
  9416                           
  9417                           ;clcd.c: 12:  void clcd_write(unsigned char byte, unsigned char mode);clcd.c: 13: {;clcd
      +                          .c: 14:     RE2 =(__bit) mode;
  9418     1710  1872               	btfsc	clcd_write@mode,0
  9419     1711  2F13               	goto	u3081
  9420     1712  2F17               	goto	u3080
  9421     1713                     u3081:
  9422     1713  1283               	bcf	3,5	;RP0=0, select bank0
  9423     1714  1303               	bcf	3,6	;RP1=0, select bank0
  9424     1715  1509               	bsf	9,2	;volatile
  9425     1716  2F1A               	goto	u3094
  9426     1717                     u3080:
  9427     1717  1283               	bcf	3,5	;RP0=0, select bank0
  9428     1718  1303               	bcf	3,6	;RP1=0, select bank0
  9429     1719  1109               	bcf	9,2	;volatile
  9430     171A                     u3094:
  9431     171A                     l3566:
  9432                           
  9433                           ;clcd.c: 16:     PORTD = byte & 0xF0;
  9434     171A  0875               	movf	clcd_write@byte,w
  9435     171B  39F0               	andlw	240
  9436     171C  0088               	movwf	8	;volatile
  9437     171D                     l3568:
  9438                           
  9439                           ;clcd.c: 17:     RE1 = 1;
  9440     171D  1489               	bsf	9,1	;volatile
  9441     171E                     l3570:
  9442                           
  9443                           ;clcd.c: 18:     _delay((unsigned long)((100)*(20000000/4000000.0)));
  9444     171E  30A6               	movlw	166
  9445     171F  00F3               	movwf	??_clcd_write
  9446     1720                     u4297:
  9447     1720  0BF3               	decfsz	??_clcd_write,f
  9448     1721  2F20               	goto	u4297
  9449     1722  0000               	nop
  9450     1723                     l3572:
  9451                           
  9452                           ;clcd.c: 19:     RE1 = 0;
  9453     1723  1283               	bcf	3,5	;RP0=0, select bank0
  9454     1724  1303               	bcf	3,6	;RP1=0, select bank0
  9455     1725  1089               	bcf	9,1	;volatile
  9456     1726                     l3574:
  9457                           
  9458                           ;clcd.c: 21:     PORTD = (byte & 0x0F) << (unsigned char) 4;
  9459     1726  0875               	movf	clcd_write@byte,w
  9460     1727  390F               	andlw	15
  9461     1728  00F3               	movwf	??_clcd_write
  9462     1729  3003               	movlw	3
  9463     172A                     u3105:
  9464     172A  1003               	clrc
  9465     172B  0DF3               	rlf	??_clcd_write,f
  9466     172C  3EFF               	addlw	-1
  9467     172D  1D03               	skipz
  9468     172E  2F2A               	goto	u3105
  9469     172F  1003               	clrc
  9470     1730  0D73               	rlf	??_clcd_write,w
  9471     1731  0088               	movwf	8	;volatile
  9472     1732                     l3576:
  9473                           
  9474                           ;clcd.c: 22:     RE1 = 1;
  9475     1732  1489               	bsf	9,1	;volatile
  9476     1733                     l3578:
  9477                           
  9478                           ;clcd.c: 23:     _delay((unsigned long)((100)*(20000000/4000000.0)));
  9479     1733  30A6               	movlw	166
  9480     1734  00F3               	movwf	??_clcd_write
  9481     1735                     u4307:
  9482     1735  0BF3               	decfsz	??_clcd_write,f
  9483     1736  2F35               	goto	u4307
  9484     1737  0000               	nop
  9485     1738                     l3580:
  9486                           
  9487                           ;clcd.c: 24:     RE1 = 0;
  9488     1738  1283               	bcf	3,5	;RP0=0, select bank0
  9489     1739  1303               	bcf	3,6	;RP1=0, select bank0
  9490     173A  1089               	bcf	9,1	;volatile
  9491     173B                     l3582:
  9492                           
  9493                           ;clcd.c: 26:     _delay((unsigned long)((4100)*(20000000/4000000.0)));
  9494     173B  301B               	movlw	27
  9495     173C  00F4               	movwf	??_clcd_write+1
  9496     173D  309E               	movlw	158
  9497     173E  00F3               	movwf	??_clcd_write
  9498     173F                     u4317:
  9499     173F  0BF3               	decfsz	??_clcd_write,f
  9500     1740  2F3F               	goto	u4317
  9501     1741  0BF4               	decfsz	??_clcd_write+1,f
  9502     1742  2F3F               	goto	u4317
  9503     1743  0000               	nop
  9504     1744                     l206:
  9505     1744  0008               	return
  9506     1745                     __end_of_clcd_write:
  9507                           
  9508                           	psect	text47
  9509     1530                     __ptext47:	
  9510 ;; *************** function ___wmul *****************
  9511 ;; Defined at:
  9512 ;;		line 15 in file "C:\Program Files\Microchip\xc8\v2.46\pic\sources\c99\common\Umul16.c"
  9513 ;; Parameters:    Size  Location     Type
  9514 ;;  multiplier      2    2[COMMON] unsigned int 
  9515 ;;  multiplicand    2    4[COMMON] unsigned int 
  9516 ;; Auto vars:     Size  Location     Type
  9517 ;;  product         2    6[COMMON] unsigned int 
  9518 ;; Return value:  Size  Location     Type
  9519 ;;                  2    2[COMMON] unsigned int 
  9520 ;; Registers used:
  9521 ;;		wreg, status,2, status,0
  9522 ;; Tracked objects:
  9523 ;;		On entry : 0/0
  9524 ;;		On exit  : 0/0
  9525 ;;		Unchanged: 0/0
  9526 ;; Data sizes:     COMMON   BANK0   BANK1   BANK3   BANK2
  9527 ;;      Params:         4       0       0       0       0
  9528 ;;      Locals:         2       0       0       0       0
  9529 ;;      Temps:          0       0       0       0       0
  9530 ;;      Totals:         6       0       0       0       0
  9531 ;;Total ram usage:        6 bytes
  9532 ;; Hardware stack levels used: 1
  9533 ;; Hardware stack levels required when called: 1
  9534 ;; This function calls:
  9535 ;;		Nothing
  9536 ;; This function is called by:
  9537 ;;		_change_time
  9538 ;; This function uses a non-reentrant model
  9539 ;;
  9540                           
  9541     1530                     ___wmul:	
  9542                           ;psect for function ___wmul
  9543                           
  9544     1530                     l2624:	
  9545                           ;incstack = 0
  9546                           ; Regs used in ___wmul: [wreg+status,2+status,0]
  9547                           
  9548     1530  01F6               	clrf	___wmul@product
  9549     1531  01F7               	clrf	___wmul@product+1
  9550     1532                     l2626:
  9551     1532  1C72               	btfss	___wmul@multiplier,0
  9552     1533  2D35               	goto	u1851
  9553     1534  2D36               	goto	u1850
  9554     1535                     u1851:
  9555     1535  2D3C               	goto	l627
  9556     1536                     u1850:
  9557     1536                     l2628:
  9558     1536  0874               	movf	___wmul@multiplicand,w
  9559     1537  07F6               	addwf	___wmul@product,f
  9560     1538  1803               	skipnc
  9561     1539  0AF7               	incf	___wmul@product+1,f
  9562     153A  0875               	movf	___wmul@multiplicand+1,w
  9563     153B  07F7               	addwf	___wmul@product+1,f
  9564     153C                     l627:
  9565     153C  3001               	movlw	1
  9566     153D                     u1865:
  9567     153D  1003               	clrc
  9568     153E  0DF4               	rlf	___wmul@multiplicand,f
  9569     153F  0DF5               	rlf	___wmul@multiplicand+1,f
  9570     1540  3EFF               	addlw	-1
  9571     1541  1D03               	skipz
  9572     1542  2D3D               	goto	u1865
  9573     1543                     l2630:
  9574     1543  3001               	movlw	1
  9575     1544                     u1875:
  9576     1544  1003               	clrc
  9577     1545  0CF3               	rrf	___wmul@multiplier+1,f
  9578     1546  0CF2               	rrf	___wmul@multiplier,f
  9579     1547  3EFF               	addlw	-1
  9580     1548  1D03               	skipz
  9581     1549  2D44               	goto	u1875
  9582     154A                     l2632:
  9583     154A  0872               	movf	___wmul@multiplier,w
  9584     154B  0473               	iorwf	___wmul@multiplier+1,w
  9585     154C  1D03               	btfss	3,2
  9586     154D  2D4F               	goto	u1881
  9587     154E  2D50               	goto	u1880
  9588     154F                     u1881:
  9589     154F  2D32               	goto	l2626
  9590     1550                     u1880:
  9591     1550                     l2634:
  9592     1550  0877               	movf	___wmul@product+1,w
  9593     1551  00F3               	movwf	?___wmul+1
  9594     1552  0876               	movf	___wmul@product,w
  9595     1553  00F2               	movwf	?___wmul
  9596     1554                     l629:
  9597     1554  0008               	return
  9598     1555                     __end_of___wmul:
  9599                           
  9600                           	psect	text48
  9601     1745                     __ptext48:	
  9602 ;; *************** function ___lwmod *****************
  9603 ;; Defined at:
  9604 ;;		line 5 in file "C:\Program Files\Microchip\xc8\v2.46\pic\sources\c99\common\lwmod.c"
  9605 ;; Parameters:    Size  Location     Type
  9606 ;;  divisor         2    2[COMMON] unsigned int 
  9607 ;;  dividend        2    4[COMMON] unsigned int 
  9608 ;; Auto vars:     Size  Location     Type
  9609 ;;  counter         1    6[COMMON] unsigned char 
  9610 ;; Return value:  Size  Location     Type
  9611 ;;                  2    2[COMMON] unsigned int 
  9612 ;; Registers used:
  9613 ;;		wreg, status,2, status,0, btemp+1
  9614 ;; Tracked objects:
  9615 ;;		On entry : 0/0
  9616 ;;		On exit  : 0/0
  9617 ;;		Unchanged: 0/0
  9618 ;; Data sizes:     COMMON   BANK0   BANK1   BANK3   BANK2
  9619 ;;      Params:         4       0       0       0       0
  9620 ;;      Locals:         1       0       0       0       0
  9621 ;;      Temps:          0       0       0       0       0
  9622 ;;      Totals:         5       0       0       0       0
  9623 ;;Total ram usage:        5 bytes
  9624 ;; Hardware stack levels used: 1
  9625 ;; Hardware stack levels required when called: 1
  9626 ;; This function calls:
  9627 ;;		Nothing
  9628 ;; This function is called by:
  9629 ;;		_change_time
  9630 ;; This function uses a non-reentrant model
  9631 ;;
  9632                           
  9633     1745                     ___lwmod:	
  9634                           ;psect for function ___lwmod
  9635                           
  9636     1745                     l2746:	
  9637                           ;incstack = 0
  9638                           ; Regs used in ___lwmod: [wreg+status,2+status,0+btemp+1]
  9639                           
  9640     1745  0872               	movf	___lwmod@divisor,w
  9641     1746  0473               	iorwf	___lwmod@divisor+1,w
  9642     1747  1903               	btfsc	3,2
  9643     1748  2F4A               	goto	u2151
  9644     1749  2F4B               	goto	u2150
  9645     174A                     u2151:
  9646     174A  2F7A               	goto	l2764
  9647     174B                     u2150:
  9648     174B                     l2748:
  9649     174B  01F6               	clrf	___lwmod@counter
  9650     174C  0AF6               	incf	___lwmod@counter,f
  9651     174D  2F59               	goto	l2754
  9652     174E                     l2750:
  9653     174E  3001               	movlw	1
  9654     174F                     u2165:
  9655     174F  1003               	clrc
  9656     1750  0DF2               	rlf	___lwmod@divisor,f
  9657     1751  0DF3               	rlf	___lwmod@divisor+1,f
  9658     1752  3EFF               	addlw	-1
  9659     1753  1D03               	skipz
  9660     1754  2F4F               	goto	u2165
  9661     1755                     l2752:
  9662     1755  3001               	movlw	1
  9663     1756  00FF               	movwf	btemp+1
  9664     1757  087F               	movf	btemp+1,w
  9665     1758  07F6               	addwf	___lwmod@counter,f
  9666     1759                     l2754:
  9667     1759  1FF3               	btfss	___lwmod@divisor+1,7
  9668     175A  2F5C               	goto	u2171
  9669     175B  2F5D               	goto	u2170
  9670     175C                     u2171:
  9671     175C  2F4E               	goto	l2750
  9672     175D                     u2170:
  9673     175D                     l2756:
  9674     175D  0873               	movf	___lwmod@divisor+1,w
  9675     175E  0275               	subwf	___lwmod@dividend+1,w
  9676     175F  1D03               	skipz
  9677     1760  2F63               	goto	u2185
  9678     1761  0872               	movf	___lwmod@divisor,w
  9679     1762  0274               	subwf	___lwmod@dividend,w
  9680     1763                     u2185:
  9681     1763  1C03               	skipc
  9682     1764  2F66               	goto	u2181
  9683     1765  2F67               	goto	u2180
  9684     1766                     u2181:
  9685     1766  2F6D               	goto	l2760
  9686     1767                     u2180:
  9687     1767                     l2758:
  9688     1767  0872               	movf	___lwmod@divisor,w
  9689     1768  02F4               	subwf	___lwmod@dividend,f
  9690     1769  0873               	movf	___lwmod@divisor+1,w
  9691     176A  1C03               	skipc
  9692     176B  03F5               	decf	___lwmod@dividend+1,f
  9693     176C  02F5               	subwf	___lwmod@dividend+1,f
  9694     176D                     l2760:
  9695     176D  3001               	movlw	1
  9696     176E                     u2195:
  9697     176E  1003               	clrc
  9698     176F  0CF3               	rrf	___lwmod@divisor+1,f
  9699     1770  0CF2               	rrf	___lwmod@divisor,f
  9700     1771  3EFF               	addlw	-1
  9701     1772  1D03               	skipz
  9702     1773  2F6E               	goto	u2195
  9703     1774                     l2762:
  9704     1774  3001               	movlw	1
  9705     1775  02F6               	subwf	___lwmod@counter,f
  9706     1776  1D03               	btfss	3,2
  9707     1777  2F79               	goto	u2201
  9708     1778  2F7A               	goto	u2200
  9709     1779                     u2201:
  9710     1779  2F5D               	goto	l2756
  9711     177A                     u2200:
  9712     177A                     l2764:
  9713     177A  0875               	movf	___lwmod@dividend+1,w
  9714     177B  00F3               	movwf	?___lwmod+1
  9715     177C  0874               	movf	___lwmod@dividend,w
  9716     177D  00F2               	movwf	?___lwmod
  9717     177E                     l917:
  9718     177E  0008               	return
  9719     177F                     __end_of___lwmod:
  9720                           
  9721                           	psect	text49
  9722     17BA                     __ptext49:	
  9723 ;; *************** function ___lwdiv *****************
  9724 ;; Defined at:
  9725 ;;		line 5 in file "C:\Program Files\Microchip\xc8\v2.46\pic\sources\c99\common\lwdiv.c"
  9726 ;; Parameters:    Size  Location     Type
  9727 ;;  divisor         2    6[COMMON] unsigned int 
  9728 ;;  dividend        2    8[COMMON] unsigned int 
  9729 ;; Auto vars:     Size  Location     Type
  9730 ;;  quotient        2    0[BANK0 ] unsigned int 
  9731 ;;  counter         1    2[BANK0 ] unsigned char 
  9732 ;; Return value:  Size  Location     Type
  9733 ;;                  2    6[COMMON] unsigned int 
  9734 ;; Registers used:
  9735 ;;		wreg, status,2, status,0, btemp+1
  9736 ;; Tracked objects:
  9737 ;;		On entry : 0/0
  9738 ;;		On exit  : 0/0
  9739 ;;		Unchanged: 0/0
  9740 ;; Data sizes:     COMMON   BANK0   BANK1   BANK3   BANK2
  9741 ;;      Params:         4       0       0       0       0
  9742 ;;      Locals:         0       3       0       0       0
  9743 ;;      Temps:          0       0       0       0       0
  9744 ;;      Totals:         4       3       0       0       0
  9745 ;;Total ram usage:        7 bytes
  9746 ;; Hardware stack levels used: 1
  9747 ;; Hardware stack levels required when called: 1
  9748 ;; This function calls:
  9749 ;;		Nothing
  9750 ;; This function is called by:
  9751 ;;		_change_time
  9752 ;;		_main
  9753 ;; This function uses a non-reentrant model
  9754 ;;
  9755                           
  9756     17BA                     ___lwdiv:	
  9757                           ;psect for function ___lwdiv
  9758                           
  9759     17BA                     l2720:	
  9760                           ;incstack = 0
  9761                           ; Regs used in ___lwdiv: [wreg+status,2+status,0+btemp+1]
  9762                           
  9763     17BA  1283               	bcf	3,5	;RP0=0, select bank0
  9764     17BB  1303               	bcf	3,6	;RP1=0, select bank0
  9765     17BC  01A0               	clrf	___lwdiv@quotient
  9766     17BD  01A1               	clrf	___lwdiv@quotient+1
  9767     17BE                     l2722:
  9768     17BE  0876               	movf	___lwdiv@divisor,w
  9769     17BF  0477               	iorwf	___lwdiv@divisor+1,w
  9770     17C0  1903               	btfsc	3,2
  9771     17C1  2FC3               	goto	u2081
  9772     17C2  2FC4               	goto	u2080
  9773     17C3                     u2081:
  9774     17C3  2FFB               	goto	l2742
  9775     17C4                     u2080:
  9776     17C4                     l2724:
  9777     17C4  01A2               	clrf	___lwdiv@counter
  9778     17C5  0AA2               	incf	___lwdiv@counter,f
  9779     17C6  2FD2               	goto	l2730
  9780     17C7                     l2726:
  9781     17C7  3001               	movlw	1
  9782     17C8                     u2095:
  9783     17C8  1003               	clrc
  9784     17C9  0DF6               	rlf	___lwdiv@divisor,f
  9785     17CA  0DF7               	rlf	___lwdiv@divisor+1,f
  9786     17CB  3EFF               	addlw	-1
  9787     17CC  1D03               	skipz
  9788     17CD  2FC8               	goto	u2095
  9789     17CE                     l2728:
  9790     17CE  3001               	movlw	1
  9791     17CF  00FF               	movwf	btemp+1
  9792     17D0  087F               	movf	btemp+1,w
  9793     17D1  07A2               	addwf	___lwdiv@counter,f
  9794     17D2                     l2730:
  9795     17D2  1FF7               	btfss	___lwdiv@divisor+1,7
  9796     17D3  2FD5               	goto	u2101
  9797     17D4  2FD6               	goto	u2100
  9798     17D5                     u2101:
  9799     17D5  2FC7               	goto	l2726
  9800     17D6                     u2100:
  9801     17D6                     l2732:
  9802     17D6  3001               	movlw	1
  9803     17D7                     u2115:
  9804     17D7  1003               	clrc
  9805     17D8  0DA0               	rlf	___lwdiv@quotient,f
  9806     17D9  0DA1               	rlf	___lwdiv@quotient+1,f
  9807     17DA  3EFF               	addlw	-1
  9808     17DB  1D03               	skipz
  9809     17DC  2FD7               	goto	u2115
  9810     17DD  0877               	movf	___lwdiv@divisor+1,w
  9811     17DE  0279               	subwf	___lwdiv@dividend+1,w
  9812     17DF  1D03               	skipz
  9813     17E0  2FE3               	goto	u2125
  9814     17E1  0876               	movf	___lwdiv@divisor,w
  9815     17E2  0278               	subwf	___lwdiv@dividend,w
  9816     17E3                     u2125:
  9817     17E3  1C03               	skipc
  9818     17E4  2FE6               	goto	u2121
  9819     17E5  2FE7               	goto	u2120
  9820     17E6                     u2121:
  9821     17E6  2FEE               	goto	l2738
  9822     17E7                     u2120:
  9823     17E7                     l2734:
  9824     17E7  0876               	movf	___lwdiv@divisor,w
  9825     17E8  02F8               	subwf	___lwdiv@dividend,f
  9826     17E9  0877               	movf	___lwdiv@divisor+1,w
  9827     17EA  1C03               	skipc
  9828     17EB  03F9               	decf	___lwdiv@dividend+1,f
  9829     17EC  02F9               	subwf	___lwdiv@dividend+1,f
  9830     17ED                     l2736:
  9831     17ED  1420               	bsf	___lwdiv@quotient,0
  9832     17EE                     l2738:
  9833     17EE  3001               	movlw	1
  9834     17EF                     u2135:
  9835     17EF  1003               	clrc
  9836     17F0  0CF7               	rrf	___lwdiv@divisor+1,f
  9837     17F1  0CF6               	rrf	___lwdiv@divisor,f
  9838     17F2  3EFF               	addlw	-1
  9839     17F3  1D03               	skipz
  9840     17F4  2FEF               	goto	u2135
  9841     17F5                     l2740:
  9842     17F5  3001               	movlw	1
  9843     17F6  02A2               	subwf	___lwdiv@counter,f
  9844     17F7  1D03               	btfss	3,2
  9845     17F8  2FFA               	goto	u2141
  9846     17F9  2FFB               	goto	u2140
  9847     17FA                     u2141:
  9848     17FA  2FD6               	goto	l2732
  9849     17FB                     u2140:
  9850     17FB                     l2742:
  9851     17FB  0821               	movf	___lwdiv@quotient+1,w
  9852     17FC  00F7               	movwf	?___lwdiv+1
  9853     17FD  0820               	movf	___lwdiv@quotient,w
  9854     17FE  00F6               	movwf	?___lwdiv
  9855     17FF                     l907:
  9856     17FF  0008               	return
  9857     1800                     __end_of___lwdiv:
  9858                           
  9859                           	psect	text50
  9860     16AB                     __ptext50:	
  9861 ;; *************** function _isr *****************
  9862 ;; Defined at:
  9863 ;;		line 4 in file "isr.c"
  9864 ;; Parameters:    Size  Location     Type
  9865 ;;		None
  9866 ;; Auto vars:     Size  Location     Type
  9867 ;;		None
  9868 ;; Return value:  Size  Location     Type
  9869 ;;                  1    wreg      void 
  9870 ;; Registers used:
  9871 ;;		wreg, status,2, status,0
  9872 ;; Tracked objects:
  9873 ;;		On entry : 0/0
  9874 ;;		On exit  : 0/0
  9875 ;;		Unchanged: 0/0
  9876 ;; Data sizes:     COMMON   BANK0   BANK1   BANK3   BANK2
  9877 ;;      Params:         0       0       0       0       0
  9878 ;;      Locals:         0       0       0       0       0
  9879 ;;      Temps:          2       0       0       0       0
  9880 ;;      Totals:         2       0       0       0       0
  9881 ;;Total ram usage:        2 bytes
  9882 ;; Hardware stack levels used: 1
  9883 ;; This function calls:
  9884 ;;		Nothing
  9885 ;; This function is called by:
  9886 ;;		Interrupt level 1
  9887 ;; This function uses a non-reentrant model
  9888 ;;
  9889                           
  9890     16AB                     _isr:	
  9891                           ;psect for function _isr
  9892                           
  9893     16AB                     i1l3482:
  9894                           
  9895                           ;isr.c: 6:     static unsigned int count = 0;;isr.c: 8:     if (TMR2IF == 1)
  9896     16AB  1283               	bcf	3,5	;RP0=0, select bank0
  9897     16AC  1303               	bcf	3,6	;RP1=0, select bank0
  9898     16AD  1C8C               	btfss	12,1	;volatile
  9899     16AE  2EB0               	goto	u299_21
  9900     16AF  2EB1               	goto	u299_20
  9901     16B0                     u299_21:
  9902     16B0  2ED6               	goto	i1l482
  9903     16B1                     u299_20:
  9904     16B1                     i1l3484:
  9905                           
  9906                           ;isr.c: 9:     {;isr.c: 10:         if (++count == 1250)
  9907     16B1  3001               	movlw	1
  9908     16B2  07D4               	addwf	isr@count,f
  9909     16B3  1803               	skipnc
  9910     16B4  0AD5               	incf	isr@count+1,f
  9911     16B5  3000               	movlw	0
  9912     16B6  07D5               	addwf	isr@count+1,f
  9913     16B7  30E2               	movlw	226
  9914     16B8  0654               	xorwf	isr@count,w
  9915     16B9  3004               	movlw	4
  9916     16BA  1903               	skipnz
  9917     16BB  0655               	xorwf	isr@count+1,w
  9918     16BC  1D03               	btfss	3,2
  9919     16BD  2EBF               	goto	u300_21
  9920     16BE  2EC0               	goto	u300_20
  9921     16BF                     u300_21:
  9922     16BF  2ED5               	goto	i1l3496
  9923     16C0                     u300_20:
  9924     16C0                     i1l3486:
  9925                           
  9926                           ;isr.c: 11:         {;isr.c: 12:             if(sec > 0){
  9927     16C0  0865               	movf	_sec,w
  9928     16C1  1903               	btfsc	3,2
  9929     16C2  2EC4               	goto	u301_21
  9930     16C3  2EC5               	goto	u301_20
  9931     16C4                     u301_21:
  9932     16C4  2EC7               	goto	i1l480
  9933     16C5                     u301_20:
  9934     16C5                     i1l3488:
  9935                           
  9936                           ;isr.c: 13:               sec --;
  9937     16C5  3001               	movlw	1
  9938     16C6  02E5               	subwf	_sec,f
  9939     16C7                     i1l480:	
  9940                           ;isr.c: 14:             }
  9941                           
  9942                           
  9943                           ;isr.c: 15:             if(sec == 0 && ret_time > 0){
  9944     16C7  0865               	movf	_sec,w
  9945     16C8  1D03               	btfss	3,2
  9946     16C9  2ECB               	goto	u302_21
  9947     16CA  2ECC               	goto	u302_20
  9948     16CB                     u302_21:
  9949     16CB  2ED3               	goto	i1l3494
  9950     16CC                     u302_20:
  9951     16CC                     i1l3490:
  9952     16CC  0864               	movf	_ret_time,w
  9953     16CD  1903               	btfsc	3,2
  9954     16CE  2ED0               	goto	u303_21
  9955     16CF  2ED1               	goto	u303_20
  9956     16D0                     u303_21:
  9957     16D0  2ED3               	goto	i1l3494
  9958     16D1                     u303_20:
  9959     16D1                     i1l3492:
  9960                           
  9961                           ;isr.c: 16:                 ret_time --;
  9962     16D1  3001               	movlw	1
  9963     16D2  02E4               	subwf	_ret_time,f
  9964     16D3                     i1l3494:
  9965                           
  9966                           ;isr.c: 18:             count = 0;
  9967     16D3  01D4               	clrf	isr@count
  9968     16D4  01D5               	clrf	isr@count+1
  9969     16D5                     i1l3496:
  9970                           
  9971                           ;isr.c: 23:         TMR2IF = 0;
  9972     16D5  108C               	bcf	12,1	;volatile
  9973     16D6                     i1l482:
  9974     16D6  0871               	movf	??_isr+1,w
  9975     16D7  008A               	movwf	10
  9976     16D8  0E70               	swapf	??_isr,w
  9977     16D9  0083               	movwf	3
  9978     16DA  0EFE               	swapf	btemp,f
  9979     16DB  0E7E               	swapf	btemp,w
  9980     16DC  0009               	retfie
  9981     16DD                     __end_of_isr:
  9982     007E                     btemp	set	126	;btemp
  9983     007E                     wtemp0	set	126
  9984                           
  9985                           	psect	intentry
  9986     0004                     __pintentry:	
  9987                           ;incstack = 0
  9988                           ; Regs used in _isr: [wreg+status,2+status,0]
  9989                           
  9990     0004                     interrupt_function:
  9991     007E                     saved_w	set	btemp
  9992     0004  00FE               	movwf	btemp
  9993     0005  0E03               	swapf	3,w
  9994     0006  00F0               	movwf	??_isr
  9995     0007  080A               	movf	10,w
  9996     0008  00F1               	movwf	??_isr+1
  9997     0009  160A  118A  2EAB   	ljmp	_isr
  9998                           
  9999                           	psect	config
 10000                           
 10001                           ;Config register CONFIG @ 0x2007
 10002                           ;	Oscillator Selection bits
 10003                           ;	FOSC = 0x3, unprogrammed default
 10004                           ;	Watchdog Timer Enable bit
 10005                           ;	WDTE = OFF, WDT disabled
 10006                           ;	Power-up Timer Enable bit
 10007                           ;	PWRTE = 0x1, unprogrammed default
 10008                           ;	Brown-out Reset Enable bit
 10009                           ;	BOREN = 0x1, unprogrammed default
 10010                           ;	Low-Voltage (Single-Supply) In-Circuit Serial Programming Enable bit
 10011                           ;	LVP = 0x1, unprogrammed default
 10012                           ;	Data EEPROM Memory Code Protection bit
 10013                           ;	CPD = 0x1, unprogrammed default
 10014                           ;	Flash Program Memory Write Enable bits
 10015                           ;	WRT = 0x3, unprogrammed default
 10016                           ;	In-Circuit Debugger Mode bit
 10017                           ;	DEBUG = 0x1, unprogrammed default
 10018                           ;	Flash Program Memory Code Protection bit
 10019                           ;	CP = 0x1, unprogrammed default
 10020     2007                     	org	8199
 10021     2007  3FFB               	dw	16379

Data Sizes:
    Strings     370
    Constant    0
    Data        29
    BSS         50
    Persistent  0
    Stack       0

Auto Spaces:
    Space          Size  Autos    Used
    COMMON           14     10      12
    BANK0            80     43      80
    BANK1            80      0      40
    BANK3            96      0       0
    BANK2            96      0       0

Pointer List with Targets:

    clcd_print@str	PTR const unsigned char  size(2) Largest target is 17
		 -> main@event(BANK0[3]), STR_1(CODE[9]), STR_10(CODE[16]), STR_11(CODE[9]), 
		 -> STR_12(CODE[5]), STR_13(CODE[15]), STR_14(CODE[17]), STR_15(CODE[17]), 
		 -> STR_16(CODE[17]), STR_17(CODE[17]), STR_2(CODE[10]), STR_24(CODE[16]), 
		 -> STR_25(CODE[13]), STR_26(CODE[13]), STR_27(CODE[3]), STR_28(CODE[3]), 
		 -> STR_29(CODE[3]), STR_3(CODE[13]), STR_38(CODE[15]), STR_39(CODE[17]), 
		 -> STR_4(CODE[9]), STR_40(CODE[17]), STR_41(CODE[17]), STR_42(CODE[17]), 
		 -> STR_5(CODE[14]), STR_6(CODE[15]), STR_7(CODE[14]), STR_8(CODE[15]), 
		 -> STR_9(CODE[14]), 

    display_dashboard@event	PTR unsigned char  size(1) Largest target is 3
		 -> main@event(BANK0[3]), 

    eeprom_at24c04_str_write@data	PTR unsigned char  size(2) Largest target is 11
		 -> log(BANK1[11]), STR_36(CODE[5]), 

    log_car_event@event	PTR unsigned char  size(1) Largest target is 3
		 -> main@event(BANK0[3]), 

    main@F1226	PTR unsigned char [6] size(2) Largest target is 3
		 -> STR_30(CODE[3]), STR_31(CODE[3]), STR_32(CODE[3]), STR_33(CODE[3]), 
		 -> STR_34(CODE[3]), STR_35(CODE[3]), 

    main@gear	PTR unsigned char [6] size(2) Largest target is 3
		 -> STR_30(CODE[3]), STR_31(CODE[3]), STR_32(CODE[3]), STR_33(CODE[3]), 
		 -> STR_34(CODE[3]), STR_35(CODE[3]), 

    menu	PTR unsigned char [5] size(2) Largest target is 14
		 -> STR_1(CODE[9]), STR_2(CODE[10]), STR_3(CODE[13]), STR_4(CODE[9]), 
		 -> STR_5(CODE[14]), 

    puts@s	PTR const unsigned char  size(2) Largest target is 36
		 -> STR_18(CODE[18]), STR_19(CODE[7]), STR_20(CODE[36]), STR_21(CODE[4]), 
		 -> STR_22(CODE[7]), STR_23(CODE[13]), 

    sp__strcpy	PTR unsigned char  size(1) Largest target is 3
		 -> main@event(BANK0[3]), 

    sp__strncpy	PTR unsigned char  size(1) Largest target is 11
		 -> log(BANK1[11]), 

    strcpy@d	PTR unsigned char  size(1) Largest target is 3
		 -> main@event(BANK0[3]), 

    strcpy@dest	PTR unsigned char  size(1) Largest target is 3
		 -> main@event(BANK0[3]), 

    strcpy@src	PTR const unsigned char  size(2) Largest target is 3
		 -> STR_30(CODE[3]), STR_31(CODE[3]), STR_32(CODE[3]), STR_33(CODE[3]), 
		 -> STR_34(CODE[3]), STR_35(CODE[3]), STR_37(CODE[3]), 

    strncmp@l	PTR const unsigned char  size(1) Largest target is 4
		 -> login@u_password(BANK1[4]), 

    strncmp@r	PTR const unsigned char  size(1) Largest target is 4
		 -> login@s_password(BANK0[4]), 

    strncpy@cp	PTR unsigned char  size(1) Largest target is 11
		 -> log(BANK1[11]), 

    strncpy@d	PTR unsigned char  size(1) Largest target is 11
		 -> log(BANK1[11]), 

    strncpy@s	PTR const unsigned char  size(1) Largest target is 7
		 -> main@event(BANK0[3]), time(BANK0[7]), 


Critical Paths under _main in COMMON

    _main->___lwdiv
    _login->___awdiv
    _log_car_event->___awdiv
    _log_event->_eeprom_at24c04_str_write
    _eeprom_at24c04_str_write->_eeprom_at24c04_byte_write
    _eeprom_at24c04_byte_write->_i2c_write
    _init_i2c->___lldiv
    _init_ds1307->_read_ds1307
    _init_clcd->_init_display_controller
    _init_display_controller->_clcd_write
    _download_log->_eeprom_at24c04_read
    _puts->_putchar
    _eeprom_at24c04_read->_i2c_read
    _display_dashboard->___awdiv
    _clear_log->_clcd_print
    _clear_screen->_clcd_write
    _change_time->___lwdiv
    _write_ds1307->_i2c_write
    _get_time->_read_ds1307
    _read_ds1307->_i2c_read
    _clcd_putch->___awdiv
    _clcd_putch->___lwdiv
    _clcd_print->_clcd_write
    ___lwdiv->_read_adc

Critical Paths under _isr in COMMON

    None.

Critical Paths under _main in BANK0

    _main->_download_log
    _view_log->_display_logs
    _display_logs->_clcd_putch
    _menu_screen->_clcd_putch
    _login->_clcd_putch
    _init_config->_init_i2c
    _init_i2c->___lldiv
    _display_dashboard->_clcd_putch
    _display_time->_clcd_putch
    _change_time->_clcd_putch
    _clcd_putch->___lwdiv

Critical Paths under _isr in BANK0

    None.

Critical Paths under _main in BANK1

    None.

Critical Paths under _isr in BANK1

    None.

Critical Paths under _main in BANK3

    None.

Critical Paths under _isr in BANK3

    None.

Critical Paths under _main in BANK2

    None.

Critical Paths under _isr in BANK2

    None.

Call Graph Tables:

 ---------------------------------------------------------------------------------
 (Depth) Function   	        Calls       Base Space   Used Autos Params    Refs
 ---------------------------------------------------------------------------------
 (0) _main                                                30    30      0  130568
                                             18 BANK0     25    25      0
                            ___lwdiv
                        _change_time
                         _clcd_print
                         _clcd_write
                          _clear_log
                       _clear_screen
                  _display_dashboard
                       _download_log
           _eeprom_at24c04_str_write
                        _init_config
                      _log_car_event
                              _login
                        _menu_screen
                           _read_adc
                _read_digital_keypad
                             _strcpy
                           _view_log
 ---------------------------------------------------------------------------------
 (1) _view_log                                             5     4      1   23528
                                              7 BANK0      5     4      1
                         _clcd_print
                       _display_logs
 ---------------------------------------------------------------------------------
 (2) _display_logs                                         2     0      2   16285
                                              5 BANK0      2     0      2
                             ___bmul
                         _clcd_print
                         _clcd_putch
                       _clear_screen
                _eeprom_at24c04_read
 ---------------------------------------------------------------------------------
 (2) _strcpy                                               6     4      2     400
                                              2 COMMON     6     4      2
 ---------------------------------------------------------------------------------
 (1) _read_digital_keypad                                  5     5      0     312
                                              2 COMMON     5     5      0
 ---------------------------------------------------------------------------------
 (1) _read_adc                                             4     2      2      23
                                              2 COMMON     4     2      2
 ---------------------------------------------------------------------------------
 (1) _menu_screen                                          4     3      1   14480
                                              5 BANK0      4     3      1
                         _clcd_print
                         _clcd_putch
                       _clear_screen
 ---------------------------------------------------------------------------------
 (1) _login                                               11    10      1   19066
                                              5 BANK0     11    10      1
                            ___awdiv
                            ___awmod
                         _clcd_print
                         _clcd_putch
                         _clcd_write
                       _clear_screen
                _eeprom_at24c04_read
                            _strncmp
 ---------------------------------------------------------------------------------
 (2) _strncmp                                              6     3      3     364
                                              2 COMMON     6     3      3
 ---------------------------------------------------------------------------------
 (1) _log_car_event                                        4     3      1    5060
                                              0 BANK0      4     3      1
                            ___awdiv
                            ___awmod
                           _get_time
                          _log_event
                            _strncpy
 ---------------------------------------------------------------------------------
 (2) _strncpy                                              5     2      3     634
                                              2 COMMON     5     2      3
 ---------------------------------------------------------------------------------
 (2) _log_event                                            1     1      0    1836
                                              8 COMMON     1     1      0
                             ___bmul
           _eeprom_at24c04_str_write
 ---------------------------------------------------------------------------------
 (3) _eeprom_at24c04_str_write                             3     1      2     552
                                              5 COMMON     3     1      2
          _eeprom_at24c04_byte_write
 ---------------------------------------------------------------------------------
 (4) _eeprom_at24c04_byte_write                            2     1      1     273
                                              3 COMMON     2     1      1
                          _i2c_start
                           _i2c_stop
                          _i2c_write
 ---------------------------------------------------------------------------------
 (1) _init_config                                          0     0      0    3297
                           _init_adc
                          _init_clcd
                _init_digital_keypad
                        _init_ds1307
                           _init_i2c
                        _init_timer2
 ---------------------------------------------------------------------------------
 (2) _init_timer2                                          0     0      0       0
 ---------------------------------------------------------------------------------
 (2) _init_i2c                                             8     4      4     722
                                              6 BANK0      8     4      4
                            ___lldiv
 ---------------------------------------------------------------------------------
 (3) ___lldiv                                             14     6      8     601
                                              2 COMMON     8     0      8
                                              0 BANK0      6     6      0
 ---------------------------------------------------------------------------------
 (2) _init_ds1307                                          1     1      0     682
                                              6 COMMON     1     1      0
                        _read_ds1307
                       _write_ds1307
 ---------------------------------------------------------------------------------
 (2) _init_digital_keypad                                  0     0      0       0
 ---------------------------------------------------------------------------------
 (2) _init_clcd                                            0     0      0    1893
            _init_display_controller
 ---------------------------------------------------------------------------------
 (3) _init_display_controller                              2     2      0    1893
                                              6 COMMON     2     2      0
                         _clcd_write
 ---------------------------------------------------------------------------------
 (2) _init_adc                                             0     0      0       0
 ---------------------------------------------------------------------------------
 (1) _download_log                                        19    19      0    2633
                                              6 COMMON     1     1      0
                                              0 BANK0     18    18      0
                             ___bmul
                _eeprom_at24c04_read
                            _putchar
                               _puts
 ---------------------------------------------------------------------------------
 (2) _puts                                                 2     0      2     523
                                              3 COMMON     2     0      2
                            _putchar
 ---------------------------------------------------------------------------------
 (3) _putchar                                              1     1      0      22
                                              2 COMMON     1     1      0
 ---------------------------------------------------------------------------------
 (3) _eeprom_at24c04_read                                  2     2      0     161
                                              4 COMMON     2     2      0
                           _i2c_read
                      _i2c_rep_start
                          _i2c_start
                           _i2c_stop
                          _i2c_write
 ---------------------------------------------------------------------------------
 (3) ___bmul                                               3     2      1    1216
                                              2 COMMON     3     2      1
 ---------------------------------------------------------------------------------
 (1) _display_dashboard                                    4     3      1   20117
                                              5 BANK0      4     3      1
                            ___awdiv
                            ___awmod
                         _clcd_print
                         _clcd_putch
                       _display_time
 ---------------------------------------------------------------------------------
 (2) _display_time                                         0     0      0    5536
                         _clcd_putch
                           _get_time
 ---------------------------------------------------------------------------------
 (2) ___awmod                                              6     2      4     973
                                              2 COMMON     6     2      4
 ---------------------------------------------------------------------------------
 (2) ___awdiv                                              8     4      4     985
                                              2 COMMON     8     4      4
 ---------------------------------------------------------------------------------
 (1) _clear_log                                            3     3      0    8922
                                              0 BANK0      3     3      0
                         _clcd_print
                       _clear_screen
 ---------------------------------------------------------------------------------
 (3) _clear_screen                                         2     2      0    1893
                                              6 COMMON     2     2      0
                         _clcd_write
 ---------------------------------------------------------------------------------
 (1) _change_time                                          7     5      2   18765
                                              5 BANK0      7     5      2
                            ___lwdiv
                            ___lwmod
                             ___wmul
                         _clcd_print
                         _clcd_putch
                         _clcd_write
                           _get_time
                       _write_ds1307
 ---------------------------------------------------------------------------------
 (3) _write_ds1307                                         2     1      1     453
                                              3 COMMON     2     1      1
                          _i2c_start
                           _i2c_stop
                          _i2c_write
 ---------------------------------------------------------------------------------
 (2) _get_time                                             1     1      0     161
                                              6 COMMON     1     1      0
                        _read_ds1307
 ---------------------------------------------------------------------------------
 (3) _read_ds1307                                          2     2      0     161
                                              4 COMMON     2     2      0
                           _i2c_read
                      _i2c_rep_start
                          _i2c_start
                           _i2c_stop
                          _i2c_write
 ---------------------------------------------------------------------------------
 (4) _i2c_write                                            1     1      0      31
                                              2 COMMON     1     1      0
                  _i2c_wait_for_idle
 ---------------------------------------------------------------------------------
 (4) _i2c_rep_start                                        0     0      0       0
                          _i2c_start
                           _i2c_stop
 ---------------------------------------------------------------------------------
 (4) _i2c_stop                                             0     0      0       0
                  _i2c_wait_for_idle
 ---------------------------------------------------------------------------------
 (4) _i2c_start                                            0     0      0       0
                  _i2c_wait_for_idle
 ---------------------------------------------------------------------------------
 (4) _i2c_read                                             2     2      0      65
                                              2 COMMON     2     2      0
                  _i2c_wait_for_idle
 ---------------------------------------------------------------------------------
 (5) _i2c_wait_for_idle                                    0     0      0       0
 ---------------------------------------------------------------------------------
 (3) _clcd_putch                                           2     1      1    5375
                                              3 BANK0      2     1      1
                            ___awdiv (ARG)
                            ___awmod (ARG)
                             ___bmul (ARG)
                            ___lwdiv (ARG)
                            ___lwmod (ARG)
                         _clcd_write
                _eeprom_at24c04_read (ARG)
 ---------------------------------------------------------------------------------
 (3) _clcd_print                                           3     0      3    7029
                                              6 COMMON     3     0      3
                         _clcd_write
 ---------------------------------------------------------------------------------
 (4) _clcd_write                                           4     3      1    1893
                                              2 COMMON     4     3      1
 ---------------------------------------------------------------------------------
 (2) ___wmul                                               6     2      4    1148
                                              2 COMMON     6     2      4
 ---------------------------------------------------------------------------------
 (2) ___lwmod                                              5     1      4    1223
                                              2 COMMON     5     1      4
 ---------------------------------------------------------------------------------
 (2) ___lwdiv                                              7     3      4    1226
                                              6 COMMON     4     0      4
                                              0 BANK0      3     3      0
                           _read_adc (ARG)
 ---------------------------------------------------------------------------------
 Estimated maximum stack depth 5
 ---------------------------------------------------------------------------------
 (Depth) Function   	        Calls       Base Space   Used Autos Params    Refs
 ---------------------------------------------------------------------------------
 (8) _isr                                                  2     2      0       0
                                              0 COMMON     2     2      0
 ---------------------------------------------------------------------------------
 Estimated maximum stack depth 8
 ---------------------------------------------------------------------------------

 Call Graph Graphs:

 _main (ROOT)
   ___lwdiv
     _read_adc (ARG)
   _change_time
     ___lwdiv
     ___lwmod
     ___wmul
     _clcd_print
       _clcd_write
     _clcd_putch
       ___awdiv (ARG)
       ___awmod (ARG)
       ___bmul (ARG)
       ___lwdiv (ARG)
       ___lwmod (ARG)
       _clcd_write (ARG)
       _eeprom_at24c04_read (ARG)
         _i2c_read
           _i2c_wait_for_idle
         _i2c_rep_start
           _i2c_start
             _i2c_wait_for_idle
           _i2c_stop
             _i2c_wait_for_idle
         _i2c_start
         _i2c_stop
         _i2c_write
           _i2c_wait_for_idle
     _clcd_write
     _get_time
       _read_ds1307
         _i2c_read
         _i2c_rep_start
         _i2c_start
         _i2c_stop
         _i2c_write
     _write_ds1307
       _i2c_start
       _i2c_stop
       _i2c_write
   _clcd_print
   _clcd_write
   _clear_log
     _clcd_print
     _clear_screen
       _clcd_write
   _clear_screen
   _display_dashboard
     ___awdiv
     ___awmod
     _clcd_print
     _clcd_putch
     _display_time
       _clcd_putch
       _get_time
   _download_log
     ___bmul
     _eeprom_at24c04_read
     _putchar
     _puts
       _putchar
   _eeprom_at24c04_str_write
     _eeprom_at24c04_byte_write
       _i2c_start
       _i2c_stop
       _i2c_write
   _init_config
     _init_adc
     _init_clcd
       _init_display_controller
         _clcd_write
     _init_digital_keypad
     _init_ds1307
       _read_ds1307
       _write_ds1307
     _init_i2c
       ___lldiv
     _init_timer2
   _log_car_event
     ___awdiv
     ___awmod
     _get_time
     _log_event
       ___bmul
       _eeprom_at24c04_str_write
     _strncpy
   _login
     ___awdiv
     ___awmod
     _clcd_print
     _clcd_putch
     _clcd_write
     _clear_screen
     _eeprom_at24c04_read
     _strncmp
   _menu_screen
     _clcd_print
     _clcd_putch
     _clear_screen
   _read_adc
   _read_digital_keypad
   _strcpy
   _view_log
     _clcd_print
     _display_logs
       ___bmul
       _clcd_print
       _clcd_putch
       _clear_screen
       _eeprom_at24c04_read

 _isr (ROOT)

 Address spaces:
Name               Size   Autos  Total    Cost      Usage
BANK3               60      0       0       9        0.0%
BITBANK3            60      0       0       8        0.0%
SFR3                 0      0       0       4        0.0%
BITSFR3              0      0       0       4        0.0%
BANK2               60      0       0      11        0.0%
BITBANK2            60      0       0      10        0.0%
SFR2                 0      0       0       5        0.0%
BITSFR2              0      0       0       5        0.0%
BANK1               50      0      28       7       50.0%
BITBANK1            50      0       0       6        0.0%
SFR1                 0      0       0       2        0.0%
BITSFR1              0      0       0       2        0.0%
BANK0               50     2B      50       5      100.0%
BITBANK0            50      0       0       4        0.0%
SFR0                 0      0       0       1        0.0%
BITSFR0              0      0       0       1        0.0%
COMMON               E      A       C       1       85.7%
BITCOMMON            E      0       0       0        0.0%
CODE                 0      0       0       0        0.0%
DATA                 0      0      84      12        0.0%
ABS                  0      0      84       3        0.0%
NULL                 0      0       0       0        0.0%
STACK                0      0       0       2        0.0%
EEDATA             100      0       0       0        0.0%


Microchip Technology PIC Macro Assembler V2.46 build 20240104201356 
Symbol Table                                                                                   Thu May 29 19:30:13 2025

                                pc 0002                     ___bmul@product 0073  
                   clcd_print@addr 0078                                 l21 1446  
                               l15 13CE                                 l18 1438  
                               l70 09CA                                 l80 164E  
                               l73 0A70                                 l83 0B1E  
                               l76 0AC7                                 l94 0DCD  
                               l97 1434                                 _GO 00FA  
                     ___awdiv@sign 0077                                 fsr 0004  
              ___wmul@multiplicand 0074                                l300 15F7  
                              l212 097D                                l132 07F9  
                              l221 16AA                                l109 073C  
                              l206 1744                                l126 0EE3  
                              l215 1481                                l303 14EB  
                              l209 0BDA                                l146 07F9  
                              l228 07FF                                l341 140A  
                              l149 15A1                                l309 167B  
                              l350 13F3                                l174 0316  
                              l238 0D2E                                l159 0FFF  
                              l344 1416                                l280 14CD  
                              l416 1622                                l248 0CEB  
                              l353 13E8                                l361 13FE  
                              l274 1459                                l338 170E  
                              l506 1423                                l347 13DF  
                              l356 1507                                l436 04C9  
                              l357 150A                                l277 15CC  
                              l533 1404                                l541 157A  
                              l358 150C                                l534 1408  
                              l535 1409                                l627 153C  
                              l629 1554                                l653 1496  
                              l663 0CA9                                l907 17FF  
                              l780 0C41                                l917 177E  
                              l793 0B77                                _GIE 005F  
                              _RE1 0049                                _RE2 004A  
                              _PR2 0092                      ?_display_logs 0025  
                              _PEN 048A                                _SEN 0488  
                              _PSA 040B                      ?_display_time 0070  
                    log_event@addr 0078                                _log 00B9  
                              _sec 0065                                _isr 16AB  
                   clcd_putch@addr 0023                                _pos 007A  
                              fsr0 0004                     clcd_putch@data 0024  
                              indf 0000                       ___awmod@sign 0077  
 __end_of_eeprom_at24c04_str_write 167C                 view_log@reset_flag 0027  
               log_car_event@event 0023                 log_car_event@speed 0020  
                             l1108 17B9                               l1093 0A1A  
                             l4000 0675                               l3200 0CB5  
                             l1089 152F              ??_read_digital_keypad 0072  
                             l4010 06A2                               l4002 067A  
                             l3210 0CC3                               l4100 0EEA  
                             l4020 0710                               l4004 0681  
                             l4012 06B1                               l3220 0CE2  
                             l3212 0CC9                               l4110 0F06  
                             l4102 0EEB                               l2502 13C8  
                             l4030 0730                               l4022 0717  
                             l4014 06B6                               l4006 068C  
                             l3230 0CF5                               l3222 0CE7  
                             l3214 0CD8                               l3206 0CB7  
                             l4200 013A                               l2432 1400  
                             l4112 0F0C                               l4104 0EEB  
                             l4032 0737                               l4016 06D7  
                             l4024 0719                               l4008 0697  
                             l3240 0D0A                               l3216 0CDA  
                             l3232 0CF8                               l3208 0CBD  
                             l4040 0753                               l4210 01B2  
                             l4202 016E                               l4130 0F56  
                             l4114 0F22                               l4106 0EF3  
                             l2602 07FA                               l4034 073A  
                             l4026 071E                               l4018 06DC  
                             l3250 0D1D                               l3234 0CFE  
                             l3218 0CDC                               l3226 0CED  
                             l4050 0781                               l4042 075F  
                             l4220 01E2                               l4212 01B9  
                             l4204 0176                               l4140 0F85  
                             l4132 0F63                               l4124 0F34  
                             l4116 0F2C                               l4108 0EFD  
                             l2620 141F                               l2540 09DD  
                             l4028 0729                               l3252 0D23  
                             l3260 0D25                               l3236 0D04  
                             l3228 0CF3                               l3244 0D0C  
                             l4060 079F                               l4052 0787  
                             l4044 0767                               l4036 0740  
                             l2630 1543                               l4230 01FD  
                             l4214 01C4                               l4206 01A6  
                             l4150 0FA9                               l4142 0F8B  
                             l4134 0F6C                               l4126 0F43  
                             l4118 0F32                               l2622 1420  
                             l2550 0A00                               l2542 09E5  
                             l2534 09CC                               l3262 0D2B  
                             l3246 0D12                               l3238 0D08  
                             l4070 07CC                               l4054 078D  
                             l4046 0769                               l4038 074B  
                             l4310 0320                               l2720 17BA  
                             l2632 154A                               l2624 1530  
                             l3600 09C9                               l4240 0215  
                             l4232 01FF                               l4216 01CF  
                             l4208 01AA                               l4160 0FE3  
                             l4152 0FB1                               l4144 0F93  
                             l4136 0F75                               l4128 0F4E  
                             l2616 1417                               l2552 0A0C  
                             l2536 09DA                               l2544 09EB  
                             l3264 0D2D                               l3248 0D17  
                             l4080 07EA                               l4072 07D2  
                             l4064 07B4                               l4056 0793  
                             l4048 0771                               l4400 046B  
                             l4320 0348                               l4312 0332  
                             l2730 17D2                               l2722 17BE  
                             l2634 1550                               l2626 1532  
                             l3610 169A                               l3602 1470  
                             l3522 140A                               l3530 13E0  
                             l4250 022E                               l4242 021F  
                             l4234 0208                               l4218 01D3  
                             l4226 01E9                               l4170 00B3  
                             l4090 157F                               l4162 0FE9  
                             l4154 0FCA                               l4146 0F9B  
                             l4138 0F7D                               l2618 141B  
                             l2546 09F3                               l4082 07F0  
                             l4074 07DA                               l4058 079A  
                             l4066 07C0                               l4410 0485  
                             l4402 0479                               l4330 037B  
                             l4322 0348                               l4314 0332  
                             l4306 0317                               l2740 17F5  
                             l2732 17D6                               l2724 17C4  
                             l2628 1536                               l3604 167C  
                             l3524 1410                               l3532 13E5  
                             l4252 0239                               l4244 0220  
                             l4236 020A                               l4228 01F4  
                             l4180 00C7                               l4172 00BE  
                             l4092 1583                               l3700 0A1B  
                             l4156 0FD3                               l4148 0FA1  
                             l4164 0FEF                               l3620 166B  
                             l3612 1650                               l2548 09FA  
                             l3196 0CAB                               l3284 150E  
                             l4076 07DF                               l4068 07C6  
                             l4412 0489                               l4404 047D  
                             l4420 04A0                               l4340 03A4  
                             l4332 0381                               l4324 0352  
                             l4316 0333                               l4308 031C  
                             l2734 17E7                               l2726 17C7  
                             l2742 17FB                               l2750 174E  
                             l3606 1684                               l3550 14FE  
                             l3526 13D7                               l3542 13E9  
                             l3534 13F5                               l4270 02AB  
                             l4254 0249                               l4246 0228  
                             l4238 0213                               l4190 00E1  
                             l4174 00C4                               l4182 00C9  
                             l4166 004C                               l3622 1424  
                             l4094 158E                               l2590 1564  
                             l4158 0FDB                               l3614 1651  
                             l3710 163A                               l3702 1623  
                             l3198 0CB0                               l3286 1510  
                             l4078 07E5                               l4430 04BD  
                             l4422 04A6                               l4414 048C  
                             l4406 0480                               l4350 03D1  
                             l4342 03AA                               l4334 0383  
                             l4326 035B                               l4318 0348  
                             l2736 17ED                               l2728 17CE  
                             l2760 176D                               l2752 1755  
                             l3608 1694                               l3552 1503  
                             l3544 14ED                               l3528 13DC  
                             l3536 13FA                               l3560 15CB  
                             l3632 14B1                               l4272 02C3  
                             l4264 0261                               l4192 00F9  
                             l4184 00CE                               l4176 00C5  
                             l4168 0052                               l3624 142B  
                             l4096 159C                               l4088 157B  
                             l3800 0BFF                               l2592 156A  
                             l3640 0B97                               l3616 1661  
                             l3712 1644                               l3704 162B  
                             l4440 04D8                               l4432 04C2  
                             l4424 04AC                               l4408 0480  
                             l4360 03FB                               l4352 03D6  
                             l4344 03BC                               l4336 0389  
                             l4328 0365                               l2738 17EE  
                             l2762 1774                               l2754 1759  
                             l2746 1745                               l3570 171E  
                             l3554 150B                               l3546 14F2  
                             l3538 13FE                               l4274 02DB  
                             l4258 0255                               l4266 0271  
                             l4194 00FE                               l4178 00C6  
                             l3810 0C25                               l3802 0C06  
                             l3626 15CE                               l2586 1555  
                             l4098 0EE4                               l3650 0BB9  
                             l3642 0B9C                               l3634 0B78  
                             l4290 1611                               l3618 1667  
                             l3706 1632                               l3722 179C  
                             l3714 1780                               l2770 143C  
                             l3730 0DCE                               l4450 04F6  
                             l4442 04DC                               l4434 04C6  
                             l4426 04B1                               l4418 048F  
                             l4370 0419                               l4362 0401  
                             l4354 03D8                               l4346 03C2  
                             l4338 039E                               l2756 175D  
                             l2748 174B                               l2764 177A  
                             l3580 1738                               l3572 1723  
                             l3564 1710                               l3548 14FA  
                             l4268 02A1                               l4196 012E  
                             l4188 00D5                               l3820 0C3D  
                             l3812 0C26                               l3804 0C0A  
                             l3660 1484                               l3628 15F6  
                             l2588 1556                               l3652 0BBE  
                             l3644 0BA3                               l3636 0B80  
                             l4292 1616                               l4284 15F8  
                             l3708 1634                               l3724 17A3  
                             l3716 1783                               l3900 0D55  
                             l3740 0E17                               l3732 0DD3  
                             l4460 0516                               l4452 04F8  
                             l4444 04E3                               l4436 04CA  
                             l4428 04B7                               l4380 0433  
                             l4372 0420                               l4364 0407  
                             l4356 03EA                               l4348 03CB  
                             l2758 1767                               l3582 173B  
                             l3574 1726                               l3566 171A  
                             l3558 15A3                               l3590 09A5  
                             l4518 0266                               l4198 0132  
                             l3814 0C2D                               l3806 0C0E  
                             l3830 0B29                               l3670 1495  
                             l3662 1488                               l3654 0BCE  
                             l3646 0BA6                               l3638 0B87  
                             l4294 161B                               l4286 1607  
                             l3726 17A7                               l3718 1789  
                             l3910 0D8D                               l3902 0D5A  
                             l3750 0E70                               l3742 0E21  
                             l3734 0DDE                               l4470 0533  
                             l4462 051F                               l4446 04E7  
                             l4438 04D3                               l4390 0448  
                             l4374 0427                               l4366 0409  
                             l4358 03F5                               l3576 1732  
                             l3568 171D                               l3592 09A9  
                             l3808 0C1F                               l3816 0C33  
                             l3840 0B3D                               l3832 0B2B  
                             l3824 0B1F                               l3664 148C  
                             l3656 0BD5                               l3648 0BAD  
                             l3760 0973                               l3680 0C60  
                             l4296 1620                               l4288 160C  
                             l3584 14CF                               l3728 17AB  
                             l3920 05A2                               l3912 0D98  
                             l2768 1435                               l3752 0E87  
                             l3744 0E38                               l3736 0DE9  
                             l4480 0560                               l4472 053E  
                             l4464 0524                               l4456 04FB  
                             l4448 04F3                               l4392 044B  
                             l4384 043A                               l4376 042B  
                             l4368 040E                               l3578 1733  
                             l3594 09B5                               l3586 097E  
                             l3818 0C38                               l3850 0B5C  
                             l3842 0B44                               l3834 0B2F  
                             l3826 0B20                               l3666 148E  
                             l3658 1483                               l3762 0976  
                             l3770 144E                               l3690 0C91  
                             l3682 0C64                               l3674 0C42  
                             l4298 1621                               l3930 05BC  
                             l3922 05A7                               l3914 0DC0  
                             l3906 0D5D                               l3754 0E9E  
                             l3746 0E4F                               l3738 0E00  
                             l4482 0563                               l4474 0549  
                             l4466 0528                               l4458 050A  
                             l4394 0450                               l4386 043F  
                             l4378 042D                               l4490 057E  
                             l3596 09B9                               l3588 0999  
                             l3780 0BDB                               l3852 0B63  
                             l3844 0B48                               l3836 0B34  
                             l3828 0B24                               l3668 1490  
                             l3764 0977                               l3772 1451  
                             l3692 0C92                               l3684 0C68  
                             l3676 0C54                               l3940 05CA  
                             l3932 05C0                               l3924 05A8  
                             l3916 0DCA                               l3908 0D65  
                             l3756 0EB5                               l3748 0E59  
                             l4484 0574                               l4476 054E  
                             l4468 052E                               l4492 0597  
                             l4396 045B                               l4388 0444  
                             l3598 09C5                               l3790 0BEB  
                             l3782 0BDC                               l3846 0B4C  
                             l3838 0B3A                               l3854 0B69  
                             l3870 0AAC                               l3862 0A74  
                             l3766 0978                               l3694 0C9B  
                             l3686 0C71                               l3678 0C57  
                             l3774 16DD                               l3950 05DE  
                             l3934 05C2                               l3926 05AD  
                             l3758 0ECC                               l4486 0578  
                             l4478 055C                               l4398 0466  
                             l3792 0BF0                               l3784 0BE0  
                             l3856 0B6E                               l3848 0B56  
                             l3864 0A7F                               l3768 1447  
                             l3688 0C83                               l3696 0CA1  
                             l3776 16E0                               l3880 0B01  
                             l3872 0ACB                               l3960 05FC  
                             l3952 05E7                               l3944 05CC  
                             l3928 05B5                               l3936 05C4  
                             l3794 0BF4                               l3786 0BE5  
                             l3858 0B73                               l3866 0A84  
                             l3778 170B                               l3882 0B18  
                             l3874 0AD0                               l3970 0612  
                             l3962 0602                               l3954 05ED  
                             l3946 05D2                               l3938 05C9  
                             l3890 0D39                               l3796 0BF6  
                             l3788 0BE7                               l3868 0A91  
                             l3884 0B19                               l3876 0ADC  
                             l3980 062A                               l3972 0619  
                             l3948 05D8                               l3956 05F0  
                             l3892 0D3F                               l3798 0BFC  
                             l3878 0AEA                               l3990 0661  
                             l3982 0632                               l3958 05F6  
                             l3894 0D45                               l3886 0D32  
                             l3992 066F                               l3984 063F  
                             l3968 060C                               l3896 0D49  
                             l3888 0D38                               _ADFM 04FF  
                             l3986 0651                               l3978 061D  
                             l3898 0D4F                               l3988 0656  
                             ?_isr 0070                               l3998 0671  
                             _ADON 00F8                               STR_1 093A  
                             STR_2 0927                               STR_3 090D  
                             STR_4 0931                               STR_5 08D7  
                             STR_6 086B                               STR_7 08C9  
                             STR_8 08AB                               STR_9 08E5  
                             _CREN 00C4                               _T0CS 040D  
                             u2100 17D6                               u2101 17D5  
                             u2120 17E7                               u2200 177A  
                             u2121 17E6                               u2201 1779  
                             u2210 143C                               u2115 17D7  
                             u2211 143B                               u2140 17FB  
                             u2141 17FA                               u2125 17E3  
                             u2150 174B                               u2135 17EF  
                             u2151 174A                               u2080 17C4  
                             u3200 0C68                               u4000 03D6  
                             u2081 17C3                               u3105 172A  
                             u3201 0C67                               u4001 03D5  
                             u2170 175D                               u3050 1410  
                             u4010 03FB                               u2171 175C  
                             u3051 140F                               u3115 099C  
                             u4011 03FA                               u2180 1767  
                             u3140 16AA                               u3060 1416  
                             u3300 0BE0                               u3220 0C83  
                             u4100 0574                               u4020 0401  
                             u2181 1766                               u2165 174F  
                             u3141 16A9                               u3061 1415  
                             u3125 09AC                               u3301 0BDF  
                             u3221 0C82                               u4101 0573  
                             u4021 0400                               u3070 1503  
                             u3310 0BEB                               u3150 167B  
                             u4030 0407                               u2095 17C8  
                             u3071 1502                               u3135 09BC  
                             u3311 0BEA                               u3215 0C6A  
                             u3151 167A                               u4031 0406  
                             u3080 1717                               u3320 0BFC  
                             u3400 0B24                               u3160 1488  
                             u1640 1408                               u3240 0CA1  
                             u1800 09FA                               u4040 0433  
                             u2185 1763                               u3081 1713  
                             u3321 0BFB                               u3401 0B23  
                             u3161 1487                               u1641 1407  
                             u3241 0CA0                               u3225 0C7F  
                             u1801 09F9                               u4041 0432  
                             u3410 0B2F                               u3170 1495  
                             u3250 1632                               u1810 0A00  
                             u4050 0439                               u2195 176E  
                             u3411 0B2E                               u3171 1494  
                             u3235 0C93                               u3251 1631  
                             u1811 09FF                               u4051 0438  
                             u3340 0C0E                               u3420 0B3A  
                             u3180 0C54                               u3260 179B  
                             u1820 0A0C                               u3500 0D3F  
                             u2700 0CC9                               u4060 04A6  
                             u3341 0C0D                               u3421 0B39  
                             u3181 0C53                               u3261 179A  
                             u1821 0A0B                               u3501 0D3E  
                             u2701 0CC8                               u4061 04A5  
                             u3094 171A                               u1830 157A  
                             u3270 17A2                               u3510 0D45  
                             u2710 0CD8                               u4070 04AC  
                             u3335 0C00                               u1831 1579  
                             u4207 0B99                               u3271 17A1  
                             u3511 0D44                               u2711 0CD7  
                             u4071 04AB                               u4127 0361  
                             u3360 0C1F                               u3440 0B4C  
                             u3280 17B9                               u3600 05F6  
                             u3520 0D55                               u2800 0D2B  
                             u2720 0CE2                               u4080 04B7  
                             u3361 0C1E                               u3441 0B4B  
                             u4217 0BAF                               u3281 17B8  
                             u3601 05F5                               u3521 0D54  
                             u2801 0D2A                               u2721 0CE1  
                             u4081 04B6                               u4137 0473  
                             u1850 1536                               u3450 0B56  
                             u3290 16EE                               u3610 05FC  
                             u3530 0D5A                               u2730 0CF3  
                             u2810 152F                               u4090 04BD  
                             u1851 1535                               u4307 1735  
                             u3355 0C0F                               u3451 0B55  
                             u3435 0B3E                               u4227 0BBB  
                             u3195 0C59                               u3611 05FB  
                             u3531 0D59                               u2731 0CF2  
                             u2811 152E                               u4147 0556  
                             u4091 04BC                               u3380 0C33  
                             u1780 09DA                               u3620 0612  
                             u3540 0D65                               u2740 0CFE  
                             u3700 0787                               u4317 173F  
                             u3381 0C32                               u3365 0C1B  
                             u4237 0BC9                               u1781 09D9  
                             u3621 0611                               u3541 0D64  
                             u2741 0CFD                               u3701 0786  
                             u4157 0779                               u3390 0C38  
                             u3470 0B69                               u1790 09F3  
                             u3630 063F                               u3550 05A7  
                             u2750 0D04                               u2670 0CB5  
                             u3710 078D                               u3391 0C37  
                             u3375 0C27                               u3471 0B68  
                             u3455 0B52                               u4247 0BD7  
                             u3295 16E9                               u1791 09F2  
                             u4167 0669                               u3631 063E  
                             u3551 05A6                               u2751 0D03  
                             u2671 0CB4                               u3711 078C  
                             u1880 1550                               u3480 0B6E  
                             u3800 0F63                               u3640 0651  
                             u3560 05B5                               u2760 0D12  
                             u2680 0CBD                               u3720 079A  
                             u1881 154F                               u1865 153D  
                             u4257 1596                               u3481 0B6D  
                             u3465 0B5D                               u3801 0F62  
                             u4177 06AA                               u3641 0650  
                             u3561 05B4                               u2761 0D11  
                             u2681 0CBC                               u3721 0799  
                             u3810 0FFF                               u3650 0681  
                             u3570 05C9                               u3490 0D38  
                             u2770 0D17                               u2690 0CC3  
                             u3730 07B3                               u1875 1544  
                             u4267 142F                               u3811 0FFE  
                             u4187 0B7C                               u3651 0680  
                             u3635 063B                               u3571 05C8  
                             u3491 0D37                               u2771 0D16  
                             u2691 0CC2                               u3731 07B2  
                             _PEIE 005E                               u3900 021F  
                             u3820 0052                               u3660 06B6  
                             u3580 05D2                               u2780 0D1D  
                             u3740 07C6                               u3901 021E  
                             u4277 01DB                               u3821 0051  
                             u3805 0F5F                               u4197 0B8B  
                             u3661 06B5                               u3581 05D1  
                             u2781 0D1C                               u3741 07C5  
                             u3910 0226                               u3830 00CE  
                             u3670 0717                               u3590 05D8  
                             u2790 0D23                               u3750 07CC  
                             u4287 0241                               u3911 0224  
                             u3831 00CD                               u3815 0FFB  
                             u3671 0716                               u3591 05D7  
                             u2791 0D22                               u3751 07CB  
                             u3735 07AF                               u3920 0227  
                             u3760 07DA                               u3680 0753  
                             u4297 1720                               u3761 07D9  
                             u3681 0752                               u3930 022D  
                             u3770 07E5                               u3690 0767  
                             u3931 022C                               u3771 07E4  
                             u3691 0766                               u3780 07F8  
                             u3940 033B                               _RCEN 048B  
                             _RCIF 0065                               u3845 0125  
                             u3781 07F7                               u3870 01FD  
                             u3790 0EF3                               u3950 0381  
                             u3871 01FC                               u3855 0161  
                             u3791 0EF2                               u3951 0380  
                             u3880 0208                               u3960 0389  
                             u3881 0207                               u3865 019D  
                             u3961 0388                               u3890 0213  
                             u3970 03A4                               u3891 0212  
                             u3971 03A3                               u3980 03AA  
                             u3981 03A9                               u3990 03D1  
                             u3991 03D0                               _TMR0 0001  
                             _SPEN 00C7                               _TXIF 0064  
                             _R_nW 04A2      read_digital_keypad@long_press 0056  
                             _main 0317                               _menu 00AC  
                             _time 0067                               btemp 007E  
                             _puts 1555                               start 000C  
                   menu_screen@key 0028                  ___bmul@multiplier 0074  
                   clcd_write@byte 0075                     clcd_write@mode 0072  
                    _i2c_rep_start 13E9                              ??_isr 0070  
                     ?_init_ds1307 0070            eeprom_at24c04_read@addr 0074  
          eeprom_at24c04_read@data 0075                     ??_display_logs 007A  
                            ?_main 0070                       ?_read_ds1307 0070  
                            _ACKEN 048C                              _ACKDT 048D  
                   ??_display_time 007A                    __end_of___awdiv 0C42  
                            STR_10 089B                              STR_11 0943  
                            STR_12 0958                              STR_20 0800  
                            STR_21 08FC                              STR_13 08BA  
                            STR_22 08F9                              STR_14 0869  
                            STR_30 096C                              STR_15 0869  
                            STR_23 08F3                              STR_31 096F  
                            STR_24 088B                              STR_16 087A  
                            STR_40 0847                              STR_32 0960  
                            STR_41 0836                              STR_25 0900  
                            STR_17 0858                              STR_33 0963  
                            STR_42 0847                              STR_26 091A  
                            STR_18 0824                              STR_34 0966  
                            STR_27 08FD                              STR_19 094C  
                            STR_35 0969                              STR_28 08FD  
                            STR_36 0953                    __end_of___awmod 0B78  
                            STR_29 08FD                              STR_37 095D  
                            STR_38 08BA                              STR_39 0836  
                            ?_puts 0073                    __end_of___lldiv 0CAA  
                      i2c_read@ack 0072                    ___awdiv@divisor 0072  
                  __end_of___lwdiv 1800                    __end_of___lwmod 177F  
                            i1l480 16C7                              i1l482 16D6  
                     ?_init_config 0070                    ___awdiv@counter 0076  
                            _RCREG 001A                              _SPBRG 0099  
                            _PORTB 0006                              _PORTD 0008  
                            _SSPM3 00A3                              _TRISB 0086  
                            _TRISD 0088                              _SSPEN 00A5  
                            _TXREG 0019                       ?_init_timer2 0070  
                            _nDONE 00FA               __end_of_clear_screen 1435  
                            _index 005A                              _login 059F  
                     ?_menu_screen 0025                              pclath 000A  
                            puts@s 0073                    __end_of_putchar 140A  
                            status 0003                              wtemp0 007E  
                  __end_of_strncmp 0A1B                    __end_of_strncpy 17BA  
                 init_ds1307@dummy 0076                    __initialization 000F  
                   ?_i2c_rep_start 0070            _read_digital_keypad$221 0073  
                     __end_of_main 059F                       __end_of_puts 157B  
                 __end_of_i2c_read 150D                   __end_of_i2c_stop 13E9  
                    ?_download_log 0070                             ??_main 0032  
                           ??_puts 0075                             _ADRESH 001E  
                           ?_login 0025                             _ADRESL 009E  
                 ___awdiv@dividend 0074                       i2c_read@data 0073  
                           i1l3490 16CC                             i1l3482 16AB  
                           i1l3492 16D1                             i1l3484 16B1  
                           i1l3494 16D3                             i1l3486 16C0  
                           i1l3488 16C5                             i1l3496 16D5  
                           u300_20 16C0                             u300_21 16BF  
                           u301_20 16C5                             u301_21 16C4  
                           u302_20 16CC                             u302_21 16CB  
                           u303_20 16D1                             u303_21 16D0  
                     _write_ds1307 14B0                             u299_20 16B1  
                           u299_21 16B0                             _TMR0IE 005D  
                           _TMR2IE 0461                             _TMR2IF 0061  
                           _TMR2ON 0092                             _SSPADD 0093  
                           _TRISE1 0449                             _TRISE2 044A  
                           _SSPBUF 0013        __end_of_init_digital_keypad 0800  
        ?_eeprom_at24c04_str_write 0075                   __end_of_get_time 09CB  
                           ___bmul 1482            _init_display_controller 0B78  
                           ___wmul 1530                          ??___awdiv 0076  
                        ??___awmod 0076                          ??___lldiv 0020  
                        ??___lwdiv 007A                          ??___lwmod 0076  
                 __end_of_init_i2c 170F                   __end_of_init_adc 13CF  
                 __end_of_read_adc 1447                     ??_download_log 0076  
                 ___awdiv@quotient 0078                    ___awmod@divisor 0072  
                  ___awmod@counter 0076                             main@gr 0046  
                change_time@buffer 002B                             _strcpy 150D  
                change_time@t_done 005E                       __pdataCOMMON 007A  
                           login@i 0062                             login@j 002E  
                           saved_w 007E                   __end_of_view_log 07FA  
                    display_logs@i 0025                          ??_putchar 0072  
                        ??_strncmp 0075                          ??_strncpy 0075  
          __end_of__initialization 0045               __end_of_display_logs 0EE4  
             __end_of_display_time 0A71                    ??_i2c_rep_start 0072  
              ___bmul@multiplicand 0072                    login@s_password 0029  
                   __pcstackCOMMON 0070                       __pidataBANK0 13C4  
                     __pidataBANK1 1497         ?_eeprom_at24c04_byte_write 0073  
                    __end_of_login 073D                    login@u_password 00C4  
                  login@reset_flag 0025                  __end_of_i2c_start 13E0  
                __end_of_i2c_write 13FF                  _i2c_wait_for_idle 140A  
                  change_time@wait 0060                            ??_login 0026  
               ?_i2c_wait_for_idle 0070                         __pbssBANK0 004B  
                       __pbssBANK1 00B9                          ?_i2c_read 0070  
                        ?_i2c_stop 0070          ??_init_display_controller 0076  
                       _clcd_print 167C                ??_i2c_wait_for_idle 0072  
                       _clcd_putch 146D                         _clcd_write 170F  
                       __pmaintext 0317                    read_ds1307@addr 0074  
                    _log_car_event 0AC8                    read_ds1307@data 0075  
                     _clear_screen 1424                            ?___bmul 0072  
                          ?___wmul 0072                         __pintentry 0004  
                          _ACKSTAT 048E      eeprom_at24c04_byte_write@addr 0074  
    eeprom_at24c04_byte_write@data 0073                            ?_strcpy 0072  
                          _T2CKPS0 0090                            _T2CKPS1 0091  
      __end_of_read_digital_keypad 0D2F          __end_of_i2c_wait_for_idle 1417  
                     init_i2c@baud 0026                            _SSPCON2 0091  
                        ?_get_time 0070                         __stringtab 1000  
                       ??_i2c_read 0072                         ??_i2c_stop 0072  
                        ?_init_i2c 0026               __end_of_download_log 1000  
                        ?_init_adc 0070                          ?_read_adc 0072  
                __end_of_clear_log 15A2                     ?_log_car_event 0020  
                          ___awdiv 0BDB                            ___awmod 0B1F  
                        ?_view_log 0027                            ___lldiv 0C42  
                          ___lwdiv 17BA                            ___lwmod 1745  
                 main@control_flag 0049                            __ptext1 073D  
                          __ptext2 0DCE                            __ptext3 150D  
                          __ptext4 0CAA                            __ptext5 1435  
                          __ptext6 0D2F                            __ptext7 059F  
                          __ptext8 09CB                            __ptext9 0AC8  
  __end_of_init_display_controller 0BDB                  __end_of_init_clcd 097E  
           read_digital_keypad@key 0076                   ___awmod@dividend 0074  
                    ??_change_time 0027                     main@reset_flag 0048  
                __end_of_log_event 164F             display_dashboard@event 0028  
           display_dashboard@speed 0025                            _putchar 13FF  
                          main@key 004A                            clrloop0 13D0  
                       ??_get_time 0076                            _strncmp 09CB  
                          _strncpy 177F               end_of_initialization 0045  
                       ??_init_i2c 002A                         ??_init_adc 0072  
                       ??_read_adc 0074                _eeprom_at24c04_read 15CD  
                      ?_clcd_print 0076                        ?_clcd_putch 0023  
                  ___lldiv@divisor 0072                        ?_clcd_write 0072  
                  ___lldiv@counter 0025                         ??_view_log 0028  
                     __pstringtext 0800                            strcpy@d 0076  
             ?_eeprom_at24c04_read 0070                       _display_logs 0DCE  
                     _display_time 0A1B                      i2c_write@data 0072  
                    clcd_print@str 0076                __end_of_change_time 0317  
                  ??_log_car_event 0021        ??_eeprom_at24c04_byte_write 0074  
                   __end_of___bmul 1497                     __end_of___wmul 1555  
                    __pidataCOMMON 13C6              ??_eeprom_at24c04_read 0074  
                      view_log@key 002B                     __end_of_strcpy 1530  
              start_initialization 000F                          _i2c_start 13D7  
                      __end_of_isr 16DD                          _i2c_write 13F4  
         _eeprom_at24c04_str_write 164F                        putchar@data 0072  
            __end_of_i2c_rep_start 13F4                           ??___bmul 0073  
                         ??___wmul 0076                         init_fetch0 145A  
                 change_time@blink 005F                      ??_init_ds1307 0076  
                      __pdataBANK0 006E                        __pdataBANK1 00A0  
                    ??_read_ds1307 0074                       _download_log 0EE4  
                         ??_strcpy 0074                      ??_init_config 007A  
            change_time@reset_time 0025                      ??_init_timer2 0072  
                        ___latbits 0002                      __pcstackBANK0 0020  
                      _change_time 0049                         ?_i2c_start 0070  
                       ?_i2c_write 0070          _eeprom_at24c04_byte_write 14CE  
                    ??_menu_screen 0026                     change_time@key 002A  
                 ___lwdiv@dividend 0078                          _clear_log 157B  
                         ?___awdiv 0072                           ?___awmod 0072  
                _display_dashboard 0A71                           ?___lldiv 0072  
                         ?___lwdiv 0076                          _clock_reg 0051  
                         ?___lwmod 0072                 ?_display_dashboard 0025  
                        __pstrings 1000                __end_of_init_ds1307 145A  
              read_adc@adc_reg_val 0074                ??_display_dashboard 0026  
              __end_of_read_ds1307 15CD                   ___lwdiv@quotient 0020  
                    _ret_time_edit 0066                           ?_putchar 0070  
                        _init_clcd 0973                __end_of_init_config 1623  
                         ?_strncmp 0072                           ?_strncpy 0072  
                        _log_event 1623                      ?_write_ds1307 0073  
              __end_of_init_timer2 1424           ?_init_display_controller 0070  
                interrupt_function 0004                     ___wmul@product 0076  
                        clear_ram0 13CF                       ??_clcd_print 0079  
                     ??_clcd_putch 007A                __end_of_menu_screen 0DCE  
                     ??_clcd_write 0073                         ?_clear_log 0070  
        __end_of_display_dashboard 0AC8                          main@F1220 00B6  
                        main@F1226 00A0                      download_log@i 0030  
             change_time@blink_pos 0058                        __stringbase 1012  
                ___wmul@multiplier 0072                          main@event 0043  
                        main@speed 0047    read_digital_keypad@switch_state 006E  
                      ??_i2c_start 0072                 __end_of_clcd_print 16AB  
                      ??_i2c_write 0072                 __end_of_clcd_putch 1482  
               __end_of_clcd_write 1745                         ?_init_clcd 0070  
                   ??_write_ds1307 0074                         ?_log_event 0070  
              _init_digital_keypad 07FA                           _i2c_read 14EC  
                         _i2c_stop 13E0               ?_init_digital_keypad 0070  
                      _init_ds1307 1447                 __end_of__stringtab 1012  
                      _read_ds1307 15A2                        _init_config 15F8  
                      _init_timer2 1417         ??_eeprom_at24c04_str_write 0077  
                  ___lwdiv@divisor 0076                    ___lwdiv@counter 0022  
     eeprom_at24c04_str_write@addr 0077                           __ptext10 177F  
                         __ptext11 1623                           __ptext20 0973  
                         __ptext12 164F                           __ptext21 0B78  
                         __ptext13 14CE                           __ptext30 0B1F  
                         __ptext22 13C8                           __ptext14 15F8  
                         __ptext31 0BDB                           __ptext23 0EE4  
                         __ptext15 1417                           __ptext40 13E0  
                         __ptext32 157B                           __ptext24 1555  
                         __ptext16 16DD                           __ptext41 13D7  
                         __ptext33 1424                           __ptext25 13FF  
                         __ptext17 0C42                           __ptext50 16AB  
                         __ptext42 14EC                           __ptext34 0049  
                         __ptext26 15CD                           __ptext18 1447  
                         __ptext43 140A                           __ptext35 14B0  
                         __ptext27 1482                           __ptext19 07FA  
                         __ptext44 146D                           __ptext36 097E  
                         __ptext28 0A71                           __ptext45 167C  
                         __ptext37 15A2                           __ptext29 0A1B  
                         __ptext46 170F                           __ptext38 13F4  
     eeprom_at24c04_str_write@data 0075                           __ptext47 1530  
                         __ptext39 13E9                           __ptext48 1745  
                         __ptext49 17BA                  login@attempt_left 0061  
                         _get_time 097E                        _menu_screen 0D2F  
                       strcpy@dest 0077                           _init_i2c 16DD  
                         _init_adc 13C8                           _read_adc 1435  
          read_digital_keypad@mode 0072            read_digital_keypad@once 006F  
          read_digital_keypad@temp 0075              __end_of_log_car_event 0B1F  
                         _ret_time 0064                        ??_clear_log 0020  
                    ?_clear_screen 0070        __end_of_eeprom_at24c04_read 15F8  
                         _view_log 073D              ??_init_digital_keypad 0072  
                         main@gear 0036                           main@menu 0042  
                         isr@count 0054                change_time@new_time 004B  
                     ?_change_time 0025                           init_ram0 145E  
                      ??_init_clcd 0078                           login@key 002D  
                      ??_log_event 0078                     _roll_over_flag 005C  
                         intlevel1 0000                   ___lwmod@dividend 0074  
                 ___lldiv@dividend 0076                          strcpy@src 0072  
                        stringcode 100A                     ??_clear_screen 0076  
                        strncpy@cp 0076  __end_of_eeprom_at24c04_byte_write 14EC  
             __end_of_write_ds1307 14CE                _read_digital_keypad 0CAA  
                 ___lldiv@quotient 0021                    ___lwmod@divisor 0072  
             download_log@position 002C                    ___lwmod@counter 0076  
                         strncmp@l 0077                           strncmp@n 0073  
                         strncmp@r 0072                           stringtab 1000  
                         strncpy@d 0075                           strncpy@n 0073  
                         strncpy@s 0072               ?_read_digital_keypad 0070  
                 write_ds1307@addr 0074                   write_ds1307@data 0073  
            menu_screen@reset_flag 0025                menu_screen@menu_pos 0063  
                download_log@index 002E                    download_log@add 002B  
                  download_log@log 0020  
