

Microchip MPLAB XC8 Assembler V2.46 build 20240104201356 
                                                                                               Tue May 20 01:52:48 2025

Microchip MPLAB XC8 C Compiler v2.46 (Free license) build 20240104201356 Og1 
     1                           	processor	16F877A
     2                           	pagewidth 120
     3                           	opt	flic
     4                           	psect	idataCOMMON,global,class=CODE,delta=2,noexec
     5                           	psect	idataBANK0,global,class=CODE,delta=2,noexec
     6                           	psect	strings,global,class=STRING,delta=2,noexec
     7                           	psect	cinit,global,class=CODE,merge=1,delta=2
     8                           	psect	dataCOMMON,global,class=COMMON,space=1,delta=1,noexec
     9                           	psect	bssBANK0,global,class=BANK0,space=1,delta=1,noexec
    10                           	psect	dataBANK0,global,class=BANK0,space=1,delta=1,noexec
    11                           	psect	inittext,global,class=CODE,delta=2
    12                           	psect	clrtext,global,class=CODE,delta=2
    13                           	psect	cstackCOMMON,global,class=COMMON,space=1,delta=1,noexec
    14                           	psect	cstackBANK0,global,class=BANK0,space=1,delta=1,noexec
    15                           	psect	maintext,global,class=CODE,split=1,delta=2
    16                           	psect	text1,local,class=CODE,merge=1,delta=2,group=2
    17                           	psect	text2,local,class=CODE,merge=1,delta=2
    18                           	psect	text3,local,class=CODE,merge=1,delta=2
    19                           	psect	text4,local,class=CODE,merge=1,delta=2
    20                           	psect	text5,local,class=CODE,merge=1,delta=2
    21                           	psect	text6,local,class=CODE,merge=1,delta=2,group=2
    22                           	psect	text7,local,class=CODE,merge=1,delta=2
    23                           	psect	text8,local,class=CODE,merge=1,delta=2
    24                           	psect	text9,local,class=CODE,merge=1,delta=2
    25                           	psect	text10,local,class=CODE,merge=1,delta=2,group=2
    26                           	psect	text11,local,class=CODE,merge=1,delta=2
    27                           	psect	text12,local,class=CODE,merge=1,delta=2
    28                           	psect	text13,local,class=CODE,merge=1,delta=2
    29                           	psect	text14,local,class=CODE,merge=1,delta=2,group=1
    30                           	psect	text15,local,class=CODE,merge=1,delta=2
    31                           	psect	text16,local,class=CODE,merge=1,delta=2
    32                           	psect	text17,local,class=CODE,merge=1,delta=2
    33                           	psect	text18,local,class=CODE,merge=1,delta=2,group=1
    34                           	psect	text19,local,class=CODE,merge=1,delta=2
    35                           	psect	text20,local,class=CODE,merge=1,delta=2
    36                           	psect	text21,local,class=CODE,merge=1,delta=2
    37                           	psect	text22,local,class=CODE,merge=1,delta=2
    38                           	psect	text23,local,class=CODE,merge=1,delta=2
    39                           	psect	text24,local,class=CODE,merge=1,delta=2
    40                           	psect	text25,local,class=CODE,merge=1,delta=2
    41                           	psect	text26,local,class=CODE,merge=1,delta=2
    42                           	psect	text27,local,class=CODE,merge=1,delta=2
    43                           	psect	text28,local,class=CODE,merge=1,delta=2
    44                           	psect	text29,local,class=CODE,merge=1,delta=2
    45                           	psect	text30,local,class=CODE,merge=1,delta=2
    46                           	psect	text31,local,class=CODE,merge=1,delta=2
    47                           	psect	text32,local,class=CODE,merge=1,delta=2
    48                           	psect	text33,local,class=CODE,merge=1,delta=2
    49                           	psect	text34,local,class=CODE,merge=1,delta=2
    50                           	psect	text35,local,class=CODE,merge=1,delta=2
    51                           	psect	text36,local,class=CODE,merge=1,delta=2
    52                           	psect	text37,local,class=CODE,merge=1,delta=2
    53                           	psect	text38,local,class=CODE,merge=1,delta=2,group=1
    54                           	psect	text39,local,class=CODE,merge=1,delta=2,group=1
    55                           	psect	text40,local,class=CODE,merge=1,delta=2,group=1
    56                           	psect	text41,local,class=CODE,merge=1,delta=2
    57                           	psect	intentry,global,class=CODE,delta=2
    58                           	psect	config,global,abs,ovrld,class=CONFIG,space=4,delta=2,noexec
    59                           	dabs	1,0x7E,2
    60     0000                     
    61                           ; Version 2.20
    62                           ; Generated 12/02/2020 GMT
    63                           ; 
    64                           ; Copyright © 2020, Microchip Technology Inc. and its subsidiaries ("Microchip")
    65                           ; All rights reserved.
    66                           ; 
    67                           ; This software is developed by Microchip Technology Inc. and its subsidiaries ("Microch
      +                          ip").
    68                           ; 
    69                           ; Redistribution and use in source and binary forms, with or without modification, are
    70                           ; permitted provided that the following conditions are met:
    71                           ; 
    72                           ;     1. Redistributions of source code must retain the above copyright notice, this lis
      +                          t of
    73                           ;        conditions and the following disclaimer.
    74                           ; 
    75                           ;     2. Redistributions in binary form must reproduce the above copyright notice, this 
      +                          list
    76                           ;        of conditions and the following disclaimer in the documentation and/or other
    77                           ;        materials provided with the distribution.
    78                           ; 
    79                           ;     3. Microchip's name may not be used to endorse or promote products derived from th
      +                          is
    80                           ;        software without specific prior written permission.
    81                           ; 
    82                           ; THIS SOFTWARE IS PROVIDED BY MICROCHIP "AS IS" AND ANY EXPRESS OR IMPLIED WARRANTIES,
    83                           ; INCLUDING, BUT NOT LIMITED TO, THE IMPLIED WARRANTIES OF MERCHANTABILITY AND FITNESS F
      +                          OR
    84                           ; PURPOSE ARE DISCLAIMED.  IN NO EVENT SHALL MICROCHIP BE LIABLE FOR ANY DIRECT, INDIREC
      +                          T,
    85                           ; INCIDENTAL, SPECIAL, EXEMPLARY, OR CONSEQUENTIAL DAMAGES (INCLUDING BUT NOT LIMITED TO
    86                           ; PROCUREMENT OF SUBSTITUTE GOODS OR SERVICES; LOSS OF USE, DATA OR PROFITS; OR BUSINESS
    87                           ; INTERRUPTION) HOWSOEVER CAUSED AND ON ANY THEORY OF LIABILITY, WHETHER IN CONTRACT, ST
      +                          RICT
    88                           ; LIABILITY, OR TORT (INCLUDING NEGLIGENCE OR OTHERWISE) ARISING IN ANY WAY OUT OF THE U
      +                          SE OF
    89                           ; THIS SOFTWARE, EVEN IF ADVISED OF THE POSSIBILITY OF SUCH DAMAGE.
    90                           ; 
    91                           ; 
    92                           ; Code-generator required, PIC16F877A Definitions
    93                           ; 
    94                           ; SFR Addresses
    95     0000                     	;# 
    96     0001                     	;# 
    97     0002                     	;# 
    98     0003                     	;# 
    99     0004                     	;# 
   100     0005                     	;# 
   101     0006                     	;# 
   102     0007                     	;# 
   103     0008                     	;# 
   104     0009                     	;# 
   105     000A                     	;# 
   106     000B                     	;# 
   107     000C                     	;# 
   108     000D                     	;# 
   109     000E                     	;# 
   110     000E                     	;# 
   111     000F                     	;# 
   112     0010                     	;# 
   113     0011                     	;# 
   114     0012                     	;# 
   115     0013                     	;# 
   116     0014                     	;# 
   117     0015                     	;# 
   118     0015                     	;# 
   119     0016                     	;# 
   120     0017                     	;# 
   121     0018                     	;# 
   122     0019                     	;# 
   123     001A                     	;# 
   124     001B                     	;# 
   125     001B                     	;# 
   126     001C                     	;# 
   127     001D                     	;# 
   128     001E                     	;# 
   129     001F                     	;# 
   130     0081                     	;# 
   131     0085                     	;# 
   132     0086                     	;# 
   133     0087                     	;# 
   134     0088                     	;# 
   135     0089                     	;# 
   136     008C                     	;# 
   137     008D                     	;# 
   138     008E                     	;# 
   139     0091                     	;# 
   140     0092                     	;# 
   141     0093                     	;# 
   142     0094                     	;# 
   143     0098                     	;# 
   144     0099                     	;# 
   145     009C                     	;# 
   146     009D                     	;# 
   147     009E                     	;# 
   148     009F                     	;# 
   149     010C                     	;# 
   150     010D                     	;# 
   151     010E                     	;# 
   152     010F                     	;# 
   153     018C                     	;# 
   154     018D                     	;# 
   155     0000                     	;# 
   156     0001                     	;# 
   157     0002                     	;# 
   158     0003                     	;# 
   159     0004                     	;# 
   160     0005                     	;# 
   161     0006                     	;# 
   162     0007                     	;# 
   163     0008                     	;# 
   164     0009                     	;# 
   165     000A                     	;# 
   166     000B                     	;# 
   167     000C                     	;# 
   168     000D                     	;# 
   169     000E                     	;# 
   170     000E                     	;# 
   171     000F                     	;# 
   172     0010                     	;# 
   173     0011                     	;# 
   174     0012                     	;# 
   175     0013                     	;# 
   176     0014                     	;# 
   177     0015                     	;# 
   178     0015                     	;# 
   179     0016                     	;# 
   180     0017                     	;# 
   181     0018                     	;# 
   182     0019                     	;# 
   183     001A                     	;# 
   184     001B                     	;# 
   185     001B                     	;# 
   186     001C                     	;# 
   187     001D                     	;# 
   188     001E                     	;# 
   189     001F                     	;# 
   190     0081                     	;# 
   191     0085                     	;# 
   192     0086                     	;# 
   193     0087                     	;# 
   194     0088                     	;# 
   195     0089                     	;# 
   196     008C                     	;# 
   197     008D                     	;# 
   198     008E                     	;# 
   199     0091                     	;# 
   200     0092                     	;# 
   201     0093                     	;# 
   202     0094                     	;# 
   203     0098                     	;# 
   204     0099                     	;# 
   205     009C                     	;# 
   206     009D                     	;# 
   207     009E                     	;# 
   208     009F                     	;# 
   209     010C                     	;# 
   210     010D                     	;# 
   211     010E                     	;# 
   212     010F                     	;# 
   213     018C                     	;# 
   214     018D                     	;# 
   215     0000                     	;# 
   216     0001                     	;# 
   217     0002                     	;# 
   218     0003                     	;# 
   219     0004                     	;# 
   220     0005                     	;# 
   221     0006                     	;# 
   222     0007                     	;# 
   223     0008                     	;# 
   224     0009                     	;# 
   225     000A                     	;# 
   226     000B                     	;# 
   227     000C                     	;# 
   228     000D                     	;# 
   229     000E                     	;# 
   230     000E                     	;# 
   231     000F                     	;# 
   232     0010                     	;# 
   233     0011                     	;# 
   234     0012                     	;# 
   235     0013                     	;# 
   236     0014                     	;# 
   237     0015                     	;# 
   238     0015                     	;# 
   239     0016                     	;# 
   240     0017                     	;# 
   241     0018                     	;# 
   242     0019                     	;# 
   243     001A                     	;# 
   244     001B                     	;# 
   245     001B                     	;# 
   246     001C                     	;# 
   247     001D                     	;# 
   248     001E                     	;# 
   249     001F                     	;# 
   250     0081                     	;# 
   251     0085                     	;# 
   252     0086                     	;# 
   253     0087                     	;# 
   254     0088                     	;# 
   255     0089                     	;# 
   256     008C                     	;# 
   257     008D                     	;# 
   258     008E                     	;# 
   259     0091                     	;# 
   260     0092                     	;# 
   261     0093                     	;# 
   262     0094                     	;# 
   263     0098                     	;# 
   264     0099                     	;# 
   265     009C                     	;# 
   266     009D                     	;# 
   267     009E                     	;# 
   268     009F                     	;# 
   269     010C                     	;# 
   270     010D                     	;# 
   271     010E                     	;# 
   272     010F                     	;# 
   273     018C                     	;# 
   274     018D                     	;# 
   275     0000                     	;# 
   276     0001                     	;# 
   277     0002                     	;# 
   278     0003                     	;# 
   279     0004                     	;# 
   280     0005                     	;# 
   281     0006                     	;# 
   282     0007                     	;# 
   283     0008                     	;# 
   284     0009                     	;# 
   285     000A                     	;# 
   286     000B                     	;# 
   287     000C                     	;# 
   288     000D                     	;# 
   289     000E                     	;# 
   290     000E                     	;# 
   291     000F                     	;# 
   292     0010                     	;# 
   293     0011                     	;# 
   294     0012                     	;# 
   295     0013                     	;# 
   296     0014                     	;# 
   297     0015                     	;# 
   298     0015                     	;# 
   299     0016                     	;# 
   300     0017                     	;# 
   301     0018                     	;# 
   302     0019                     	;# 
   303     001A                     	;# 
   304     001B                     	;# 
   305     001B                     	;# 
   306     001C                     	;# 
   307     001D                     	;# 
   308     001E                     	;# 
   309     001F                     	;# 
   310     0081                     	;# 
   311     0085                     	;# 
   312     0086                     	;# 
   313     0087                     	;# 
   314     0088                     	;# 
   315     0089                     	;# 
   316     008C                     	;# 
   317     008D                     	;# 
   318     008E                     	;# 
   319     0091                     	;# 
   320     0092                     	;# 
   321     0093                     	;# 
   322     0094                     	;# 
   323     0098                     	;# 
   324     0099                     	;# 
   325     009C                     	;# 
   326     009D                     	;# 
   327     009E                     	;# 
   328     009F                     	;# 
   329     010C                     	;# 
   330     010D                     	;# 
   331     010E                     	;# 
   332     010F                     	;# 
   333     018C                     	;# 
   334     018D                     	;# 
   335     0000                     	;# 
   336     0001                     	;# 
   337     0002                     	;# 
   338     0003                     	;# 
   339     0004                     	;# 
   340     0005                     	;# 
   341     0006                     	;# 
   342     0007                     	;# 
   343     0008                     	;# 
   344     0009                     	;# 
   345     000A                     	;# 
   346     000B                     	;# 
   347     000C                     	;# 
   348     000D                     	;# 
   349     000E                     	;# 
   350     000E                     	;# 
   351     000F                     	;# 
   352     0010                     	;# 
   353     0011                     	;# 
   354     0012                     	;# 
   355     0013                     	;# 
   356     0014                     	;# 
   357     0015                     	;# 
   358     0015                     	;# 
   359     0016                     	;# 
   360     0017                     	;# 
   361     0018                     	;# 
   362     0019                     	;# 
   363     001A                     	;# 
   364     001B                     	;# 
   365     001B                     	;# 
   366     001C                     	;# 
   367     001D                     	;# 
   368     001E                     	;# 
   369     001F                     	;# 
   370     0081                     	;# 
   371     0085                     	;# 
   372     0086                     	;# 
   373     0087                     	;# 
   374     0088                     	;# 
   375     0089                     	;# 
   376     008C                     	;# 
   377     008D                     	;# 
   378     008E                     	;# 
   379     0091                     	;# 
   380     0092                     	;# 
   381     0093                     	;# 
   382     0094                     	;# 
   383     0098                     	;# 
   384     0099                     	;# 
   385     009C                     	;# 
   386     009D                     	;# 
   387     009E                     	;# 
   388     009F                     	;# 
   389     010C                     	;# 
   390     010D                     	;# 
   391     010E                     	;# 
   392     010F                     	;# 
   393     018C                     	;# 
   394     018D                     	;# 
   395     0000                     	;# 
   396     0001                     	;# 
   397     0002                     	;# 
   398     0003                     	;# 
   399     0004                     	;# 
   400     0005                     	;# 
   401     0006                     	;# 
   402     0007                     	;# 
   403     0008                     	;# 
   404     0009                     	;# 
   405     000A                     	;# 
   406     000B                     	;# 
   407     000C                     	;# 
   408     000D                     	;# 
   409     000E                     	;# 
   410     000E                     	;# 
   411     000F                     	;# 
   412     0010                     	;# 
   413     0011                     	;# 
   414     0012                     	;# 
   415     0013                     	;# 
   416     0014                     	;# 
   417     0015                     	;# 
   418     0015                     	;# 
   419     0016                     	;# 
   420     0017                     	;# 
   421     0018                     	;# 
   422     0019                     	;# 
   423     001A                     	;# 
   424     001B                     	;# 
   425     001B                     	;# 
   426     001C                     	;# 
   427     001D                     	;# 
   428     001E                     	;# 
   429     001F                     	;# 
   430     0081                     	;# 
   431     0085                     	;# 
   432     0086                     	;# 
   433     0087                     	;# 
   434     0088                     	;# 
   435     0089                     	;# 
   436     008C                     	;# 
   437     008D                     	;# 
   438     008E                     	;# 
   439     0091                     	;# 
   440     0092                     	;# 
   441     0093                     	;# 
   442     0094                     	;# 
   443     0098                     	;# 
   444     0099                     	;# 
   445     009C                     	;# 
   446     009D                     	;# 
   447     009E                     	;# 
   448     009F                     	;# 
   449     010C                     	;# 
   450     010D                     	;# 
   451     010E                     	;# 
   452     010F                     	;# 
   453     018C                     	;# 
   454     018D                     	;# 
   455     0000                     	;# 
   456     0001                     	;# 
   457     0002                     	;# 
   458     0003                     	;# 
   459     0004                     	;# 
   460     0005                     	;# 
   461     0006                     	;# 
   462     0007                     	;# 
   463     0008                     	;# 
   464     0009                     	;# 
   465     000A                     	;# 
   466     000B                     	;# 
   467     000C                     	;# 
   468     000D                     	;# 
   469     000E                     	;# 
   470     000E                     	;# 
   471     000F                     	;# 
   472     0010                     	;# 
   473     0011                     	;# 
   474     0012                     	;# 
   475     0013                     	;# 
   476     0014                     	;# 
   477     0015                     	;# 
   478     0015                     	;# 
   479     0016                     	;# 
   480     0017                     	;# 
   481     0018                     	;# 
   482     0019                     	;# 
   483     001A                     	;# 
   484     001B                     	;# 
   485     001B                     	;# 
   486     001C                     	;# 
   487     001D                     	;# 
   488     001E                     	;# 
   489     001F                     	;# 
   490     0081                     	;# 
   491     0085                     	;# 
   492     0086                     	;# 
   493     0087                     	;# 
   494     0088                     	;# 
   495     0089                     	;# 
   496     008C                     	;# 
   497     008D                     	;# 
   498     008E                     	;# 
   499     0091                     	;# 
   500     0092                     	;# 
   501     0093                     	;# 
   502     0094                     	;# 
   503     0098                     	;# 
   504     0099                     	;# 
   505     009C                     	;# 
   506     009D                     	;# 
   507     009E                     	;# 
   508     009F                     	;# 
   509     010C                     	;# 
   510     010D                     	;# 
   511     010E                     	;# 
   512     010F                     	;# 
   513     018C                     	;# 
   514     018D                     	;# 
   515     0000                     	;# 
   516     0001                     	;# 
   517     0002                     	;# 
   518     0003                     	;# 
   519     0004                     	;# 
   520     0005                     	;# 
   521     0006                     	;# 
   522     0007                     	;# 
   523     0008                     	;# 
   524     0009                     	;# 
   525     000A                     	;# 
   526     000B                     	;# 
   527     000C                     	;# 
   528     000D                     	;# 
   529     000E                     	;# 
   530     000E                     	;# 
   531     000F                     	;# 
   532     0010                     	;# 
   533     0011                     	;# 
   534     0012                     	;# 
   535     0013                     	;# 
   536     0014                     	;# 
   537     0015                     	;# 
   538     0015                     	;# 
   539     0016                     	;# 
   540     0017                     	;# 
   541     0018                     	;# 
   542     0019                     	;# 
   543     001A                     	;# 
   544     001B                     	;# 
   545     001B                     	;# 
   546     001C                     	;# 
   547     001D                     	;# 
   548     001E                     	;# 
   549     001F                     	;# 
   550     0081                     	;# 
   551     0085                     	;# 
   552     0086                     	;# 
   553     0087                     	;# 
   554     0088                     	;# 
   555     0089                     	;# 
   556     008C                     	;# 
   557     008D                     	;# 
   558     008E                     	;# 
   559     0091                     	;# 
   560     0092                     	;# 
   561     0093                     	;# 
   562     0094                     	;# 
   563     0098                     	;# 
   564     0099                     	;# 
   565     009C                     	;# 
   566     009D                     	;# 
   567     009E                     	;# 
   568     009F                     	;# 
   569     010C                     	;# 
   570     010D                     	;# 
   571     010E                     	;# 
   572     010F                     	;# 
   573     018C                     	;# 
   574     018D                     	;# 
   575     0000                     	;# 
   576     0001                     	;# 
   577     0002                     	;# 
   578     0003                     	;# 
   579     0004                     	;# 
   580     0005                     	;# 
   581     0006                     	;# 
   582     0007                     	;# 
   583     0008                     	;# 
   584     0009                     	;# 
   585     000A                     	;# 
   586     000B                     	;# 
   587     000C                     	;# 
   588     000D                     	;# 
   589     000E                     	;# 
   590     000E                     	;# 
   591     000F                     	;# 
   592     0010                     	;# 
   593     0011                     	;# 
   594     0012                     	;# 
   595     0013                     	;# 
   596     0014                     	;# 
   597     0015                     	;# 
   598     0015                     	;# 
   599     0016                     	;# 
   600     0017                     	;# 
   601     0018                     	;# 
   602     0019                     	;# 
   603     001A                     	;# 
   604     001B                     	;# 
   605     001B                     	;# 
   606     001C                     	;# 
   607     001D                     	;# 
   608     001E                     	;# 
   609     001F                     	;# 
   610     0081                     	;# 
   611     0085                     	;# 
   612     0086                     	;# 
   613     0087                     	;# 
   614     0088                     	;# 
   615     0089                     	;# 
   616     008C                     	;# 
   617     008D                     	;# 
   618     008E                     	;# 
   619     0091                     	;# 
   620     0092                     	;# 
   621     0093                     	;# 
   622     0094                     	;# 
   623     0098                     	;# 
   624     0099                     	;# 
   625     009C                     	;# 
   626     009D                     	;# 
   627     009E                     	;# 
   628     009F                     	;# 
   629     010C                     	;# 
   630     010D                     	;# 
   631     010E                     	;# 
   632     010F                     	;# 
   633     018C                     	;# 
   634     018D                     	;# 
   635     0000                     	;# 
   636     0001                     	;# 
   637     0002                     	;# 
   638     0003                     	;# 
   639     0004                     	;# 
   640     0005                     	;# 
   641     0006                     	;# 
   642     0007                     	;# 
   643     0008                     	;# 
   644     0009                     	;# 
   645     000A                     	;# 
   646     000B                     	;# 
   647     000C                     	;# 
   648     000D                     	;# 
   649     000E                     	;# 
   650     000E                     	;# 
   651     000F                     	;# 
   652     0010                     	;# 
   653     0011                     	;# 
   654     0012                     	;# 
   655     0013                     	;# 
   656     0014                     	;# 
   657     0015                     	;# 
   658     0015                     	;# 
   659     0016                     	;# 
   660     0017                     	;# 
   661     0018                     	;# 
   662     0019                     	;# 
   663     001A                     	;# 
   664     001B                     	;# 
   665     001B                     	;# 
   666     001C                     	;# 
   667     001D                     	;# 
   668     001E                     	;# 
   669     001F                     	;# 
   670     0081                     	;# 
   671     0085                     	;# 
   672     0086                     	;# 
   673     0087                     	;# 
   674     0088                     	;# 
   675     0089                     	;# 
   676     008C                     	;# 
   677     008D                     	;# 
   678     008E                     	;# 
   679     0091                     	;# 
   680     0092                     	;# 
   681     0093                     	;# 
   682     0094                     	;# 
   683     0098                     	;# 
   684     0099                     	;# 
   685     009C                     	;# 
   686     009D                     	;# 
   687     009E                     	;# 
   688     009F                     	;# 
   689     010C                     	;# 
   690     010D                     	;# 
   691     010E                     	;# 
   692     010F                     	;# 
   693     018C                     	;# 
   694     018D                     	;# 
   695     0000                     	;# 
   696     0001                     	;# 
   697     0002                     	;# 
   698     0003                     	;# 
   699     0004                     	;# 
   700     0005                     	;# 
   701     0006                     	;# 
   702     0007                     	;# 
   703     0008                     	;# 
   704     0009                     	;# 
   705     000A                     	;# 
   706     000B                     	;# 
   707     000C                     	;# 
   708     000D                     	;# 
   709     000E                     	;# 
   710     000E                     	;# 
   711     000F                     	;# 
   712     0010                     	;# 
   713     0011                     	;# 
   714     0012                     	;# 
   715     0013                     	;# 
   716     0014                     	;# 
   717     0015                     	;# 
   718     0015                     	;# 
   719     0016                     	;# 
   720     0017                     	;# 
   721     0018                     	;# 
   722     0019                     	;# 
   723     001A                     	;# 
   724     001B                     	;# 
   725     001B                     	;# 
   726     001C                     	;# 
   727     001D                     	;# 
   728     001E                     	;# 
   729     001F                     	;# 
   730     0081                     	;# 
   731     0085                     	;# 
   732     0086                     	;# 
   733     0087                     	;# 
   734     0088                     	;# 
   735     0089                     	;# 
   736     008C                     	;# 
   737     008D                     	;# 
   738     008E                     	;# 
   739     0091                     	;# 
   740     0092                     	;# 
   741     0093                     	;# 
   742     0094                     	;# 
   743     0098                     	;# 
   744     0099                     	;# 
   745     009C                     	;# 
   746     009D                     	;# 
   747     009E                     	;# 
   748     009F                     	;# 
   749     010C                     	;# 
   750     010D                     	;# 
   751     010E                     	;# 
   752     010F                     	;# 
   753     018C                     	;# 
   754     018D                     	;# 
   755     0000                     	;# 
   756     0001                     	;# 
   757     0002                     	;# 
   758     0003                     	;# 
   759     0004                     	;# 
   760     0005                     	;# 
   761     0006                     	;# 
   762     0007                     	;# 
   763     0008                     	;# 
   764     0009                     	;# 
   765     000A                     	;# 
   766     000B                     	;# 
   767     000C                     	;# 
   768     000D                     	;# 
   769     000E                     	;# 
   770     000E                     	;# 
   771     000F                     	;# 
   772     0010                     	;# 
   773     0011                     	;# 
   774     0012                     	;# 
   775     0013                     	;# 
   776     0014                     	;# 
   777     0015                     	;# 
   778     0015                     	;# 
   779     0016                     	;# 
   780     0017                     	;# 
   781     0018                     	;# 
   782     0019                     	;# 
   783     001A                     	;# 
   784     001B                     	;# 
   785     001B                     	;# 
   786     001C                     	;# 
   787     001D                     	;# 
   788     001E                     	;# 
   789     001F                     	;# 
   790     0081                     	;# 
   791     0085                     	;# 
   792     0086                     	;# 
   793     0087                     	;# 
   794     0088                     	;# 
   795     0089                     	;# 
   796     008C                     	;# 
   797     008D                     	;# 
   798     008E                     	;# 
   799     0091                     	;# 
   800     0092                     	;# 
   801     0093                     	;# 
   802     0094                     	;# 
   803     0098                     	;# 
   804     0099                     	;# 
   805     009C                     	;# 
   806     009D                     	;# 
   807     009E                     	;# 
   808     009F                     	;# 
   809     010C                     	;# 
   810     010D                     	;# 
   811     010E                     	;# 
   812     010F                     	;# 
   813     018C                     	;# 
   814     018D                     	;# 
   815                           
   816                           	psect	idataCOMMON
   817     07FC                     __pidataCOMMON:
   818                           
   819                           ;initializer for read_digital_keypad@once
   820     07FC  3401               	retlw	1
   821                           
   822                           	psect	idataBANK0
   823     0D22                     __pidataBANK0:
   824                           
   825                           ;initializer for main@F1211
   826     0D22  34B3               	retlw	low ((STR_14-__stringbase)| (0+32768))
   827     0D23  34B6               	retlw	low ((STR_15-__stringbase)| (0+32768))
   828     0D24  34A7               	retlw	low ((STR_16-__stringbase)| (0+32768))
   829     0D25  34AA               	retlw	low ((STR_17-__stringbase)| (0+32768))
   830     0D26  34AD               	retlw	low ((STR_18-__stringbase)| (0+32768))
   831     0D27  34B0               	retlw	low ((STR_19-__stringbase)| (0+32768))
   832                           
   833                           ;initializer for _menu
   834     0D28  3488               	retlw	low ((STR_1-__stringbase)| (0+32768))
   835     0D29  3475               	retlw	low ((STR_2-__stringbase)| (0+32768))
   836     0D2A  3468               	retlw	low ((STR_3-__stringbase)| (0+32768))
   837     0D2B  347F               	retlw	low ((STR_4-__stringbase)| (0+32768))
   838     0D2C  344C               	retlw	low ((STR_5-__stringbase)| (0+32768))
   839                           
   840                           ;initializer for main@F1205
   841     0D2D  344F               	retlw	79
   842     0D2E  344E               	retlw	78
   843     0D2F  3400               	retlw	0
   844                           
   845                           ;initializer for _pos
   846     0D30  34FF               	retlw	255
   847     0D31  34FF               	retlw	255
   848     0019                     _TXREG	set	25
   849     001A                     _RCREG	set	26
   850     0001                     _TMR0	set	1
   851     0013                     _SSPBUF	set	19
   852     0006                     _PORTB	set	6
   853     0008                     _PORTD	set	8
   854     001E                     _ADRESH	set	30
   855     0064                     _TXIF	set	100
   856     0065                     _RCIF	set	101
   857     00C4                     _CREN	set	196
   858     00C7                     _SPEN	set	199
   859     0091                     _T2CKPS1	set	145
   860     0090                     _T2CKPS0	set	144
   861     005D                     _TMR0IE	set	93
   862     0061                     _TMR2IF	set	97
   863     0092                     _TMR2ON	set	146
   864     005E                     _PEIE	set	94
   865     005F                     _GIE	set	95
   866     00A5                     _SSPEN	set	165
   867     00A3                     _SSPM3	set	163
   868     0049                     _RE1	set	73
   869     004A                     _RE2	set	74
   870     00FA                     _nDONE	set	250
   871     00FA                     _GO	set	250
   872     00F8                     _ADON	set	248
   873     0099                     _SPBRG	set	153
   874     0092                     _PR2	set	146
   875     0091                     _SSPCON2	set	145
   876     0093                     _SSPADD	set	147
   877     0086                     _TRISB	set	134
   878     0088                     _TRISD	set	136
   879     009E                     _ADRESL	set	158
   880     0461                     _TMR2IE	set	1121
   881     040B                     _PSA	set	1035
   882     040D                     _T0CS	set	1037
   883     048E                     _ACKSTAT	set	1166
   884     048C                     _ACKEN	set	1164
   885     048D                     _ACKDT	set	1165
   886     048B                     _RCEN	set	1163
   887     048A                     _PEN	set	1162
   888     0488                     _SEN	set	1160
   889     04A2                     _R_nW	set	1186
   890     0449                     _TRISE1	set	1097
   891     044A                     _TRISE2	set	1098
   892     04FF                     _ADFM	set	1279
   893                           
   894                           	psect	strings
   895     0319                     __pstrings:
   896     0319                     stringtab:
   897     0319                     __stringtab:
   898                           
   899                           ;	String table - string pointers are 1 byte each
   900     0319  1BFF               	btfsc	btemp+1,7
   901     031A  2B23               	ljmp	stringcode
   902     031B  1383               	bcf	3,7
   903     031C  187F               	btfsc	btemp+1,0
   904     031D  1783               	bsf	3,7
   905     031E  0800               	movf	0,w
   906     031F  0A84               	incf	4,f
   907     0320  1903               	skipnz
   908     0321  0AFF               	incf	btemp+1,f
   909     0322  0008               	return
   910     0323                     stringcode:
   911     0323                     stringdir:
   912     0323  3003               	movlw	high stringdir
   913     0324  008A               	movwf	10
   914     0325  0804               	movf	4,w
   915     0326  0A84               	incf	4,f
   916     0327  0782               	addwf	2,f
   917     0328                     __stringbase:
   918     0328  3400               	retlw	0
   919     0329                     __end_of__stringtab:
   920     0329                     STR_10:
   921     0329  3459               	retlw	89	;'Y'
   922     032A  346F               	retlw	111	;'o'
   923     032B  3475               	retlw	117	;'u'
   924     032C  3420               	retlw	32	;' '
   925     032D  3461               	retlw	97	;'a'
   926     032E  3472               	retlw	114	;'r'
   927     032F  3465               	retlw	101	;'e'
   928     0330  3420               	retlw	32	;' '
   929     0331  3462               	retlw	98	;'b'
   930     0332  346C               	retlw	108	;'l'
   931     0333  346F               	retlw	111	;'o'
   932     0334  3463               	retlw	99	;'c'
   933     0335  346B               	retlw	107	;'k'
   934     0336  3465               	retlw	101	;'e'
   935     0337  3464               	retlw	100	;'d'
   936     0338  3400               	retlw	0
   937     0339                     STR_6:
   938     0339  3454               	retlw	84	;'T'
   939     033A  3449               	retlw	73	;'I'
   940     033B  344D               	retlw	77	;'M'
   941     033C  3445               	retlw	69	;'E'
   942     033D  3420               	retlw	32	;' '
   943     033E  3420               	retlw	32	;' '
   944     033F  3420               	retlw	32	;' '
   945     0340  3420               	retlw	32	;' '
   946     0341  3420               	retlw	32	;' '
   947     0342  3445               	retlw	69	;'E'
   948     0343  3420               	retlw	32	;' '
   949     0344  3420               	retlw	32	;' '
   950     0345  3453               	retlw	83	;'S'
   951     0346  3450               	retlw	80	;'P'
   952     0347  3400               	retlw	0
   953     0348                     STR_8:
   954     0348  3457               	retlw	87	;'W'
   955     0349  3472               	retlw	114	;'r'
   956     034A  346F               	retlw	111	;'o'
   957     034B  346E               	retlw	110	;'n'
   958     034C  3467               	retlw	103	;'g'
   959     034D  3420               	retlw	32	;' '
   960     034E  3470               	retlw	112	;'p'
   961     034F  3461               	retlw	97	;'a'
   962     0350  3473               	retlw	115	;'s'
   963     0351  3473               	retlw	115	;'s'
   964     0352  3477               	retlw	119	;'w'
   965     0353  3472               	retlw	114	;'r'
   966     0354  346F               	retlw	111	;'o'
   967     0355  3464               	retlw	100	;'d'
   968     0356  3400               	retlw	0
   969     0357                     STR_13:
   970     0357  3445               	retlw	69	;'E'
   971     0358  346E               	retlw	110	;'n'
   972     0359  3474               	retlw	116	;'t'
   973     035A  3465               	retlw	101	;'e'
   974     035B  3472               	retlw	114	;'r'
   975     035C  3420               	retlw	32	;' '
   976     035D  3450               	retlw	80	;'P'
   977     035E  3461               	retlw	97	;'a'
   978     035F  3473               	retlw	115	;'s'
   979     0360  3473               	retlw	115	;'s'
   980     0361  3477               	retlw	119	;'w'
   981     0362  346F               	retlw	111	;'o'
   982     0363  3472               	retlw	114	;'r'
   983     0364  3464               	retlw	100	;'d'
   984     0365  3400               	retlw	0
   985     0366                     STR_7:
   986     0366  344C               	retlw	76	;'L'
   987     0367  344F               	retlw	79	;'O'
   988     0368  3447               	retlw	71	;'G'
   989     0369  3449               	retlw	73	;'I'
   990     036A  344E               	retlw	78	;'N'
   991     036B  3420               	retlw	32	;' '
   992     036C  3453               	retlw	83	;'S'
   993     036D  3455               	retlw	85	;'U'
   994     036E  3443               	retlw	67	;'C'
   995     036F  3443               	retlw	67	;'C'
   996     0370  3445               	retlw	69	;'E'
   997     0371  3453               	retlw	83	;'S'
   998     0372  3453               	retlw	83	;'S'
   999     0373  3400               	retlw	0
  1000     0374                     STR_5:
  1001     0374  3443               	retlw	67	;'C'
  1002     0375  3468               	retlw	104	;'h'
  1003     0376  3461               	retlw	97	;'a'
  1004     0377  346E               	retlw	110	;'n'
  1005     0378  3467               	retlw	103	;'g'
  1006     0379  3465               	retlw	101	;'e'
  1007     037A  3420               	retlw	32	;' '
  1008     037B  3470               	retlw	112	;'p'
  1009     037C  3461               	retlw	97	;'a'
  1010     037D  3473               	retlw	115	;'s'
  1011     037E  3473               	retlw	115	;'s'
  1012     037F  3477               	retlw	119	;'w'
  1013     0380  3464               	retlw	100	;'d'
  1014     0381  3400               	retlw	0
  1015     0382                     STR_9:
  1016     0382  3461               	retlw	97	;'a'
  1017     0383  3474               	retlw	116	;'t'
  1018     0384  3474               	retlw	116	;'t'
  1019     0385  3465               	retlw	101	;'e'
  1020     0386  346D               	retlw	109	;'m'
  1021     0387  3470               	retlw	112	;'p'
  1022     0388  3474               	retlw	116	;'t'
  1023     0389  3473               	retlw	115	;'s'
  1024     038A  3420               	retlw	32	;' '
  1025     038B  346C               	retlw	108	;'l'
  1026     038C  3465               	retlw	101	;'e'
  1027     038D  3466               	retlw	102	;'f'
  1028     038E  3474               	retlw	116	;'t'
  1029     038F  3400               	retlw	0
  1030     0390                     STR_3:
  1031     0390  3444               	retlw	68	;'D'
  1032     0391  346F               	retlw	111	;'o'
  1033     0392  3477               	retlw	119	;'w'
  1034     0393  346E               	retlw	110	;'n'
  1035     0394  346C               	retlw	108	;'l'
  1036     0395  346F               	retlw	111	;'o'
  1037     0396  3461               	retlw	97	;'a'
  1038     0397  3464               	retlw	100	;'d'
  1039     0398  3420               	retlw	32	;' '
  1040     0399  346C               	retlw	108	;'l'
  1041     039A  346F               	retlw	111	;'o'
  1042     039B  3467               	retlw	103	;'g'
  1043     039C  3400               	retlw	0
  1044     039D                     STR_2:
  1045     039D  3443               	retlw	67	;'C'
  1046     039E  346C               	retlw	108	;'l'
  1047     039F  3465               	retlw	101	;'e'
  1048     03A0  3461               	retlw	97	;'a'
  1049     03A1  3472               	retlw	114	;'r'
  1050     03A2  3420               	retlw	32	;' '
  1051     03A3  346C               	retlw	108	;'l'
  1052     03A4  346F               	retlw	111	;'o'
  1053     03A5  3467               	retlw	103	;'g'
  1054     03A6  3400               	retlw	0
  1055     03A7                     STR_4:
  1056     03A7  3453               	retlw	83	;'S'
  1057     03A8  3465               	retlw	101	;'e'
  1058     03A9  3474               	retlw	116	;'t'
  1059     03AA  3420               	retlw	32	;' '
  1060     03AB  3474               	retlw	116	;'t'
  1061     03AC  3469               	retlw	105	;'i'
  1062     03AD  346D               	retlw	109	;'m'
  1063     03AE  3465               	retlw	101	;'e'
  1064     03AF  3400               	retlw	0
  1065     03B0                     STR_1:
  1066     03B0  3456               	retlw	86	;'V'
  1067     03B1  3469               	retlw	105	;'i'
  1068     03B2  3465               	retlw	101	;'e'
  1069     03B3  3477               	retlw	119	;'w'
  1070     03B4  3420               	retlw	32	;' '
  1071     03B5  346C               	retlw	108	;'l'
  1072     03B6  346F               	retlw	111	;'o'
  1073     03B7  3467               	retlw	103	;'g'
  1074     03B8  3400               	retlw	0
  1075     03B9                     STR_11:
  1076     03B9  3477               	retlw	119	;'w'
  1077     03BA  3461               	retlw	97	;'a'
  1078     03BB  3469               	retlw	105	;'i'
  1079     03BC  3474               	retlw	116	;'t'
  1080     03BD  3420               	retlw	32	;' '
  1081     03BE  3466               	retlw	102	;'f'
  1082     03BF  346F               	retlw	111	;'o'
  1083     03C0  3472               	retlw	114	;'r'
  1084     03C1  3400               	retlw	0
  1085     03C2                     STR_20:
  1086     03C2  3431               	retlw	49	;'1'
  1087     03C3  3430               	retlw	48	;'0'
  1088     03C4  3431               	retlw	49	;'1'
  1089     03C5  3430               	retlw	48	;'0'
  1090     03C6  3400               	retlw	0
  1091     03C7                     STR_12:
  1092     03C7  3473               	retlw	115	;'s'
  1093     03C8  3465               	retlw	101	;'e'
  1094     03C9  3463               	retlw	99	;'c'
  1095     03CA  3473               	retlw	115	;'s'
  1096     03CB  3400               	retlw	0
  1097     03CC                     STR_21:
  1098     03CC  3443               	retlw	67	;'C'
  1099     03CD  3420               	retlw	32	;' '
  1100     03CE  3400               	retlw	0
  1101     03CF                     STR_16:
  1102     03CF  3447               	retlw	71	;'G'
  1103     03D0  3431               	retlw	49	;'1'
  1104     03D1  3400               	retlw	0
  1105     03D2                     STR_17:
  1106     03D2  3447               	retlw	71	;'G'
  1107     03D3  3432               	retlw	50	;'2'
  1108     03D4  3400               	retlw	0
  1109     03D5                     STR_18:
  1110     03D5  3447               	retlw	71	;'G'
  1111     03D6  3433               	retlw	51	;'3'
  1112     03D7  3400               	retlw	0
  1113     03D8                     STR_19:
  1114     03D8  3447               	retlw	71	;'G'
  1115     03D9  3434               	retlw	52	;'4'
  1116     03DA  3400               	retlw	0
  1117     03DB                     STR_14:
  1118     03DB  3447               	retlw	71	;'G'
  1119     03DC  344E               	retlw	78	;'N'
  1120     03DD  3400               	retlw	0
  1121     03DE                     STR_15:
  1122     03DE  3447               	retlw	71	;'G'
  1123     03DF  3452               	retlw	82	;'R'
  1124     03E0  3400               	retlw	0
  1125     0357                     
  1126                           	psect	cinit
  1127     000F                     start_initialization:	
  1128                           ; #config settings
  1129                           
  1130     000F                     __initialization:
  1131                           
  1132                           ; Initialize objects allocated to BANK0
  1133     000F  1383               	bcf	3,7	;select IRP bank0
  1134     0010  306D               	movlw	low (__pdataBANK0+16)
  1135     0011  00FD               	movwf	btemp+-1
  1136     0012  300D               	movlw	high __pidataBANK0
  1137     0013  00FE               	movwf	btemp
  1138     0014  3022               	movlw	low __pidataBANK0
  1139     0015  00FF               	movwf	btemp+1
  1140     0016  305D               	movlw	low __pdataBANK0
  1141     0017  0084               	movwf	4
  1142     0018  120A  158A  256C  120A  118A  	fcall	init_ram0
  1143                           
  1144                           ; Initialize objects allocated to COMMON
  1145     001D  120A  118A  27FC  120A  118A  	fcall	__pidataCOMMON	;fetch initializer
  1146     0022  00FB               	movwf	__pdataCOMMON& (0+127)
  1147                           
  1148                           ; Clear objects allocated to BANK0
  1149     0023  3020               	movlw	low __pbssBANK0
  1150     0024  0084               	movwf	4
  1151     0025  3040               	movlw	low (__pbssBANK0+32)
  1152     0026  120A  158A  24CD  120A  118A  	fcall	clear_ram0
  1153     002B                     end_of_initialization:	
  1154                           ;End of C runtime variable initialization code
  1155                           
  1156     002B                     __end_of__initialization:
  1157     002B  0183               	clrf	3
  1158     002C  120A  118A  29BA   	ljmp	_main	;jump to C main() function
  1159                           
  1160                           	psect	dataCOMMON
  1161     007B                     __pdataCOMMON:
  1162     007B                     read_digital_keypad@once:
  1163     007B                     	ds	1
  1164                           
  1165                           	psect	bssBANK0
  1166     0020                     __pbssBANK0:
  1167     0020                     _clock_reg:
  1168     0020                     	ds	3
  1169     0023                     isr@count:
  1170     0023                     	ds	2
  1171     0025                     login@attempt_left:
  1172     0025                     	ds	1
  1173     0026                     login@i:
  1174     0026                     	ds	1
  1175     0027                     menu_screen@menu_pos:
  1176     0027                     	ds	1
  1177     0028                     _ret_time:
  1178     0028                     	ds	1
  1179     0029                     _sec:
  1180     0029                     	ds	1
  1181     002A                     _log:
  1182     002A                     	ds	11
  1183     0035                     _time:
  1184     0035                     	ds	7
  1185     003C                     login@u_password:
  1186     003C                     	ds	4
  1187                           
  1188                           	psect	dataBANK0
  1189     005D                     __pdataBANK0:
  1190     005D                     main@F1211:
  1191     005D                     	ds	6
  1192     0063                     _menu:
  1193     0063                     	ds	5
  1194     0068                     main@F1205:
  1195     0068                     	ds	3
  1196     006B                     _pos:
  1197     006B                     	ds	2
  1198                           
  1199                           	psect	inittext
  1200     0D68                     init_fetch0:	
  1201                           ;	Called with low address in FSR and high address in W
  1202                           
  1203     0D68  087E               	movf	btemp,w
  1204     0D69  008A               	movwf	10
  1205     0D6A  087F               	movf	btemp+1,w
  1206     0D6B  0082               	movwf	2
  1207     0D6C                     init_ram0:	
  1208                           ;Called with:
  1209                           ;	high address of idata address in btemp 
  1210                           ;	low address of idata address in btemp+1 
  1211                           ;	low address of data in FSR
  1212                           ;	high address + 1 of data in btemp-1
  1213                           
  1214     0D6C  120A  158A  2568  120A  158A  	fcall	init_fetch0
  1215     0D71  0080               	movwf	0
  1216     0D72  0A84               	incf	4,f
  1217     0D73  0804               	movf	4,w
  1218     0D74  067D               	xorwf	btemp+-1,w
  1219     0D75  1903               	btfsc	3,2
  1220     0D76  3400               	retlw	0
  1221     0D77  0AFF               	incf	btemp+1,f
  1222     0D78  1903               	btfsc	3,2
  1223     0D79  0AFE               	incf	btemp,f
  1224     0D7A  2D6C               	goto	init_ram0
  1225                           
  1226                           	psect	clrtext
  1227     0CCD                     clear_ram0:	
  1228                           ;	Called with FSR containing the base address, and
  1229                           ;	W with the last address+1
  1230                           
  1231     0CCD  0064               	clrwdt	;clear the watchdog before getting into this loop
  1232     0CCE                     clrloop0:
  1233     0CCE  0180               	clrf	0	;clear RAM location pointed to by FSR
  1234     0CCF  0A84               	incf	4,f	;increment pointer
  1235     0CD0  0604               	xorwf	4,w	;XOR with final address
  1236     0CD1  1903               	btfsc	3,2	;have we reached the end yet?
  1237     0CD2  3400               	retlw	0	;all done for this memory range, return
  1238     0CD3  0604               	xorwf	4,w	;XOR again to restore value
  1239     0CD4  2CCE               	goto	clrloop0	;do the next byte
  1240                           
  1241                           	psect	cstackCOMMON
  1242     0070                     __pcstackCOMMON:
  1243     0070                     ?_read_ds1307:
  1244     0070                     ?_clear_screen:	
  1245                           ; 1 bytes @ 0x0
  1246                           
  1247     0070                     ?_eeprom_at24c04_read:	
  1248                           ; 1 bytes @ 0x0
  1249                           
  1250     0070                     ?_i2c_start:	
  1251                           ; 1 bytes @ 0x0
  1252                           
  1253     0070                     ?_i2c_rep_start:	
  1254                           ; 1 bytes @ 0x0
  1255                           
  1256     0070                     ?_i2c_read:	
  1257                           ; 1 bytes @ 0x0
  1258                           
  1259     0070                     ?_i2c_stop:	
  1260                           ; 1 bytes @ 0x0
  1261                           
  1262     0070                     ?_init_timer2:	
  1263                           ; 1 bytes @ 0x0
  1264                           
  1265     0070                     ?_init_adc:	
  1266                           ; 1 bytes @ 0x0
  1267                           
  1268     0070                     ?_get_time:	
  1269                           ; 1 bytes @ 0x0
  1270                           
  1271     0070                     ?_display_time:	
  1272                           ; 1 bytes @ 0x0
  1273                           
  1274     0070                     ?_log_event:	
  1275                           ; 1 bytes @ 0x0
  1276                           
  1277     0070                     ?_init_display_controller:	
  1278                           ; 1 bytes @ 0x0
  1279                           
  1280     0070                     ?_init_clcd:	
  1281                           ; 1 bytes @ 0x0
  1282                           
  1283     0070                     ?_init_digital_keypad:	
  1284                           ; 1 bytes @ 0x0
  1285                           
  1286     0070                     ?_read_digital_keypad:	
  1287                           ; 1 bytes @ 0x0
  1288                           
  1289     0070                     ?_init_ds1307:	
  1290                           ; 1 bytes @ 0x0
  1291                           
  1292     0070                     ?_i2c_wait_for_idle:	
  1293                           ; 1 bytes @ 0x0
  1294                           
  1295     0070                     ?_init_config:	
  1296                           ; 1 bytes @ 0x0
  1297                           
  1298     0070                     ?_main:	
  1299                           ; 1 bytes @ 0x0
  1300                           
  1301     0070                     ?_isr:	
  1302                           ; 1 bytes @ 0x0
  1303                           
  1304     0070                     ??_isr:	
  1305                           ; 1 bytes @ 0x0
  1306                           
  1307     0070                     ?_i2c_write:	
  1308                           ; 1 bytes @ 0x0
  1309                           
  1310                           
  1311                           ; 2 bytes @ 0x0
  1312     0070                     	ds	2
  1313     0072                     ?_strncpy:
  1314     0072                     ?_clcd_write:	
  1315                           ; 1 bytes @ 0x2
  1316                           
  1317     0072                     ??_i2c_start:	
  1318                           ; 1 bytes @ 0x2
  1319                           
  1320     0072                     ??_i2c_write:	
  1321                           ; 1 bytes @ 0x2
  1322                           
  1323     0072                     ??_i2c_rep_start:	
  1324                           ; 1 bytes @ 0x2
  1325                           
  1326     0072                     ??_i2c_read:	
  1327                           ; 1 bytes @ 0x2
  1328                           
  1329     0072                     ??_i2c_stop:	
  1330                           ; 1 bytes @ 0x2
  1331                           
  1332     0072                     ??_init_timer2:	
  1333                           ; 1 bytes @ 0x2
  1334                           
  1335     0072                     ?_strcpy:	
  1336                           ; 1 bytes @ 0x2
  1337                           
  1338     0072                     ??_init_adc:	
  1339                           ; 1 bytes @ 0x2
  1340                           
  1341     0072                     ??_init_digital_keypad:	
  1342                           ; 1 bytes @ 0x2
  1343                           
  1344     0072                     ??_read_digital_keypad:	
  1345                           ; 1 bytes @ 0x2
  1346                           
  1347     0072                     ??_i2c_wait_for_idle:	
  1348                           ; 1 bytes @ 0x2
  1349                           
  1350     0072                     ?___bmul:	
  1351                           ; 1 bytes @ 0x2
  1352                           
  1353     0072                     ?_strncmp:	
  1354                           ; 1 bytes @ 0x2
  1355                           
  1356     0072                     ?_read_adc:	
  1357                           ; 2 bytes @ 0x2
  1358                           
  1359     0072                     ?___awdiv:	
  1360                           ; 2 bytes @ 0x2
  1361                           
  1362     0072                     ?___awmod:	
  1363                           ; 2 bytes @ 0x2
  1364                           
  1365     0072                     ?___lldiv:	
  1366                           ; 2 bytes @ 0x2
  1367                           
  1368     0072                     clcd_write@mode:	
  1369                           ; 4 bytes @ 0x2
  1370                           
  1371     0072                     i2c_read@ack:	
  1372                           ; 1 bytes @ 0x2
  1373                           
  1374     0072                     i2c_write@data:	
  1375                           ; 1 bytes @ 0x2
  1376                           
  1377     0072                     ___bmul@multiplicand:	
  1378                           ; 1 bytes @ 0x2
  1379                           
  1380     0072                     strcpy@src:	
  1381                           ; 1 bytes @ 0x2
  1382                           
  1383     0072                     strncmp@r:	
  1384                           ; 1 bytes @ 0x2
  1385                           
  1386     0072                     strncpy@s:	
  1387                           ; 1 bytes @ 0x2
  1388                           
  1389     0072                     ___awdiv@divisor:	
  1390                           ; 1 bytes @ 0x2
  1391                           
  1392     0072                     ___awmod@divisor:	
  1393                           ; 2 bytes @ 0x2
  1394                           
  1395     0072                     ___lldiv@divisor:	
  1396                           ; 2 bytes @ 0x2
  1397                           
  1398                           
  1399                           ; 4 bytes @ 0x2
  1400     0072                     	ds	1
  1401     0073                     ??_clcd_write:
  1402     0073                     ?_write_ds1307:	
  1403                           ; 1 bytes @ 0x3
  1404                           
  1405     0073                     ?_eeprom_at24c04_byte_write:	
  1406                           ; 1 bytes @ 0x3
  1407                           
  1408     0073                     ??_strcpy:	
  1409                           ; 1 bytes @ 0x3
  1410                           
  1411     0073                     ??___bmul:	
  1412                           ; 1 bytes @ 0x3
  1413                           
  1414     0073                     read_digital_keypad@mode:	
  1415                           ; 1 bytes @ 0x3
  1416                           
  1417     0073                     write_ds1307@data:	
  1418                           ; 1 bytes @ 0x3
  1419                           
  1420     0073                     eeprom_at24c04_byte_write@data:	
  1421                           ; 1 bytes @ 0x3
  1422                           
  1423     0073                     i2c_read@data:	
  1424                           ; 1 bytes @ 0x3
  1425                           
  1426     0073                     ___bmul@product:	
  1427                           ; 1 bytes @ 0x3
  1428                           
  1429     0073                     strcpy@d:	
  1430                           ; 1 bytes @ 0x3
  1431                           
  1432     0073                     strncmp@n:	
  1433                           ; 1 bytes @ 0x3
  1434                           
  1435     0073                     strncpy@n:	
  1436                           ; 2 bytes @ 0x3
  1437                           
  1438                           
  1439                           ; 2 bytes @ 0x3
  1440     0073                     	ds	1
  1441     0074                     ??_read_ds1307:
  1442     0074                     ??_eeprom_at24c04_read:	
  1443                           ; 1 bytes @ 0x4
  1444                           
  1445     0074                     ??_write_ds1307:	
  1446                           ; 1 bytes @ 0x4
  1447                           
  1448     0074                     ??_eeprom_at24c04_byte_write:	
  1449                           ; 1 bytes @ 0x4
  1450                           
  1451     0074                     ??_read_adc:	
  1452                           ; 1 bytes @ 0x4
  1453                           
  1454     0074                     read_ds1307@addr:	
  1455                           ; 1 bytes @ 0x4
  1456                           
  1457     0074                     write_ds1307@addr:	
  1458                           ; 1 bytes @ 0x4
  1459                           
  1460     0074                     eeprom_at24c04_read@addr:	
  1461                           ; 1 bytes @ 0x4
  1462                           
  1463     0074                     eeprom_at24c04_byte_write@addr:	
  1464                           ; 1 bytes @ 0x4
  1465                           
  1466     0074                     ___bmul@multiplier:	
  1467                           ; 1 bytes @ 0x4
  1468                           
  1469     0074                     strcpy@dest:	
  1470                           ; 1 bytes @ 0x4
  1471                           
  1472     0074                     read_adc@adc_reg_val:	
  1473                           ; 1 bytes @ 0x4
  1474                           
  1475     0074                     ___awdiv@dividend:	
  1476                           ; 2 bytes @ 0x4
  1477                           
  1478     0074                     ___awmod@dividend:	
  1479                           ; 2 bytes @ 0x4
  1480                           
  1481                           
  1482                           ; 2 bytes @ 0x4
  1483     0074                     	ds	1
  1484     0075                     ?_eeprom_at24c04_str_write:
  1485     0075                     ??_strncpy:	
  1486                           ; 1 bytes @ 0x5
  1487                           
  1488     0075                     ??_strncmp:	
  1489                           ; 1 bytes @ 0x5
  1490                           
  1491     0075                     clcd_write@byte:	
  1492                           ; 1 bytes @ 0x5
  1493                           
  1494     0075                     read_ds1307@data:	
  1495                           ; 1 bytes @ 0x5
  1496                           
  1497     0075                     eeprom_at24c04_read@data:	
  1498                           ; 1 bytes @ 0x5
  1499                           
  1500     0075                     strncpy@d:	
  1501                           ; 1 bytes @ 0x5
  1502                           
  1503     0075                     eeprom_at24c04_str_write@data:	
  1504                           ; 1 bytes @ 0x5
  1505                           
  1506                           
  1507                           ; 2 bytes @ 0x5
  1508     0075                     	ds	1
  1509     0076                     ?_clcd_print:
  1510     0076                     ??_clear_screen:	
  1511                           ; 1 bytes @ 0x6
  1512                           
  1513     0076                     ??_get_time:	
  1514                           ; 1 bytes @ 0x6
  1515                           
  1516     0076                     ??_init_display_controller:	
  1517                           ; 1 bytes @ 0x6
  1518                           
  1519     0076                     ??_init_ds1307:	
  1520                           ; 1 bytes @ 0x6
  1521                           
  1522     0076                     ??___awdiv:	
  1523                           ; 1 bytes @ 0x6
  1524                           
  1525     0076                     ??___awmod:	
  1526                           ; 1 bytes @ 0x6
  1527                           
  1528     0076                     ?___lwdiv:	
  1529                           ; 1 bytes @ 0x6
  1530                           
  1531     0076                     init_ds1307@dummy:	
  1532                           ; 2 bytes @ 0x6
  1533                           
  1534     0076                     ___awdiv@counter:	
  1535                           ; 1 bytes @ 0x6
  1536                           
  1537     0076                     ___awmod@counter:	
  1538                           ; 1 bytes @ 0x6
  1539                           
  1540     0076                     strncpy@cp:	
  1541                           ; 1 bytes @ 0x6
  1542                           
  1543     0076                     clcd_print@str:	
  1544                           ; 1 bytes @ 0x6
  1545                           
  1546     0076                     ___lwdiv@divisor:	
  1547                           ; 2 bytes @ 0x6
  1548                           
  1549     0076                     ___lldiv@dividend:	
  1550                           ; 2 bytes @ 0x6
  1551                           
  1552                           
  1553                           ; 4 bytes @ 0x6
  1554     0076                     	ds	1
  1555     0077                     ??_eeprom_at24c04_str_write:
  1556     0077                     eeprom_at24c04_str_write@addr:	
  1557                           ; 1 bytes @ 0x7
  1558                           
  1559     0077                     ___awdiv@sign:	
  1560                           ; 1 bytes @ 0x7
  1561                           
  1562     0077                     ___awmod@sign:	
  1563                           ; 1 bytes @ 0x7
  1564                           
  1565     0077                     strncmp@l:	
  1566                           ; 1 bytes @ 0x7
  1567                           
  1568                           
  1569                           ; 1 bytes @ 0x7
  1570     0077                     	ds	1
  1571     0078                     ??_log_event:
  1572     0078                     ??_init_clcd:	
  1573                           ; 1 bytes @ 0x8
  1574                           
  1575     0078                     log_event@addr:	
  1576                           ; 1 bytes @ 0x8
  1577                           
  1578     0078                     clcd_print@addr:	
  1579                           ; 1 bytes @ 0x8
  1580                           
  1581     0078                     ___awdiv@quotient:	
  1582                           ; 1 bytes @ 0x8
  1583                           
  1584     0078                     ___lwdiv@dividend:	
  1585                           ; 2 bytes @ 0x8
  1586                           
  1587                           
  1588                           ; 2 bytes @ 0x8
  1589     0078                     	ds	1
  1590     0079                     ??_clcd_print:
  1591                           
  1592                           ; 1 bytes @ 0x9
  1593     0079                     	ds	1
  1594     007A                     ?_clcd_putch:
  1595     007A                     ?_log_car_event:	
  1596                           ; 1 bytes @ 0xA
  1597                           
  1598     007A                     ??___lldiv:	
  1599                           ; 1 bytes @ 0xA
  1600                           
  1601     007A                     ??___lwdiv:	
  1602                           ; 1 bytes @ 0xA
  1603                           
  1604     007A                     log_car_event@speed:	
  1605                           ; 1 bytes @ 0xA
  1606                           
  1607     007A                     clcd_putch@addr:	
  1608                           ; 1 bytes @ 0xA
  1609                           
  1610                           
  1611                           ; 1 bytes @ 0xA
  1612     007A                     	ds	1
  1613     007B                     ??_clcd_putch:
  1614     007B                     ??_display_time:	
  1615                           ; 1 bytes @ 0xB
  1616                           
  1617     007B                     ??_menu_screen:	
  1618                           ; 1 bytes @ 0xB
  1619                           
  1620     007B                     ??_init_config:	
  1621                           ; 1 bytes @ 0xB
  1622                           
  1623                           
  1624                           	psect	cstackBANK0
  1625     0040                     __pcstackBANK0:	
  1626                           ; 1 bytes @ 0xB
  1627                           
  1628     0040                     ??_log_car_event:
  1629     0040                     clcd_putch@data:	
  1630                           ; 1 bytes @ 0x0
  1631                           
  1632     0040                     ___lwdiv@quotient:	
  1633                           ; 1 bytes @ 0x0
  1634                           
  1635     0040                     ___lldiv@quotient:	
  1636                           ; 2 bytes @ 0x0
  1637                           
  1638                           
  1639                           ; 4 bytes @ 0x0
  1640     0040                     	ds	1
  1641     0041                     ?_display_dashboard:
  1642     0041                     ?_menu_screen:	
  1643                           ; 1 bytes @ 0x1
  1644                           
  1645     0041                     ?_login:	
  1646                           ; 1 bytes @ 0x1
  1647                           
  1648     0041                     display_dashboard@speed:	
  1649                           ; 1 bytes @ 0x1
  1650                           
  1651     0041                     menu_screen@reset_flag:	
  1652                           ; 1 bytes @ 0x1
  1653                           
  1654     0041                     login@reset_flag:	
  1655                           ; 1 bytes @ 0x1
  1656                           
  1657                           
  1658                           ; 1 bytes @ 0x1
  1659     0041                     	ds	1
  1660     0042                     ??_display_dashboard:
  1661     0042                     ??_login:	
  1662                           ; 1 bytes @ 0x2
  1663                           
  1664     0042                     log_car_event@event:	
  1665                           ; 1 bytes @ 0x2
  1666                           
  1667     0042                     menu_screen@key:	
  1668                           ; 1 bytes @ 0x2
  1669                           
  1670     0042                     ___lwdiv@counter:	
  1671                           ; 1 bytes @ 0x2
  1672                           
  1673                           
  1674                           ; 1 bytes @ 0x2
  1675     0042                     	ds	2
  1676     0044                     display_dashboard@event:
  1677     0044                     ___lldiv@counter:	
  1678                           ; 1 bytes @ 0x4
  1679                           
  1680                           
  1681                           ; 1 bytes @ 0x4
  1682     0044                     	ds	1
  1683     0045                     ?_init_i2c:
  1684     0045                     login@s_password:	
  1685                           ; 1 bytes @ 0x5
  1686                           
  1687     0045                     init_i2c@baud:	
  1688                           ; 4 bytes @ 0x5
  1689                           
  1690                           
  1691                           ; 4 bytes @ 0x5
  1692     0045                     	ds	4
  1693     0049                     ??_init_i2c:
  1694     0049                     login@key:	
  1695                           ; 1 bytes @ 0x9
  1696                           
  1697                           
  1698                           ; 1 bytes @ 0x9
  1699     0049                     	ds	1
  1700     004A                     login@j:
  1701                           
  1702                           ; 2 bytes @ 0xA
  1703     004A                     	ds	3
  1704     004D                     ??_main:
  1705                           
  1706                           ; 1 bytes @ 0xD
  1707     004D                     	ds	2
  1708     004F                     main@gear:
  1709                           
  1710                           ; 6 bytes @ 0xF
  1711     004F                     	ds	6
  1712     0055                     main@event:
  1713                           
  1714                           ; 3 bytes @ 0x15
  1715     0055                     	ds	3
  1716     0058                     main@reset_flag:
  1717                           
  1718                           ; 1 bytes @ 0x18
  1719     0058                     	ds	1
  1720     0059                     main@control_flag:
  1721                           
  1722                           ; 1 bytes @ 0x19
  1723     0059                     	ds	1
  1724     005A                     main@gr:
  1725                           
  1726                           ; 1 bytes @ 0x1A
  1727     005A                     	ds	1
  1728     005B                     main@speed:
  1729                           
  1730                           ; 1 bytes @ 0x1B
  1731     005B                     	ds	1
  1732     005C                     main@key:
  1733                           
  1734                           ; 1 bytes @ 0x1C
  1735     005C                     	ds	1
  1736                           
  1737                           	psect	maintext
  1738     01BA                     __pmaintext:	
  1739 ;;
  1740 ;;Main: autosize = 0, tempsize = 2, incstack = 0, save=0
  1741 ;;
  1742 ;; *************** function _main *****************
  1743 ;; Defined at:
  1744 ;;		line 27 in file "main.c"
  1745 ;; Parameters:    Size  Location     Type
  1746 ;;		None
  1747 ;; Auto vars:     Size  Location     Type
  1748 ;;  gear            6   15[BANK0 ] PTR unsigned char [6]
  1749 ;;		 -> STR_19(3), STR_18(3), STR_17(3), STR_16(3), 
  1750 ;;		 -> STR_15(3), STR_14(3), 
  1751 ;;  event           3   21[BANK0 ] unsigned char [3]
  1752 ;;  key             1   28[BANK0 ] unsigned char 
  1753 ;;  speed           1   27[BANK0 ] unsigned char 
  1754 ;;  gr              1   26[BANK0 ] unsigned char 
  1755 ;;  control_flag    1   25[BANK0 ] unsigned char 
  1756 ;;  reset_flag      1   24[BANK0 ] unsigned char 
  1757 ;;  menu            1    0        unsigned char 
  1758 ;; Return value:  Size  Location     Type
  1759 ;;                  1    wreg      void 
  1760 ;; Registers used:
  1761 ;;		wreg, fsr0l, fsr0h, status,2, status,0, btemp+1, pclath, cstack
  1762 ;; Tracked objects:
  1763 ;;		On entry : B00/0
  1764 ;;		On exit  : 0/0
  1765 ;;		Unchanged: 0/0
  1766 ;; Data sizes:     COMMON   BANK0   BANK1   BANK3   BANK2
  1767 ;;      Params:         0       0       0       0       0
  1768 ;;      Locals:         0      14       0       0       0
  1769 ;;      Temps:          0       2       0       0       0
  1770 ;;      Totals:         0      16       0       0       0
  1771 ;;Total ram usage:       16 bytes
  1772 ;; Hardware stack levels required when called: 8
  1773 ;; This function calls:
  1774 ;;		___lwdiv
  1775 ;;		_clcd_print
  1776 ;;		_clcd_write
  1777 ;;		_clear_screen
  1778 ;;		_display_dashboard
  1779 ;;		_eeprom_at24c04_str_write
  1780 ;;		_init_config
  1781 ;;		_log_car_event
  1782 ;;		_login
  1783 ;;		_menu_screen
  1784 ;;		_read_adc
  1785 ;;		_read_digital_keypad
  1786 ;;		_strcpy
  1787 ;; This function is called by:
  1788 ;;		Startup code after reset
  1789 ;; This function uses a non-reentrant model
  1790 ;;
  1791                           
  1792     01BA                     _main:	
  1793                           ;psect for function _main
  1794                           
  1795     01BA                     l2882:	
  1796                           ;incstack = 0
  1797                           ; Regs used in _main: [wreg-fsr0h+status,2+status,0+btemp+1+pclath+cstack]
  1798                           
  1799                           
  1800                           ;main.c: 28: 
  1801     01BA  120A  158A  2679  120A  118A  	fcall	_init_config
  1802     01BF                     l2884:
  1803                           
  1804                           ;main.c: 29:         speed = read_adc() / 10;
  1805     01BF  1283               	bcf	3,5	;RP0=0, select bank0
  1806     01C0  1303               	bcf	3,6	;RP1=0, select bank0
  1807     01C1  01D9               	clrf	main@control_flag
  1808     01C2  0AD9               	incf	main@control_flag,f
  1809     01C3                     l2886:
  1810                           
  1811                           ;main.c: 30:         if (speed > 99) {
  1812     01C3  0868               	movf	main@F1205,w
  1813     01C4  00D5               	movwf	main@event
  1814     01C5  0869               	movf	main@F1205+1,w
  1815     01C6  00D6               	movwf	main@event+1
  1816     01C7  086A               	movf	main@F1205+2,w
  1817     01C8  00D7               	movwf	main@event+2
  1818     01C9                     l2888:
  1819     01C9                     l2890:
  1820                           
  1821                           ;main.c: 32:         }
  1822     01C9  01DA               	clrf	main@gr
  1823     01CA                     l2892:
  1824                           
  1825                           ;main.c: 33:         if (key == 0x3E) {
  1826     01CA  304F               	movlw	main@gear& (0+255)
  1827     01CB  0084               	movwf	4
  1828     01CC  085D               	movf	main@F1211,w
  1829     01CD  1383               	bcf	3,7	;select IRP bank0
  1830     01CE  0080               	movwf	0
  1831     01CF  0A84               	incf	4,f
  1832     01D0  085E               	movf	main@F1211+1,w
  1833     01D1  0080               	movwf	0
  1834     01D2  0A84               	incf	4,f
  1835     01D3  085F               	movf	main@F1211+2,w
  1836     01D4  0080               	movwf	0
  1837     01D5  0A84               	incf	4,f
  1838     01D6  0860               	movf	main@F1211+3,w
  1839     01D7  0080               	movwf	0
  1840     01D8  0A84               	incf	4,f
  1841     01D9  0861               	movf	main@F1211+4,w
  1842     01DA  0080               	movwf	0
  1843     01DB  0A84               	incf	4,f
  1844     01DC  0862               	movf	main@F1211+5,w
  1845     01DD  0080               	movwf	0
  1846     01DE                     l2894:
  1847                           
  1848                           ;main.c: 35:             log_car_event(event, speed);
  1849     01DE  01FA               	clrf	log_car_event@speed
  1850     01DF  3055               	movlw	(low (main@event| 0))& (0+255)
  1851     01E0  120A  118A  26F8  120A  118A  	fcall	_log_car_event
  1852     01E5                     l2896:
  1853                           
  1854                           ;main.c: 36:         } else if (key == 0x3D && gr < 6) {
  1855     01E5  309A               	movlw	(low ((STR_20-__stringbase)| (0+32768)))& (0+255)
  1856     01E6  00F5               	movwf	eeprom_at24c04_str_write@data
  1857     01E7  3080               	movlw	128
  1858     01E8  00F6               	movwf	eeprom_at24c04_str_write@data+1
  1859     01E9  3000               	movlw	0
  1860     01EA  120A  158A  26CF  120A  118A  	fcall	_eeprom_at24c04_str_write
  1861     01EF                     l2898:
  1862                           
  1863                           ;main.c: 38:             gr++;
  1864     01EF  3001               	movlw	1
  1865     01F0  120A  158A  2624  120A  118A  	fcall	_read_digital_keypad
  1866     01F5  1283               	bcf	3,5	;RP0=0, select bank0
  1867     01F6  1303               	bcf	3,6	;RP1=0, select bank0
  1868     01F7  00DC               	movwf	main@key
  1869     01F8                     l2900:
  1870                           
  1871                           ;main.c: 39:             log_car_event(event, speed);
  1872     01F8  3082               	movlw	130
  1873     01F9  1283               	bcf	3,5	;RP0=0, select bank0
  1874     01FA  1303               	bcf	3,6	;RP1=0, select bank0
  1875     01FB  00CE               	movwf	??_main+1
  1876     01FC  30DD               	movlw	221
  1877     01FD  00CD               	movwf	??_main
  1878     01FE                     u2577:
  1879     01FE  0BCD               	decfsz	??_main,f
  1880     01FF  29FE               	goto	u2577
  1881     0200  0BCE               	decfsz	??_main+1,f
  1882     0201  29FE               	goto	u2577
  1883     0202                     l2902:
  1884                           
  1885                           ;main.c: 41:             gr--;
  1886     0202  300A               	movlw	10
  1887     0203  00F6               	movwf	___lwdiv@divisor
  1888     0204  3000               	movlw	0
  1889     0205  00F7               	movwf	___lwdiv@divisor+1
  1890     0206  120A  158A  2543  120A  118A  	fcall	_read_adc
  1891     020B  0873               	movf	?_read_adc+1,w
  1892     020C  00F9               	movwf	___lwdiv@dividend+1
  1893     020D  0872               	movf	?_read_adc,w
  1894     020E  00F8               	movwf	___lwdiv@dividend
  1895     020F  120A  118A  2795  120A  118A  	fcall	___lwdiv
  1896     0214  0876               	movf	?___lwdiv,w
  1897     0215  1283               	bcf	3,5	;RP0=0, select bank0
  1898     0216  1303               	bcf	3,6	;RP1=0, select bank0
  1899     0217  00DB               	movwf	main@speed
  1900     0218                     l2904:
  1901                           
  1902                           ;main.c: 42:             strcpy(event, gear[gr]);
  1903     0218  3064               	movlw	100
  1904     0219  025B               	subwf	main@speed,w
  1905     021A  1C03               	skipc
  1906     021B  2A1D               	goto	u2481
  1907     021C  2A1E               	goto	u2480
  1908     021D                     u2481:
  1909     021D  2A20               	goto	l2908
  1910     021E                     u2480:
  1911     021E                     l2906:
  1912                           
  1913                           ;main.c: 43:             log_car_event(event, speed);
  1914     021E  3063               	movlw	99
  1915     021F  00DB               	movwf	main@speed
  1916     0220                     l2908:
  1917                           
  1918                           ;main.c: 45:             control_flag = 0x02;
  1919     0220  303E               	movlw	62
  1920     0221  065C               	xorwf	main@key,w
  1921     0222  1D03               	btfss	3,2
  1922     0223  2A25               	goto	u2491
  1923     0224  2A26               	goto	u2490
  1924     0225                     u2491:
  1925     0225  2A39               	goto	l2912
  1926     0226                     u2490:
  1927     0226                     l2910:
  1928                           
  1929                           ;main.c: 46:             clear_screen();
  1930     0226  30A4               	movlw	(low ((STR_21-__stringbase)| (0+32768)))& (0+255)
  1931     0227  00F2               	movwf	strcpy@src
  1932     0228  3055               	movlw	(low (main@event| 0))& (0+255)
  1933     0229  120A  158A  25A5  120A  118A  	fcall	_strcpy
  1934                           
  1935                           ;main.c: 47:             clcd_print("Enter Password", (0x80 + 0));
  1936     022E  1283               	bcf	3,5	;RP0=0, select bank0
  1937     022F  1303               	bcf	3,6	;RP1=0, select bank0
  1938     0230  085B               	movf	main@speed,w
  1939     0231  00FA               	movwf	log_car_event@speed
  1940     0232  3055               	movlw	(low (main@event| 0))& (0+255)
  1941     0233  120A  118A  26F8  120A  118A  	fcall	_log_car_event
  1942                           
  1943                           ;main.c: 48:             clcd_write((0xC0 + 4), 0);
  1944     0238  2B05               	goto	l2976
  1945     0239                     l2912:
  1946     0239  303D               	movlw	61
  1947     023A  065C               	xorwf	main@key,w
  1948     023B  1D03               	btfss	3,2
  1949     023C  2A3E               	goto	u2501
  1950     023D  2A3F               	goto	u2500
  1951     023E                     u2501:
  1952     023E  2A60               	goto	l2922
  1953     023F                     u2500:
  1954     023F                     l2914:
  1955     023F  3006               	movlw	6
  1956     0240  025A               	subwf	main@gr,w
  1957     0241  1803               	skipnc
  1958     0242  2A44               	goto	u2511
  1959     0243  2A45               	goto	u2510
  1960     0244                     u2511:
  1961     0244  2A60               	goto	l2922
  1962     0245                     u2510:
  1963     0245                     l2916:
  1964                           
  1965                           ;main.c: 49:             clcd_write(0x0F, 0);
  1966     0245  085A               	movf	main@gr,w
  1967     0246  3E4F               	addlw	(low (main@gear| 0))& (0+255)
  1968     0247  0084               	movwf	4
  1969     0248  1383               	bcf	3,7	;select IRP bank0
  1970     0249  0800               	movf	0,w
  1971     024A  00F2               	movwf	strcpy@src
  1972     024B  3055               	movlw	(low (main@event| 0))& (0+255)
  1973     024C  120A  158A  25A5  120A  118A  	fcall	_strcpy
  1974     0251                     l2918:
  1975                           
  1976                           ;main.c: 50:             reset_flag = 0X01;
  1977     0251  3001               	movlw	1
  1978     0252  00FF               	movwf	btemp+1
  1979     0253  087F               	movf	btemp+1,w
  1980     0254  1283               	bcf	3,5	;RP0=0, select bank0
  1981     0255  1303               	bcf	3,6	;RP1=0, select bank0
  1982     0256  07DA               	addwf	main@gr,f
  1983     0257                     l2920:
  1984                           
  1985                           ;main.c: 51:             TMR2ON = 1 ;
  1986     0257  085B               	movf	main@speed,w
  1987     0258  00FA               	movwf	log_car_event@speed
  1988     0259  3055               	movlw	(low (main@event| 0))& (0+255)
  1989     025A  120A  118A  26F8  120A  118A  	fcall	_log_car_event
  1990                           
  1991                           ;main.c: 52: 
  1992     025F  2B05               	goto	l2976
  1993     0260                     l2922:
  1994     0260  303B               	movlw	59
  1995     0261  065C               	xorwf	main@key,w
  1996     0262  1D03               	btfss	3,2
  1997     0263  2A65               	goto	u2521
  1998     0264  2A66               	goto	u2520
  1999     0265                     u2521:
  2000     0265  2A84               	goto	l2932
  2001     0266                     u2520:
  2002     0266                     l2924:
  2003     0266  085A               	movf	main@gr,w
  2004     0267  1903               	btfsc	3,2
  2005     0268  2A6A               	goto	u2531
  2006     0269  2A6B               	goto	u2530
  2007     026A                     u2531:
  2008     026A  2A84               	goto	l2932
  2009     026B                     u2530:
  2010     026B                     l2926:
  2011                           
  2012                           ;main.c: 53:         }
  2013     026B  3001               	movlw	1
  2014     026C  02DA               	subwf	main@gr,f
  2015     026D                     l2928:
  2016     026D  085A               	movf	main@gr,w
  2017     026E  3E4F               	addlw	(low (main@gear| 0))& (0+255)
  2018     026F  0084               	movwf	4
  2019     0270  1383               	bcf	3,7	;select IRP bank0
  2020     0271  0800               	movf	0,w
  2021     0272  00F2               	movwf	strcpy@src
  2022     0273  3055               	movlw	(low (main@event| 0))& (0+255)
  2023     0274  120A  158A  25A5  120A  118A  	fcall	_strcpy
  2024     0279                     l2930:
  2025     0279  1283               	bcf	3,5	;RP0=0, select bank0
  2026     027A  1303               	bcf	3,6	;RP1=0, select bank0
  2027     027B  085B               	movf	main@speed,w
  2028     027C  00FA               	movwf	log_car_event@speed
  2029     027D  3055               	movlw	(low (main@event| 0))& (0+255)
  2030     027E  120A  118A  26F8  120A  118A  	fcall	_log_car_event
  2031     0283  2B05               	goto	l2976
  2032     0284                     l2932:
  2033     0284  3037               	movlw	55
  2034     0285  065C               	xorwf	main@key,w
  2035     0286  1903               	btfsc	3,2
  2036     0287  2A89               	goto	u2541
  2037     0288  2A8A               	goto	u2540
  2038     0289                     u2541:
  2039     0289  2A90               	goto	l2936
  2040     028A                     u2540:
  2041     028A                     l2934:
  2042     028A  302F               	movlw	47
  2043     028B  065C               	xorwf	main@key,w
  2044     028C  1D03               	btfss	3,2
  2045     028D  2A8F               	goto	u2551
  2046     028E  2A90               	goto	u2550
  2047     028F                     u2551:
  2048     028F  2ABB               	goto	l320
  2049     0290                     u2550:
  2050     0290                     l2936:
  2051     0290  0359               	decf	main@control_flag,w
  2052     0291  1D03               	btfss	3,2
  2053     0292  2A94               	goto	u2561
  2054     0293  2A95               	goto	u2560
  2055     0294                     u2561:
  2056     0294  2ABB               	goto	l320
  2057     0295                     u2560:
  2058     0295                     l2938:
  2059     0295  3002               	movlw	2
  2060     0296  00D9               	movwf	main@control_flag
  2061     0297                     l2940:
  2062     0297  120A  158A  2532  120A  118A  	fcall	_clear_screen
  2063     029C                     l2942:
  2064     029C  302F               	movlw	(low ((STR_13-__stringbase)| (0+32768)))& (0+255)
  2065     029D  00F6               	movwf	clcd_print@str
  2066     029E  3080               	movlw	128
  2067     029F  00F7               	movwf	clcd_print@str+1
  2068     02A0  3080               	movlw	128
  2069     02A1  00F8               	movwf	clcd_print@addr
  2070     02A2  120A  158A  26FC  120A  118A  	fcall	_clcd_print
  2071     02A7                     l2944:
  2072     02A7  01F2               	clrf	clcd_write@mode
  2073     02A8  30C4               	movlw	196
  2074     02A9  120A  158A  278F  120A  118A  	fcall	_clcd_write
  2075     02AE                     l2946:
  2076     02AE  01F2               	clrf	clcd_write@mode
  2077     02AF  300F               	movlw	15
  2078     02B0  120A  158A  278F  120A  118A  	fcall	_clcd_write
  2079     02B5                     l2948:
  2080     02B5  1283               	bcf	3,5	;RP0=0, select bank0
  2081     02B6  1303               	bcf	3,6	;RP1=0, select bank0
  2082     02B7  01D8               	clrf	main@reset_flag
  2083     02B8  0AD8               	incf	main@reset_flag,f
  2084     02B9                     l2950:
  2085     02B9  1512               	bsf	18,2	;volatile
  2086     02BA  2B05               	goto	l2976
  2087     02BB                     l320:
  2088                           
  2089                           ;main.c: 83:         switch (control_flag) {
  2090     02BB  2B05               	goto	l2976
  2091     02BC                     l2952:
  2092                           
  2093                           ;main.c: 85:                 display_dashboard(event, speed);
  2094     02BC  085B               	movf	main@speed,w
  2095     02BD  00C1               	movwf	display_dashboard@speed
  2096     02BE  3055               	movlw	(low (main@event| 0))& (0+255)
  2097     02BF  120A  118A  25FF  120A  118A  	fcall	_display_dashboard
  2098                           
  2099                           ;main.c: 86:                 break;
  2100     02C4  2B12               	goto	l2978
  2101     02C5                     l2954:
  2102                           
  2103                           ;main.c: 91:                         clear_screen();
  2104     02C5  120A  158A  2532  120A  118A  	fcall	_clear_screen
  2105     02CA                     l2956:
  2106                           
  2107                           ;main.c: 92:                        control_flag = 0x01;
  2108     02CA  1283               	bcf	3,5	;RP0=0, select bank0
  2109     02CB  1303               	bcf	3,6	;RP1=0, select bank0
  2110     02CC  01D9               	clrf	main@control_flag
  2111     02CD  0AD9               	incf	main@control_flag,f
  2112                           
  2113                           ;main.c: 93:                        clcd_write(0x0C, 0);
  2114     02CE  01F2               	clrf	clcd_write@mode
  2115     02CF  300C               	movlw	12
  2116     02D0  120A  158A  278F  120A  118A  	fcall	_clcd_write
  2117     02D5                     l2958:
  2118                           
  2119                           ;main.c: 94:                        TMR2ON = 0;
  2120     02D5  1283               	bcf	3,5	;RP0=0, select bank0
  2121     02D6  1303               	bcf	3,6	;RP1=0, select bank0
  2122     02D7  1112               	bcf	18,2	;volatile
  2123                           
  2124                           ;main.c: 95:                        break;
  2125     02D8  2B12               	goto	l2978
  2126     02D9                     l2960:
  2127                           
  2128                           ;main.c: 97:                         clear_screen();
  2129     02D9  120A  158A  2532  120A  118A  	fcall	_clear_screen
  2130                           
  2131                           ;main.c: 98:                         clcd_write(0x0C, 0);
  2132     02DE  01F2               	clrf	clcd_write@mode
  2133     02DF  300C               	movlw	12
  2134     02E0  120A  158A  278F  120A  118A  	fcall	_clcd_write
  2135     02E5                     l2962:
  2136                           
  2137                           ;main.c: 99:                         TMR2ON = 0;
  2138     02E5  1283               	bcf	3,5	;RP0=0, select bank0
  2139     02E6  1303               	bcf	3,6	;RP1=0, select bank0
  2140     02E7  1112               	bcf	18,2	;volatile
  2141     02E8                     l2964:
  2142                           
  2143                           ;main.c: 100:                         control_flag = 0x04;
  2144     02E8  3004               	movlw	4
  2145     02E9  00D9               	movwf	main@control_flag
  2146     02EA                     l2966:
  2147                           
  2148                           ;main.c: 101:                         reset_flag = 0x05;
  2149     02EA  3005               	movlw	5
  2150     02EB  00D8               	movwf	main@reset_flag
  2151                           
  2152                           ;main.c: 103:                         continue;
  2153     02EC  29EF               	goto	l2898
  2154     02ED                     l2970:
  2155     02ED  0858               	movf	main@reset_flag,w
  2156     02EE  00C1               	movwf	login@reset_flag
  2157     02EF  085C               	movf	main@key,w
  2158     02F0  120A  118A  202F  120A  118A  	fcall	_login
  2159                           
  2160                           ; Switch size 1, requested type "simple"
  2161                           ; Number of cases is 2, Range of values is 1 to 3
  2162                           ; switch strategies available:
  2163                           ; Name         Instructions Cycles
  2164                           ; simple_byte            7     4 (average)
  2165                           ; direct_byte           20    11 (fixed)
  2166                           ; jumptable            263     9 (fixed)
  2167                           ;	Chosen strategy is simple_byte
  2168     02F5  3A01               	xorlw	1	; case 1
  2169     02F6  1903               	skipnz
  2170     02F7  2AD9               	goto	l2960
  2171     02F8  3A02               	xorlw	2	; case 3
  2172     02F9  1903               	skipnz
  2173     02FA  2AC5               	goto	l2954
  2174     02FB  2B12               	goto	l2978
  2175     02FC                     l2972:
  2176     02FC  0858               	movf	main@reset_flag,w
  2177     02FD  00C1               	movwf	menu_screen@reset_flag
  2178     02FE  085C               	movf	main@key,w
  2179     02FF  120A  118A  23E1  120A  118A  	fcall	_menu_screen
  2180                           
  2181                           ;main.c: 109:                 break;
  2182     0304  2B12               	goto	l2978
  2183     0305                     l2976:
  2184     0305  1283               	bcf	3,5	;RP0=0, select bank0
  2185     0306  1303               	bcf	3,6	;RP1=0, select bank0
  2186     0307  0859               	movf	main@control_flag,w
  2187                           
  2188                           ; Switch size 1, requested type "simple"
  2189                           ; Number of cases is 3, Range of values is 1 to 4
  2190                           ; switch strategies available:
  2191                           ; Name         Instructions Cycles
  2192                           ; simple_byte           10     6 (average)
  2193                           ; direct_byte           23    11 (fixed)
  2194                           ; jumptable            263     9 (fixed)
  2195                           ;	Chosen strategy is simple_byte
  2196     0308  3A01               	xorlw	1	; case 1
  2197     0309  1903               	skipnz
  2198     030A  2ABC               	goto	l2952
  2199     030B  3A03               	xorlw	3	; case 2
  2200     030C  1903               	skipnz
  2201     030D  2AED               	goto	l2970
  2202     030E  3A06               	xorlw	6	; case 4
  2203     030F  1903               	skipnz
  2204     0310  2AFC               	goto	l2972
  2205     0311  2B12               	goto	l2978
  2206     0312                     l2978:
  2207                           
  2208                           ;main.c: 114:         reset_flag = 0X00;
  2209     0312  1283               	bcf	3,5	;RP0=0, select bank0
  2210     0313  1303               	bcf	3,6	;RP1=0, select bank0
  2211     0314  01D8               	clrf	main@reset_flag
  2212     0315  29EF               	goto	l2898
  2213     0316  120A  118A  280C   	ljmp	start
  2214     0319                     __end_of_main:
  2215                           
  2216                           	psect	text1
  2217     0DA5                     __ptext1:	
  2218 ;; *************** function _strcpy *****************
  2219 ;; Defined at:
  2220 ;;		line 3 in file "C:\Program Files\Microchip\xc8\v2.46\pic\sources\c99\common\strcpy.c"
  2221 ;; Parameters:    Size  Location     Type
  2222 ;;  dest            1    wreg     PTR unsigned char 
  2223 ;;		 -> main@event(3), 
  2224 ;;  src             1    2[COMMON] PTR const unsigned char 
  2225 ;;		 -> STR_21(3), STR_19(3), STR_18(3), STR_17(3), 
  2226 ;;		 -> STR_16(3), STR_15(3), STR_14(3), 
  2227 ;; Auto vars:     Size  Location     Type
  2228 ;;  dest            1    4[COMMON] PTR unsigned char 
  2229 ;;		 -> main@event(3), 
  2230 ;;  d               1    3[COMMON] PTR unsigned char 
  2231 ;;		 -> main@event(3), 
  2232 ;; Return value:  Size  Location     Type
  2233 ;;                  1    wreg      PTR unsigned char 
  2234 ;; Registers used:
  2235 ;;		wreg, fsr0l, fsr0h, status,2, status,0, btemp+1, pclath
  2236 ;; Tracked objects:
  2237 ;;		On entry : 0/0
  2238 ;;		On exit  : 0/0
  2239 ;;		Unchanged: 0/0
  2240 ;; Data sizes:     COMMON   BANK0   BANK1   BANK3   BANK2
  2241 ;;      Params:         1       0       0       0       0
  2242 ;;      Locals:         2       0       0       0       0
  2243 ;;      Temps:          0       0       0       0       0
  2244 ;;      Totals:         3       0       0       0       0
  2245 ;;Total ram usage:        3 bytes
  2246 ;; Hardware stack levels used: 2
  2247 ;; Hardware stack levels required when called: 1
  2248 ;; This function calls:
  2249 ;;		Nothing
  2250 ;; This function is called by:
  2251 ;;		_main
  2252 ;; This function uses a non-reentrant model
  2253 ;;
  2254                           
  2255     0DA5                     _strcpy:	
  2256                           ;psect for function _strcpy
  2257                           
  2258                           
  2259                           ;incstack = 0
  2260                           ; Regs used in _strcpy: [wreg-fsr0h+status,2+status,0+btemp+1+pclath]
  2261                           ;strcpy@dest stored from wreg
  2262     0DA5  00F4               	movwf	strcpy@dest
  2263     0DA6                     l2268:
  2264     0DA6  0874               	movf	strcpy@dest,w
  2265     0DA7  00F3               	movwf	strcpy@d
  2266     0DA8                     l2270:
  2267     0DA8  3001               	movlw	1
  2268     0DA9  07F2               	addwf	strcpy@src,f
  2269     0DAA  30FF               	movlw	-1
  2270     0DAB  0772               	addwf	strcpy@src,w
  2271     0DAC  0084               	movwf	4
  2272     0DAD  120A  118A  2323  120A  158A  	fcall	stringdir
  2273     0DB2  00FF               	movwf	btemp+1
  2274     0DB3  0873               	movf	strcpy@d,w
  2275     0DB4  0084               	movwf	4
  2276     0DB5  3001               	movlw	1
  2277     0DB6  07F3               	addwf	strcpy@d,f
  2278     0DB7  087F               	movf	btemp+1,w
  2279     0DB8  1383               	bcf	3,7	;select IRP bank0
  2280     0DB9  0080               	movwf	0
  2281     0DBA  0800               	movf	0,w
  2282     0DBB  1D03               	btfss	3,2
  2283     0DBC  2DBE               	goto	u1711
  2284     0DBD  2DBF               	goto	u1710
  2285     0DBE                     u1711:
  2286     0DBE  2DA8               	goto	l2270
  2287     0DBF                     u1710:
  2288     0DBF                     l963:
  2289     0DBF  0008               	return
  2290     0DC0                     __end_of_strcpy:
  2291                           
  2292                           	psect	text2
  2293     0E24                     __ptext2:	
  2294 ;; *************** function _read_digital_keypad *****************
  2295 ;; Defined at:
  2296 ;;		line 18 in file "digital_keypad.c"
  2297 ;; Parameters:    Size  Location     Type
  2298 ;;  mode            1    wreg     unsigned char 
  2299 ;; Auto vars:     Size  Location     Type
  2300 ;;  mode            1    3[COMMON] unsigned char 
  2301 ;; Return value:  Size  Location     Type
  2302 ;;                  1    wreg      unsigned char 
  2303 ;; Registers used:
  2304 ;;		wreg, status,2, status,0
  2305 ;; Tracked objects:
  2306 ;;		On entry : 0/0
  2307 ;;		On exit  : 0/0
  2308 ;;		Unchanged: 0/0
  2309 ;; Data sizes:     COMMON   BANK0   BANK1   BANK3   BANK2
  2310 ;;      Params:         0       0       0       0       0
  2311 ;;      Locals:         1       0       0       0       0
  2312 ;;      Temps:          1       0       0       0       0
  2313 ;;      Totals:         2       0       0       0       0
  2314 ;;Total ram usage:        2 bytes
  2315 ;; Hardware stack levels used: 1
  2316 ;; Hardware stack levels required when called: 1
  2317 ;; This function calls:
  2318 ;;		Nothing
  2319 ;; This function is called by:
  2320 ;;		_main
  2321 ;; This function uses a non-reentrant model
  2322 ;;
  2323                           
  2324     0E24                     _read_digital_keypad:	
  2325                           ;psect for function _read_digital_keypad
  2326                           
  2327                           
  2328                           ;incstack = 0
  2329                           ; Regs used in _read_digital_keypad: [wreg+status,2+status,0]
  2330                           ;read_digital_keypad@mode stored from wreg
  2331     0E24  00F3               	movwf	read_digital_keypad@mode
  2332     0E25                     l2224:
  2333                           
  2334                           ;digital_keypad.c: 18: unsigned char read_digital_keypad(unsigned char mode);digital_key
      +                          pad.c: 19: {;digital_keypad.c: 20:     static unsigned char once = 1;;digital_keypad.c: 
      +                          22:     if (mode == 0)
  2335     0E25  0873               	movf	read_digital_keypad@mode,w
  2336     0E26  1D03               	btfss	3,2
  2337     0E27  2E29               	goto	u1671
  2338     0E28  2E2A               	goto	u1670
  2339     0E29                     u1671:
  2340     0E29  2E2F               	goto	l2232
  2341     0E2A                     u1670:
  2342     0E2A                     l2226:
  2343                           
  2344                           ;digital_keypad.c: 23:     {;digital_keypad.c: 24:         return PORTB & 0x3F;
  2345     0E2A  1283               	bcf	3,5	;RP0=0, select bank0
  2346     0E2B  1303               	bcf	3,6	;RP1=0, select bank0
  2347     0E2C  0806               	movf	6,w	;volatile
  2348     0E2D  393F               	andlw	63
  2349     0E2E  2E4D               	goto	l155
  2350     0E2F                     l2232:
  2351                           
  2352                           ;digital_keypad.c: 27:     {;digital_keypad.c: 28:         if (((PORTB & 0x3F) != 0x3F) 
      +                          && once)
  2353     0E2F  303F               	movlw	63
  2354     0E30  1283               	bcf	3,5	;RP0=0, select bank0
  2355     0E31  1303               	bcf	3,6	;RP1=0, select bank0
  2356     0E32  0506               	andwf	6,w	;volatile
  2357     0E33  00F2               	movwf	??_read_digital_keypad
  2358     0E34  303F               	movlw	63
  2359     0E35  0672               	xorwf	??_read_digital_keypad,w
  2360     0E36  1903               	btfsc	3,2
  2361     0E37  2E39               	goto	u1681
  2362     0E38  2E3A               	goto	u1680
  2363     0E39                     u1681:
  2364     0E39  2E41               	goto	l2244
  2365     0E3A                     u1680:
  2366     0E3A                     l2234:
  2367     0E3A  087B               	movf	read_digital_keypad@once,w
  2368     0E3B  1903               	btfsc	3,2
  2369     0E3C  2E3E               	goto	u1691
  2370     0E3D  2E3F               	goto	u1690
  2371     0E3E                     u1691:
  2372     0E3E  2E41               	goto	l2244
  2373     0E3F                     u1690:
  2374     0E3F                     l2236:
  2375                           
  2376                           ;digital_keypad.c: 29:         {;digital_keypad.c: 30:             once = 0;
  2377     0E3F  01FB               	clrf	read_digital_keypad@once
  2378     0E40  2E2A               	goto	l2226
  2379     0E41                     l2244:
  2380     0E41  303F               	movlw	63
  2381     0E42  0506               	andwf	6,w	;volatile
  2382     0E43  00F2               	movwf	??_read_digital_keypad
  2383     0E44  303F               	movlw	63
  2384     0E45  0672               	xorwf	??_read_digital_keypad,w
  2385     0E46  1D03               	btfss	3,2
  2386     0E47  2E49               	goto	u1701
  2387     0E48  2E4A               	goto	u1700
  2388     0E49                     u1701:
  2389     0E49  2E4C               	goto	l2248
  2390     0E4A                     u1700:
  2391     0E4A                     l2246:
  2392                           
  2393                           ;digital_keypad.c: 35:         {;digital_keypad.c: 36:             once = 1;
  2394     0E4A  01FB               	clrf	read_digital_keypad@once
  2395     0E4B  0AFB               	incf	read_digital_keypad@once,f
  2396     0E4C                     l2248:
  2397                           
  2398                           ;digital_keypad.c: 40:     return 0x3F;
  2399     0E4C  303F               	movlw	63
  2400     0E4D                     l155:
  2401     0E4D  0008               	return
  2402     0E4E                     __end_of_read_digital_keypad:
  2403                           
  2404                           	psect	text3
  2405     0D43                     __ptext3:	
  2406 ;; *************** function _read_adc *****************
  2407 ;; Defined at:
  2408 ;;		line 20 in file "adc.c"
  2409 ;; Parameters:    Size  Location     Type
  2410 ;;		None
  2411 ;; Auto vars:     Size  Location     Type
  2412 ;;  adc_reg_val     2    4[COMMON] unsigned short 
  2413 ;; Return value:  Size  Location     Type
  2414 ;;                  2    2[COMMON] unsigned short 
  2415 ;; Registers used:
  2416 ;;		wreg
  2417 ;; Tracked objects:
  2418 ;;		On entry : 0/0
  2419 ;;		On exit  : 0/0
  2420 ;;		Unchanged: 0/0
  2421 ;; Data sizes:     COMMON   BANK0   BANK1   BANK3   BANK2
  2422 ;;      Params:         2       0       0       0       0
  2423 ;;      Locals:         2       0       0       0       0
  2424 ;;      Temps:          0       0       0       0       0
  2425 ;;      Totals:         4       0       0       0       0
  2426 ;;Total ram usage:        4 bytes
  2427 ;; Hardware stack levels used: 1
  2428 ;; Hardware stack levels required when called: 1
  2429 ;; This function calls:
  2430 ;;		Nothing
  2431 ;; This function is called by:
  2432 ;;		_main
  2433 ;; This function uses a non-reentrant model
  2434 ;;
  2435                           
  2436     0D43                     _read_adc:	
  2437                           ;psect for function _read_adc
  2438                           
  2439     0D43                     l2056:	
  2440                           ;incstack = 0
  2441                           ; Regs used in _read_adc: [wreg]
  2442                           
  2443                           
  2444                           ;adc.c: 22:     unsigned short adc_reg_val;;adc.c: 25:     GO = 1;
  2445     0D43  1283               	bcf	3,5	;RP0=0, select bank0
  2446     0D44  1303               	bcf	3,6	;RP1=0, select bank0
  2447     0D45  151F               	bsf	31,2	;volatile
  2448     0D46                     l18:	
  2449                           ;adc.c: 28:     while (nDONE);
  2450                           
  2451     0D46  191F               	btfsc	31,2	;volatile
  2452     0D47  2D49               	goto	u1481
  2453     0D48  2D4A               	goto	u1480
  2454     0D49                     u1481:
  2455     0D49  2D46               	goto	l18
  2456     0D4A                     u1480:
  2457     0D4A                     l2058:
  2458                           
  2459                           ;adc.c: 31:     adc_reg_val = (ADRESH << 8) | ADRESL;
  2460     0D4A  081E               	movf	30,w	;volatile
  2461     0D4B  00F5               	movwf	read_adc@adc_reg_val+1
  2462     0D4C  1683               	bsf	3,5	;RP0=1, select bank1
  2463     0D4D  1303               	bcf	3,6	;RP1=0, select bank1
  2464     0D4E  081E               	movf	30,w	;volatile
  2465     0D4F  00F4               	movwf	read_adc@adc_reg_val
  2466                           
  2467                           ;adc.c: 33:     return adc_reg_val;
  2468     0D50  0875               	movf	read_adc@adc_reg_val+1,w
  2469     0D51  00F3               	movwf	?_read_adc+1
  2470     0D52  0874               	movf	read_adc@adc_reg_val,w
  2471     0D53  00F2               	movwf	?_read_adc
  2472     0D54                     l21:
  2473     0D54  0008               	return
  2474     0D55                     __end_of_read_adc:
  2475                           
  2476                           	psect	text4
  2477     03E1                     __ptext4:	
  2478 ;; *************** function _menu_screen *****************
  2479 ;; Defined at:
  2480 ;;		line 78 in file "car_black_box.c"
  2481 ;; Parameters:    Size  Location     Type
  2482 ;;  key             1    wreg     unsigned char 
  2483 ;;  reset_flag      1    1[BANK0 ] unsigned char 
  2484 ;; Auto vars:     Size  Location     Type
  2485 ;;  key             1    2[BANK0 ] unsigned char 
  2486 ;; Return value:  Size  Location     Type
  2487 ;;                  1    wreg      unsigned char 
  2488 ;; Registers used:
  2489 ;;		wreg, fsr0l, fsr0h, status,2, status,0, btemp+1, pclath, cstack
  2490 ;; Tracked objects:
  2491 ;;		On entry : 0/0
  2492 ;;		On exit  : 0/0
  2493 ;;		Unchanged: 0/0
  2494 ;; Data sizes:     COMMON   BANK0   BANK1   BANK3   BANK2
  2495 ;;      Params:         0       1       0       0       0
  2496 ;;      Locals:         0       1       0       0       0
  2497 ;;      Temps:          0       0       0       0       0
  2498 ;;      Totals:         0       2       0       0       0
  2499 ;;Total ram usage:        2 bytes
  2500 ;; Hardware stack levels used: 1
  2501 ;; Hardware stack levels required when called: 3
  2502 ;; This function calls:
  2503 ;;		_clcd_print
  2504 ;;		_clcd_putch
  2505 ;;		_clear_screen
  2506 ;; This function is called by:
  2507 ;;		_main
  2508 ;; This function uses a non-reentrant model
  2509 ;;
  2510                           
  2511     03E1                     _menu_screen:	
  2512                           ;psect for function _menu_screen
  2513                           
  2514                           
  2515                           ;incstack = 0
  2516                           ; Regs used in _menu_screen: [wreg-fsr0h+status,2+status,0+btemp+1+pclath+cstack]
  2517                           ;menu_screen@key stored from wreg
  2518     03E1  1283               	bcf	3,5	;RP0=0, select bank0
  2519     03E2  1303               	bcf	3,6	;RP1=0, select bank0
  2520     03E3  00C2               	movwf	menu_screen@key
  2521     03E4                     l2718:
  2522                           
  2523                           ;car_black_box.c: 79:     static unsigned char menu_pos;;car_black_box.c: 80:     if (re
      +                          set_flag == 0x05) {
  2524     03E4  3005               	movlw	5
  2525     03E5  0641               	xorwf	menu_screen@reset_flag,w
  2526     03E6  1D03               	btfss	3,2
  2527     03E7  2BE9               	goto	u2301
  2528     03E8  2BEA               	goto	u2300
  2529     03E9                     u2301:
  2530     03E9  2BEB               	goto	l2722
  2531     03EA                     u2300:
  2532     03EA                     l2720:
  2533                           
  2534                           ;car_black_box.c: 81:         menu_pos = 0;
  2535     03EA  01A7               	clrf	menu_screen@menu_pos
  2536     03EB                     l2722:
  2537                           
  2538                           ;car_black_box.c: 83:     if (key == 0x37 && menu_pos < 4) {
  2539     03EB  3037               	movlw	55
  2540     03EC  0642               	xorwf	menu_screen@key,w
  2541     03ED  1D03               	btfss	3,2
  2542     03EE  2BF0               	goto	u2311
  2543     03EF  2BF1               	goto	u2310
  2544     03F0                     u2311:
  2545     03F0  2C01               	goto	l2730
  2546     03F1                     u2310:
  2547     03F1                     l2724:
  2548     03F1  3004               	movlw	4
  2549     03F2  0227               	subwf	menu_screen@menu_pos,w
  2550     03F3  1803               	skipnc
  2551     03F4  2BF6               	goto	u2321
  2552     03F5  2BF7               	goto	u2320
  2553     03F6                     u2321:
  2554     03F6  2C01               	goto	l2730
  2555     03F7                     u2320:
  2556     03F7                     l2726:
  2557                           
  2558                           ;car_black_box.c: 84:         menu_pos++;
  2559     03F7  3001               	movlw	1
  2560     03F8  00FF               	movwf	btemp+1
  2561     03F9  087F               	movf	btemp+1,w
  2562     03FA  07A7               	addwf	menu_screen@menu_pos,f
  2563     03FB                     l2728:
  2564                           
  2565                           ;car_black_box.c: 86:         clear_screen();
  2566     03FB  120A  158A  2532  120A  118A  	fcall	_clear_screen
  2567                           
  2568                           ;car_black_box.c: 87:     } else if (key == 0x2F && menu_pos > 0) {
  2569     0400  2C0F               	goto	l2738
  2570     0401                     l2730:
  2571     0401  302F               	movlw	47
  2572     0402  0642               	xorwf	menu_screen@key,w
  2573     0403  1D03               	btfss	3,2
  2574     0404  2C06               	goto	u2331
  2575     0405  2C07               	goto	u2330
  2576     0406                     u2331:
  2577     0406  2C0F               	goto	l2738
  2578     0407                     u2330:
  2579     0407                     l2732:
  2580     0407  0827               	movf	menu_screen@menu_pos,w
  2581     0408  1903               	btfsc	3,2
  2582     0409  2C0B               	goto	u2341
  2583     040A  2C0C               	goto	u2340
  2584     040B                     u2341:
  2585     040B  2C0F               	goto	l2738
  2586     040C                     u2340:
  2587     040C                     l2734:
  2588                           
  2589                           ;car_black_box.c: 88:         menu_pos--;
  2590     040C  3001               	movlw	1
  2591     040D  02A7               	subwf	menu_screen@menu_pos,f
  2592     040E  2BFB               	goto	l2728
  2593     040F                     l2738:
  2594                           
  2595                           ;car_black_box.c: 92:     if (menu_pos == 4) {
  2596     040F  3004               	movlw	4
  2597     0410  1283               	bcf	3,5	;RP0=0, select bank0
  2598     0411  1303               	bcf	3,6	;RP1=0, select bank0
  2599     0412  0627               	xorwf	menu_screen@menu_pos,w
  2600     0413  1D03               	btfss	3,2
  2601     0414  2C16               	goto	u2351
  2602     0415  2C17               	goto	u2350
  2603     0416                     u2351:
  2604     0416  2C44               	goto	l2744
  2605     0417                     u2350:
  2606     0417                     l2740:
  2607                           
  2608                           ;car_black_box.c: 93:         clcd_print(menu[menu_pos - 1], (0x80 + 2));
  2609     0417  0827               	movf	menu_screen@menu_pos,w
  2610     0418  3E62               	addlw	(low ((_menu| 0+255)))& (0+255)
  2611     0419  0084               	movwf	4
  2612     041A  1383               	bcf	3,7	;select IRP bank0
  2613     041B  0800               	movf	0,w
  2614     041C  00F6               	movwf	clcd_print@str
  2615     041D  3000               	movlw	0
  2616     041E  1D03               	btfss	3,2
  2617     041F  3080               	movlw	128
  2618     0420  00F7               	movwf	clcd_print@str+1
  2619     0421  3082               	movlw	130
  2620     0422  00F8               	movwf	clcd_print@addr
  2621     0423  120A  158A  26FC  120A  118A  	fcall	_clcd_print
  2622                           
  2623                           ;car_black_box.c: 94:         clcd_print(menu[menu_pos ], (0xC0 + 2));
  2624     0428  1283               	bcf	3,5	;RP0=0, select bank0
  2625     0429  1303               	bcf	3,6	;RP1=0, select bank0
  2626     042A  0827               	movf	menu_screen@menu_pos,w
  2627     042B  3E63               	addlw	(low (_menu| 0))& (0+255)
  2628     042C  0084               	movwf	4
  2629     042D  1383               	bcf	3,7	;select IRP bank0
  2630     042E  0800               	movf	0,w
  2631     042F  00F6               	movwf	clcd_print@str
  2632     0430  3000               	movlw	0
  2633     0431  1D03               	btfss	3,2
  2634     0432  3080               	movlw	128
  2635     0433  00F7               	movwf	clcd_print@str+1
  2636     0434  30C2               	movlw	194
  2637     0435  00F8               	movwf	clcd_print@addr
  2638     0436  120A  158A  26FC  120A  118A  	fcall	_clcd_print
  2639     043B                     l2742:
  2640                           
  2641                           ;car_black_box.c: 95:         clcd_putch('*', (0xC0 + 0));
  2642     043B  30C0               	movlw	192
  2643     043C  00FA               	movwf	clcd_putch@addr
  2644     043D  302A               	movlw	42
  2645     043E  120A  158A  257B  120A  118A  	fcall	_clcd_putch
  2646                           
  2647                           ;car_black_box.c: 96:     } else {
  2648     0443  2C70               	goto	l2748
  2649     0444                     l2744:
  2650                           
  2651                           ;car_black_box.c: 97:         clcd_print(menu[menu_pos], (0x80 + 2));
  2652     0444  0827               	movf	menu_screen@menu_pos,w
  2653     0445  3E63               	addlw	(low (_menu| 0))& (0+255)
  2654     0446  0084               	movwf	4
  2655     0447  1383               	bcf	3,7	;select IRP bank0
  2656     0448  0800               	movf	0,w
  2657     0449  00F6               	movwf	clcd_print@str
  2658     044A  3000               	movlw	0
  2659     044B  1D03               	btfss	3,2
  2660     044C  3080               	movlw	128
  2661     044D  00F7               	movwf	clcd_print@str+1
  2662     044E  3082               	movlw	130
  2663     044F  00F8               	movwf	clcd_print@addr
  2664     0450  120A  158A  26FC  120A  118A  	fcall	_clcd_print
  2665                           
  2666                           ;car_black_box.c: 98:         clcd_print(menu[menu_pos + 1], (0xC0 + 2));
  2667     0455  1283               	bcf	3,5	;RP0=0, select bank0
  2668     0456  1303               	bcf	3,6	;RP1=0, select bank0
  2669     0457  0827               	movf	menu_screen@menu_pos,w
  2670     0458  3E64               	addlw	(low ((_menu| 0+1)))& (0+255)
  2671     0459  0084               	movwf	4
  2672     045A  1383               	bcf	3,7	;select IRP bank0
  2673     045B  0800               	movf	0,w
  2674     045C  00F6               	movwf	clcd_print@str
  2675     045D  3000               	movlw	0
  2676     045E  1D03               	btfss	3,2
  2677     045F  3080               	movlw	128
  2678     0460  00F7               	movwf	clcd_print@str+1
  2679     0461  30C2               	movlw	194
  2680     0462  00F8               	movwf	clcd_print@addr
  2681     0463  120A  158A  26FC  120A  118A  	fcall	_clcd_print
  2682     0468                     l2746:
  2683                           
  2684                           ;car_black_box.c: 99:         clcd_putch('*', (0x80 + 0));
  2685     0468  3080               	movlw	128
  2686     0469  00FA               	movwf	clcd_putch@addr
  2687     046A  302A               	movlw	42
  2688     046B  120A  158A  257B  120A  118A  	fcall	_clcd_putch
  2689     0470                     l2748:
  2690                           
  2691                           ;car_black_box.c: 101:     return menu_pos;
  2692     0470  1283               	bcf	3,5	;RP0=0, select bank0
  2693     0471  1303               	bcf	3,6	;RP1=0, select bank0
  2694     0472  0827               	movf	menu_screen@menu_pos,w
  2695     0473                     l82:
  2696     0473  0008               	return
  2697     0474                     __end_of_menu_screen:
  2698                           
  2699                           	psect	text5
  2700     002F                     __ptext5:	
  2701 ;; *************** function _login *****************
  2702 ;; Defined at:
  2703 ;;		line 111 in file "car_black_box.c"
  2704 ;; Parameters:    Size  Location     Type
  2705 ;;  key             1    wreg     unsigned char 
  2706 ;;  reset_flag      1    1[BANK0 ] unsigned char 
  2707 ;; Auto vars:     Size  Location     Type
  2708 ;;  key             1    9[BANK0 ] unsigned char 
  2709 ;;  j               2   10[BANK0 ] int 
  2710 ;;  s_password      4    5[BANK0 ] unsigned char [4]
  2711 ;; Return value:  Size  Location     Type
  2712 ;;                  1    wreg      unsigned char 
  2713 ;; Registers used:
  2714 ;;		wreg, fsr0l, fsr0h, status,2, status,0, btemp+1, pclath, cstack
  2715 ;; Tracked objects:
  2716 ;;		On entry : 0/0
  2717 ;;		On exit  : 0/0
  2718 ;;		Unchanged: 0/0
  2719 ;; Data sizes:     COMMON   BANK0   BANK1   BANK3   BANK2
  2720 ;;      Params:         0       1       0       0       0
  2721 ;;      Locals:         0       7       0       0       0
  2722 ;;      Temps:          0       3       0       0       0
  2723 ;;      Totals:         0      11       0       0       0
  2724 ;;Total ram usage:       11 bytes
  2725 ;; Hardware stack levels used: 1
  2726 ;; Hardware stack levels required when called: 5
  2727 ;; This function calls:
  2728 ;;		___awdiv
  2729 ;;		___awmod
  2730 ;;		_clcd_print
  2731 ;;		_clcd_putch
  2732 ;;		_clcd_write
  2733 ;;		_clear_screen
  2734 ;;		_eeprom_at24c04_read
  2735 ;;		_strncmp
  2736 ;; This function is called by:
  2737 ;;		_main
  2738 ;; This function uses a non-reentrant model
  2739 ;;
  2740                           
  2741     002F                     _login:	
  2742                           ;psect for function _login
  2743                           
  2744                           
  2745                           ;incstack = 0
  2746                           ; Regs used in _login: [wreg-fsr0h+status,2+status,0+btemp+1+pclath+cstack]
  2747                           ;login@key stored from wreg
  2748     002F  1283               	bcf	3,5	;RP0=0, select bank0
  2749     0030  1303               	bcf	3,6	;RP1=0, select bank0
  2750     0031  00C9               	movwf	login@key
  2751     0032                     l2752:
  2752                           
  2753                           ;car_black_box.c: 113:     static char u_password[4];;car_black_box.c: 114:     static u
      +                          nsigned char i;;car_black_box.c: 115:     static unsigned char attempt_left;;car_black_b
      +                          ox.c: 117:     if (reset_flag == 0X01) {
  2754     0032  0341               	decf	login@reset_flag,w
  2755     0033  1D03               	btfss	3,2
  2756     0034  2836               	goto	u2361
  2757     0035  2837               	goto	u2360
  2758     0036                     u2361:
  2759     0036  2842               	goto	l2762
  2760     0037                     u2360:
  2761     0037                     l2754:
  2762                           
  2763                           ;car_black_box.c: 119:         i = 0;
  2764     0037  01A6               	clrf	login@i
  2765                           
  2766                           ;car_black_box.c: 120:         u_password[0] = '\0';
  2767     0038  01BC               	clrf	login@u_password
  2768                           
  2769                           ;car_black_box.c: 121:         u_password[1] = '\0';
  2770     0039  01BD               	clrf	login@u_password+1
  2771                           
  2772                           ;car_black_box.c: 122:         u_password[2] = '\0';
  2773     003A  01BE               	clrf	login@u_password+2
  2774                           
  2775                           ;car_black_box.c: 123:         u_password[3] = '\0';
  2776     003B  01BF               	clrf	login@u_password+3
  2777     003C                     l2756:
  2778                           
  2779                           ;car_black_box.c: 125:         key = 0x3F;
  2780     003C  303F               	movlw	63
  2781     003D  00C9               	movwf	login@key
  2782     003E                     l2758:
  2783                           
  2784                           ;car_black_box.c: 126:         attempt_left = 3;
  2785     003E  3003               	movlw	3
  2786     003F  00A5               	movwf	login@attempt_left
  2787     0040                     l2760:
  2788                           
  2789                           ;car_black_box.c: 127:         ret_time = 5;
  2790     0040  3005               	movlw	5
  2791     0041  00A8               	movwf	_ret_time
  2792     0042                     l2762:
  2793                           
  2794                           ;car_black_box.c: 129:     if (ret_time == 0) {
  2795     0042  0828               	movf	_ret_time,w
  2796     0043  1D03               	btfss	3,2
  2797     0044  2846               	goto	u2371
  2798     0045  2847               	goto	u2370
  2799     0046                     u2371:
  2800     0046  2849               	goto	l2768
  2801     0047                     u2370:
  2802     0047                     l2764:
  2803                           
  2804                           ;car_black_box.c: 130:         return 0x03;
  2805     0047  3003               	movlw	3
  2806     0048  29B9               	goto	l96
  2807     0049                     l2768:
  2808                           
  2809                           ;car_black_box.c: 132:     if (key == 0x37 && i < 4 ) {
  2810     0049  3037               	movlw	55
  2811     004A  0649               	xorwf	login@key,w
  2812     004B  1D03               	btfss	3,2
  2813     004C  284E               	goto	u2381
  2814     004D  284F               	goto	u2380
  2815     004E                     u2381:
  2816     004E  286D               	goto	l2780
  2817     004F                     u2380:
  2818     004F                     l2770:
  2819     004F  3004               	movlw	4
  2820     0050  0226               	subwf	login@i,w
  2821     0051  1803               	skipnc
  2822     0052  2854               	goto	u2391
  2823     0053  2855               	goto	u2390
  2824     0054                     u2391:
  2825     0054  286D               	goto	l2780
  2826     0055                     u2390:
  2827     0055                     l2772:
  2828                           
  2829                           ;car_black_box.c: 133:         u_password[i] = '1';
  2830     0055  0826               	movf	login@i,w
  2831     0056  3E3C               	addlw	(low (login@u_password| 0))& (0+255)
  2832     0057  0084               	movwf	4
  2833     0058  3031               	movlw	49
  2834     0059  1383               	bcf	3,7	;select IRP bank0
  2835     005A  0080               	movwf	0
  2836     005B                     l2774:
  2837                           
  2838                           ;car_black_box.c: 134:         clcd_putch('*', (0xC0 + 4 + i));
  2839     005B  0826               	movf	login@i,w
  2840     005C  3EC4               	addlw	196
  2841     005D  00FA               	movwf	clcd_putch@addr
  2842     005E  302A               	movlw	42
  2843     005F  120A  158A  257B  120A  118A  	fcall	_clcd_putch
  2844     0064                     l2776:
  2845                           
  2846                           ;car_black_box.c: 135:         i++;
  2847     0064  3001               	movlw	1
  2848     0065  00FF               	movwf	btemp+1
  2849     0066  087F               	movf	btemp+1,w
  2850     0067  1283               	bcf	3,5	;RP0=0, select bank0
  2851     0068  1303               	bcf	3,6	;RP1=0, select bank0
  2852     0069  07A6               	addwf	login@i,f
  2853     006A                     l2778:
  2854                           
  2855                           ;car_black_box.c: 136:         ret_time = 5;
  2856     006A  3005               	movlw	5
  2857     006B  00A8               	movwf	_ret_time
  2858                           
  2859                           ;car_black_box.c: 137:     } else if (key == 0x2F && i < 4 ) {
  2860     006C  2889               	goto	l2792
  2861     006D                     l2780:
  2862     006D  302F               	movlw	47
  2863     006E  0649               	xorwf	login@key,w
  2864     006F  1D03               	btfss	3,2
  2865     0070  2872               	goto	u2401
  2866     0071  2873               	goto	u2400
  2867     0072                     u2401:
  2868     0072  2889               	goto	l2792
  2869     0073                     u2400:
  2870     0073                     l2782:
  2871     0073  3004               	movlw	4
  2872     0074  0226               	subwf	login@i,w
  2873     0075  1803               	skipnc
  2874     0076  2878               	goto	u2411
  2875     0077  2879               	goto	u2410
  2876     0078                     u2411:
  2877     0078  2889               	goto	l2792
  2878     0079                     u2410:
  2879     0079                     l2784:
  2880                           
  2881                           ;car_black_box.c: 138:         u_password[i] = '0';
  2882     0079  0826               	movf	login@i,w
  2883     007A  3E3C               	addlw	(low (login@u_password| 0))& (0+255)
  2884     007B  0084               	movwf	4
  2885     007C  3030               	movlw	48
  2886     007D  1383               	bcf	3,7	;select IRP bank0
  2887     007E  0080               	movwf	0
  2888     007F                     l2786:
  2889                           
  2890                           ;car_black_box.c: 139:         clcd_putch('*', (0xC0 + 4 + i));
  2891     007F  0826               	movf	login@i,w
  2892     0080  3EC4               	addlw	196
  2893     0081  00FA               	movwf	clcd_putch@addr
  2894     0082  302A               	movlw	42
  2895     0083  120A  158A  257B  120A  118A  	fcall	_clcd_putch
  2896     0088  2864               	goto	l2776
  2897     0089                     l2792:
  2898                           
  2899                           ;car_black_box.c: 144:     if (i == 4) {
  2900     0089  3004               	movlw	4
  2901     008A  0626               	xorwf	login@i,w
  2902     008B  1D03               	btfss	3,2
  2903     008C  288E               	goto	u2421
  2904     008D  288F               	goto	u2420
  2905     008E                     u2421:
  2906     008E  29B9               	goto	l96
  2907     008F                     u2420:
  2908     008F                     l2794:
  2909                           
  2910                           ;car_black_box.c: 145:         clcd_write(0x0C, 0);
  2911     008F  01F2               	clrf	clcd_write@mode
  2912     0090  300C               	movlw	12
  2913     0091  120A  158A  278F  120A  118A  	fcall	_clcd_write
  2914     0096                     l2796:
  2915                           
  2916                           ;car_black_box.c: 146:         unsigned char s_password[4];;car_black_box.c: 147:       
      +                            for (int j = 0; j < 4; j++) {
  2917     0096  1283               	bcf	3,5	;RP0=0, select bank0
  2918     0097  1303               	bcf	3,6	;RP1=0, select bank0
  2919     0098  01CA               	clrf	login@j
  2920     0099  01CB               	clrf	login@j+1
  2921     009A                     l2802:
  2922                           
  2923                           ;car_black_box.c: 148:             s_password[j] = eeprom_at24c04_read(j);
  2924     009A  1283               	bcf	3,5	;RP0=0, select bank0
  2925     009B  1303               	bcf	3,6	;RP1=0, select bank0
  2926     009C  084A               	movf	login@j,w
  2927     009D  3E45               	addlw	(low (login@s_password| 0))& (0+255)
  2928     009E  0084               	movwf	4
  2929     009F  084A               	movf	login@j,w
  2930     00A0  120A  158A  26A4  120A  118A  	fcall	_eeprom_at24c04_read
  2931     00A5  1383               	bcf	3,7	;select IRP bank0
  2932     00A6  0080               	movwf	0
  2933     00A7                     l2804:
  2934                           
  2935                           ;car_black_box.c: 149:         }
  2936     00A7  3001               	movlw	1
  2937     00A8  1283               	bcf	3,5	;RP0=0, select bank0
  2938     00A9  1303               	bcf	3,6	;RP1=0, select bank0
  2939     00AA  07CA               	addwf	login@j,f
  2940     00AB  1803               	skipnc
  2941     00AC  0ACB               	incf	login@j+1,f
  2942     00AD  3000               	movlw	0
  2943     00AE  07CB               	addwf	login@j+1,f
  2944     00AF                     l2806:
  2945     00AF  084B               	movf	login@j+1,w
  2946     00B0  3A80               	xorlw	128
  2947     00B1  00FF               	movwf	btemp+1
  2948     00B2  3080               	movlw	128
  2949     00B3  027F               	subwf	btemp+1,w
  2950     00B4  1D03               	skipz
  2951     00B5  28B8               	goto	u2435
  2952     00B6  3004               	movlw	4
  2953     00B7  024A               	subwf	login@j,w
  2954     00B8                     u2435:
  2955     00B8  1C03               	skipc
  2956     00B9  28BB               	goto	u2431
  2957     00BA  28BC               	goto	u2430
  2958     00BB                     u2431:
  2959     00BB  289A               	goto	l2802
  2960     00BC                     u2430:
  2961     00BC                     l2808:
  2962                           
  2963                           ;car_black_box.c: 150:         if (strncmp(u_password, s_password, 4) == 0) {
  2964     00BC  3045               	movlw	(low (login@s_password| 0))& (0+255)
  2965     00BD  00F2               	movwf	strncmp@r
  2966     00BE  3004               	movlw	4
  2967     00BF  00F3               	movwf	strncmp@n
  2968     00C0  3000               	movlw	0
  2969     00C1  00F4               	movwf	strncmp@n+1
  2970     00C2  303C               	movlw	(low (login@u_password| 0))& (0+255)
  2971     00C3  120A  118A  26A8  120A  118A  	fcall	_strncmp
  2972     00C8  0872               	movf	?_strncmp,w
  2973     00C9  0473               	iorwf	?_strncmp+1,w
  2974     00CA  1D03               	btfss	3,2
  2975     00CB  28CD               	goto	u2441
  2976     00CC  28CE               	goto	u2440
  2977     00CD                     u2441:
  2978     00CD  28EE               	goto	l2822
  2979     00CE                     u2440:
  2980     00CE                     l2810:
  2981                           
  2982                           ;car_black_box.c: 151:             clear_screen();
  2983     00CE  120A  158A  2532  120A  118A  	fcall	_clear_screen
  2984     00D3                     l2812:
  2985                           
  2986                           ;car_black_box.c: 152:             clcd_print("LOGIN SUCCESS", (0x80 + 2));
  2987     00D3  303E               	movlw	(low ((STR_7-__stringbase)| (0+32768)))& (0+255)
  2988     00D4  00F6               	movwf	clcd_print@str
  2989     00D5  3080               	movlw	128
  2990     00D6  00F7               	movwf	clcd_print@str+1
  2991     00D7  3082               	movlw	130
  2992     00D8  00F8               	movwf	clcd_print@addr
  2993     00D9  120A  158A  26FC  120A  118A  	fcall	_clcd_print
  2994     00DE                     l2814:
  2995                           
  2996                           ;car_black_box.c: 153:             _delay((unsigned long)((2000)*(20000000/4000.0)));
  2997     00DE  3033               	movlw	51
  2998     00DF  1283               	bcf	3,5	;RP0=0, select bank0
  2999     00E0  1303               	bcf	3,6	;RP1=0, select bank0
  3000     00E1  00C4               	movwf	??_login+2
  3001     00E2  30BB               	movlw	187
  3002     00E3  00C3               	movwf	??_login+1
  3003     00E4  30DF               	movlw	223
  3004     00E5  00C2               	movwf	??_login
  3005     00E6                     u2587:
  3006     00E6  0BC2               	decfsz	??_login,f
  3007     00E7  28E6               	goto	u2587
  3008     00E8  0BC3               	decfsz	??_login+1,f
  3009     00E9  28E6               	goto	u2587
  3010     00EA  0BC4               	decfsz	??_login+2,f
  3011     00EB  28E6               	goto	u2587
  3012     00EC                     l2816:
  3013                           
  3014                           ;car_black_box.c: 154:             return 0x01;
  3015     00EC  3001               	movlw	1
  3016     00ED  29B9               	goto	l96
  3017     00EE                     l2822:
  3018                           
  3019                           ;car_black_box.c: 157:             attempt_left--;
  3020     00EE  3001               	movlw	1
  3021     00EF  1283               	bcf	3,5	;RP0=0, select bank0
  3022     00F0  1303               	bcf	3,6	;RP1=0, select bank0
  3023     00F1  02A5               	subwf	login@attempt_left,f
  3024     00F2                     l2824:
  3025                           
  3026                           ;car_black_box.c: 158:             clear_screen();
  3027     00F2  120A  158A  2532  120A  118A  	fcall	_clear_screen
  3028     00F7                     l2826:
  3029                           
  3030                           ;car_black_box.c: 160:             if (attempt_left != 0) {
  3031     00F7  1283               	bcf	3,5	;RP0=0, select bank0
  3032     00F8  1303               	bcf	3,6	;RP1=0, select bank0
  3033     00F9  0825               	movf	login@attempt_left,w
  3034     00FA  1903               	btfsc	3,2
  3035     00FB  28FD               	goto	u2451
  3036     00FC  28FE               	goto	u2450
  3037     00FD                     u2451:
  3038     00FD  292E               	goto	l2836
  3039     00FE                     u2450:
  3040     00FE                     l2828:
  3041                           
  3042                           ;car_black_box.c: 161:                 clcd_print("Wrong passwrod", (0x80 + 0));
  3043     00FE  3020               	movlw	(low ((STR_8-__stringbase)| (0+32768)))& (0+255)
  3044     00FF  00F6               	movwf	clcd_print@str
  3045     0100  3080               	movlw	128
  3046     0101  00F7               	movwf	clcd_print@str+1
  3047     0102  3080               	movlw	128
  3048     0103  00F8               	movwf	clcd_print@addr
  3049     0104  120A  158A  26FC  120A  118A  	fcall	_clcd_print
  3050     0109                     l2830:
  3051                           
  3052                           ;car_black_box.c: 162:                 clcd_putch((attempt_left + '0'), (0xC0 + 0));
  3053     0109  30C0               	movlw	192
  3054     010A  00FA               	movwf	clcd_putch@addr
  3055     010B  1283               	bcf	3,5	;RP0=0, select bank0
  3056     010C  1303               	bcf	3,6	;RP1=0, select bank0
  3057     010D  0825               	movf	login@attempt_left,w
  3058     010E  3E30               	addlw	48
  3059     010F  120A  158A  257B  120A  118A  	fcall	_clcd_putch
  3060     0114                     l2832:
  3061                           
  3062                           ;car_black_box.c: 163:                 clcd_print("attempts left", (0xC0 + 2));
  3063     0114  305A               	movlw	(low ((STR_9-__stringbase)| (0+32768)))& (0+255)
  3064     0115  00F6               	movwf	clcd_print@str
  3065     0116  3080               	movlw	128
  3066     0117  00F7               	movwf	clcd_print@str+1
  3067     0118  30C2               	movlw	194
  3068     0119  00F8               	movwf	clcd_print@addr
  3069     011A  120A  158A  26FC  120A  118A  	fcall	_clcd_print
  3070     011F                     l2834:
  3071                           
  3072                           ;car_black_box.c: 164:                 _delay((unsigned long)((3000)*(20000000/4000.0)))
      +                          ;
  3073     011F  304D               	movlw	77
  3074     0120  1283               	bcf	3,5	;RP0=0, select bank0
  3075     0121  1303               	bcf	3,6	;RP1=0, select bank0
  3076     0122  00C4               	movwf	??_login+2
  3077     0123  3019               	movlw	25
  3078     0124  00C3               	movwf	??_login+1
  3079     0125  304F               	movlw	79
  3080     0126  00C2               	movwf	??_login
  3081     0127                     u2597:
  3082     0127  0BC2               	decfsz	??_login,f
  3083     0128  2927               	goto	u2597
  3084     0129  0BC3               	decfsz	??_login+1,f
  3085     012A  2927               	goto	u2597
  3086     012B  0BC4               	decfsz	??_login+2,f
  3087     012C  2927               	goto	u2597
  3088                           
  3089                           ;car_black_box.c: 166:             } else if (attempt_left == 0) {
  3090     012D  2996               	goto	l2848
  3091     012E                     l2836:
  3092     012E  0825               	movf	login@attempt_left,w
  3093     012F  1D03               	btfss	3,2
  3094     0130  2932               	goto	u2461
  3095     0131  2933               	goto	u2460
  3096     0132                     u2461:
  3097     0132  2996               	goto	l2848
  3098     0133                     u2460:
  3099     0133                     l2838:
  3100                           
  3101                           ;car_black_box.c: 167:                 clcd_print("You are blocked", (0x80 + 0));
  3102     0133  3001               	movlw	(low ((STR_10-__stringbase)| (0+32768)))& (0+255)
  3103     0134  00F6               	movwf	clcd_print@str
  3104     0135  3080               	movlw	128
  3105     0136  00F7               	movwf	clcd_print@str+1
  3106     0137  3080               	movlw	128
  3107     0138  00F8               	movwf	clcd_print@addr
  3108     0139  120A  158A  26FC  120A  118A  	fcall	_clcd_print
  3109                           
  3110                           ;car_black_box.c: 168:                 clcd_print("wait for", (0xC0 + 0));
  3111     013E  3091               	movlw	(low ((STR_11-__stringbase)| (0+32768)))& (0+255)
  3112     013F  00F6               	movwf	clcd_print@str
  3113     0140  3080               	movlw	128
  3114     0141  00F7               	movwf	clcd_print@str+1
  3115     0142  30C0               	movlw	192
  3116     0143  00F8               	movwf	clcd_print@addr
  3117     0144  120A  158A  26FC  120A  118A  	fcall	_clcd_print
  3118                           
  3119                           ;car_black_box.c: 169:                 clcd_print("secs", (0xC0 + 12));
  3120     0149  309F               	movlw	(low ((STR_12-__stringbase)| (0+32768)))& (0+255)
  3121     014A  00F6               	movwf	clcd_print@str
  3122     014B  3080               	movlw	128
  3123     014C  00F7               	movwf	clcd_print@str+1
  3124     014D  30CC               	movlw	204
  3125     014E  00F8               	movwf	clcd_print@addr
  3126     014F  120A  158A  26FC  120A  118A  	fcall	_clcd_print
  3127     0154                     l2840:
  3128                           
  3129                           ;car_black_box.c: 171:                 sec = 60;
  3130     0154  303C               	movlw	60
  3131     0155  1283               	bcf	3,5	;RP0=0, select bank0
  3132     0156  1303               	bcf	3,6	;RP1=0, select bank0
  3133     0157  00A9               	movwf	_sec
  3134                           
  3135                           ;car_black_box.c: 172:                 while (sec) {
  3136     0158  298D               	goto	l2844
  3137     0159                     l2842:
  3138                           
  3139                           ;car_black_box.c: 173:                     clcd_putch(sec / 10 + '0', (0xC0 + 9));
  3140     0159  30C9               	movlw	201
  3141     015A  00FA               	movwf	clcd_putch@addr
  3142     015B  300A               	movlw	10
  3143     015C  00F2               	movwf	___awdiv@divisor
  3144     015D  3000               	movlw	0
  3145     015E  00F3               	movwf	___awdiv@divisor+1
  3146     015F  0829               	movf	_sec,w
  3147     0160  00C2               	movwf	??_login
  3148     0161  01C3               	clrf	??_login+1
  3149     0162  0842               	movf	??_login,w
  3150     0163  00F4               	movwf	___awdiv@dividend
  3151     0164  0843               	movf	??_login+1,w
  3152     0165  00F5               	movwf	___awdiv@dividend+1
  3153     0166  120A  118A  24DC  120A  118A  	fcall	___awdiv
  3154     016B  0872               	movf	?___awdiv,w
  3155     016C  3E30               	addlw	48
  3156     016D  120A  158A  257B  120A  118A  	fcall	_clcd_putch
  3157                           
  3158                           ;car_black_box.c: 174:                     clcd_putch(sec % 10 + '0', (0xC0 + 10));
  3159     0172  30CA               	movlw	202
  3160     0173  00FA               	movwf	clcd_putch@addr
  3161     0174  300A               	movlw	10
  3162     0175  00F2               	movwf	___awmod@divisor
  3163     0176  3000               	movlw	0
  3164     0177  00F3               	movwf	___awmod@divisor+1
  3165     0178  1283               	bcf	3,5	;RP0=0, select bank0
  3166     0179  1303               	bcf	3,6	;RP1=0, select bank0
  3167     017A  0829               	movf	_sec,w
  3168     017B  00C2               	movwf	??_login
  3169     017C  01C3               	clrf	??_login+1
  3170     017D  0842               	movf	??_login,w
  3171     017E  00F4               	movwf	___awmod@dividend
  3172     017F  0843               	movf	??_login+1,w
  3173     0180  00F5               	movwf	___awmod@dividend+1
  3174     0181  120A  118A  25A6  120A  118A  	fcall	___awmod
  3175     0186  0872               	movf	?___awmod,w
  3176     0187  3E30               	addlw	48
  3177     0188  120A  158A  257B  120A  118A  	fcall	_clcd_putch
  3178     018D                     l2844:
  3179                           
  3180                           ;car_black_box.c: 172:                 while (sec) {
  3181     018D  1283               	bcf	3,5	;RP0=0, select bank0
  3182     018E  1303               	bcf	3,6	;RP1=0, select bank0
  3183     018F  0829               	movf	_sec,w
  3184     0190  1D03               	btfss	3,2
  3185     0191  2993               	goto	u2471
  3186     0192  2994               	goto	u2470
  3187     0193                     u2471:
  3188     0193  2959               	goto	l2842
  3189     0194                     u2470:
  3190     0194                     l2846:
  3191                           
  3192                           ;car_black_box.c: 178:                 attempt_left = 3;
  3193     0194  3003               	movlw	3
  3194     0195  00A5               	movwf	login@attempt_left
  3195     0196                     l2848:
  3196                           
  3197                           ;car_black_box.c: 182:             clear_screen();
  3198     0196  120A  158A  2532  120A  118A  	fcall	_clear_screen
  3199     019B                     l2850:
  3200                           
  3201                           ;car_black_box.c: 183:             clcd_print("Enter Password", (0x80 + 0));
  3202     019B  302F               	movlw	(low ((STR_13-__stringbase)| (0+32768)))& (0+255)
  3203     019C  00F6               	movwf	clcd_print@str
  3204     019D  3080               	movlw	128
  3205     019E  00F7               	movwf	clcd_print@str+1
  3206     019F  3080               	movlw	128
  3207     01A0  00F8               	movwf	clcd_print@addr
  3208     01A1  120A  158A  26FC  120A  118A  	fcall	_clcd_print
  3209     01A6                     l2852:
  3210                           
  3211                           ;car_black_box.c: 184:             clcd_write((0xC0 + 4), 0);
  3212     01A6  01F2               	clrf	clcd_write@mode
  3213     01A7  30C4               	movlw	196
  3214     01A8  120A  158A  278F  120A  118A  	fcall	_clcd_write
  3215     01AD                     l2854:
  3216                           
  3217                           ;car_black_box.c: 185:             clcd_write(0x0F, 0);
  3218     01AD  01F2               	clrf	clcd_write@mode
  3219     01AE  300F               	movlw	15
  3220     01AF  120A  158A  278F  120A  118A  	fcall	_clcd_write
  3221     01B4                     l2856:
  3222                           
  3223                           ;car_black_box.c: 186:             i = 0;
  3224     01B4  1283               	bcf	3,5	;RP0=0, select bank0
  3225     01B5  1303               	bcf	3,6	;RP1=0, select bank0
  3226     01B6  01A6               	clrf	login@i
  3227     01B7                     l2858:
  3228                           
  3229                           ;car_black_box.c: 187:             ret_time = 5;
  3230     01B7  3005               	movlw	5
  3231     01B8  00A8               	movwf	_ret_time
  3232     01B9                     l96:
  3233     01B9  0008               	return
  3234     01BA                     __end_of_login:
  3235                           
  3236                           	psect	text6
  3237     06A8                     __ptext6:	
  3238 ;; *************** function _strncmp *****************
  3239 ;; Defined at:
  3240 ;;		line 3 in file "C:\Program Files\Microchip\xc8\v2.46\pic\sources\c99\common\strncmp.c"
  3241 ;; Parameters:    Size  Location     Type
  3242 ;;  l               1    wreg     PTR const unsigned char 
  3243 ;;		 -> login@u_password(4), 
  3244 ;;  r               1    2[COMMON] PTR const unsigned char 
  3245 ;;		 -> login@s_password(4), 
  3246 ;;  n               2    3[COMMON] unsigned int 
  3247 ;; Auto vars:     Size  Location     Type
  3248 ;;  l               1    7[COMMON] PTR const unsigned char 
  3249 ;;		 -> login@u_password(4), 
  3250 ;; Return value:  Size  Location     Type
  3251 ;;                  2    2[COMMON] int 
  3252 ;; Registers used:
  3253 ;;		wreg, fsr0l, fsr0h, status,2, status,0, btemp+1
  3254 ;; Tracked objects:
  3255 ;;		On entry : 0/0
  3256 ;;		On exit  : 0/0
  3257 ;;		Unchanged: 0/0
  3258 ;; Data sizes:     COMMON   BANK0   BANK1   BANK3   BANK2
  3259 ;;      Params:         3       0       0       0       0
  3260 ;;      Locals:         1       0       0       0       0
  3261 ;;      Temps:          2       0       0       0       0
  3262 ;;      Totals:         6       0       0       0       0
  3263 ;;Total ram usage:        6 bytes
  3264 ;; Hardware stack levels used: 1
  3265 ;; Hardware stack levels required when called: 1
  3266 ;; This function calls:
  3267 ;;		Nothing
  3268 ;; This function is called by:
  3269 ;;		_login
  3270 ;; This function uses a non-reentrant model
  3271 ;;
  3272                           
  3273     06A8                     _strncmp:	
  3274                           ;psect for function _strncmp
  3275                           
  3276                           
  3277                           ;incstack = 0
  3278                           ; Regs used in _strncmp: [wreg-fsr0h+status,2+status,0+btemp+1]
  3279                           ;strncmp@l stored from wreg
  3280     06A8  00F7               	movwf	strncmp@l
  3281     06A9                     l1922:
  3282     06A9  3001               	movlw	1
  3283     06AA  02F3               	subwf	strncmp@n,f
  3284     06AB  3000               	movlw	0
  3285     06AC  1C03               	skipc
  3286     06AD  03F4               	decf	strncmp@n+1,f
  3287     06AE  02F4               	subwf	strncmp@n+1,f
  3288     06AF  0A73               	incf	strncmp@n,w
  3289     06B0  1D03               	skipz
  3290     06B1  2EB6               	goto	u1231
  3291     06B2  0A74               	incf	strncmp@n+1,w
  3292     06B3  1D03               	btfss	3,2
  3293     06B4  2EB6               	goto	u1231
  3294     06B5  2EB7               	goto	u1230
  3295     06B6                     u1231:
  3296     06B6  2EC8               	goto	l1932
  3297     06B7                     u1230:
  3298     06B7                     l1924:
  3299     06B7  01F2               	clrf	?_strncmp
  3300     06B8  01F3               	clrf	?_strncmp+1
  3301     06B9  2EF7               	goto	l967
  3302     06BA                     l1928:
  3303     06BA  3001               	movlw	1
  3304     06BB  00FF               	movwf	btemp+1
  3305     06BC  087F               	movf	btemp+1,w
  3306     06BD  07F7               	addwf	strncmp@l,f
  3307     06BE  3001               	movlw	1
  3308     06BF  00FF               	movwf	btemp+1
  3309     06C0  087F               	movf	btemp+1,w
  3310     06C1  07F2               	addwf	strncmp@r,f
  3311     06C2                     l1930:
  3312     06C2  3001               	movlw	1
  3313     06C3  02F3               	subwf	strncmp@n,f
  3314     06C4  3000               	movlw	0
  3315     06C5  1C03               	skipc
  3316     06C6  03F4               	decf	strncmp@n+1,f
  3317     06C7  02F4               	subwf	strncmp@n+1,f
  3318     06C8                     l1932:
  3319     06C8  0877               	movf	strncmp@l,w
  3320     06C9  0084               	movwf	4
  3321     06CA  1383               	bcf	3,7	;select IRP bank0
  3322     06CB  0800               	movf	0,w
  3323     06CC  1903               	btfsc	3,2
  3324     06CD  2ECF               	goto	u1241
  3325     06CE  2ED0               	goto	u1240
  3326     06CF                     u1241:
  3327     06CF  2EE9               	goto	l1940
  3328     06D0                     u1240:
  3329     06D0                     l1934:
  3330     06D0  0872               	movf	strncmp@r,w
  3331     06D1  0084               	movwf	4
  3332     06D2  0800               	movf	0,w
  3333     06D3  1903               	btfsc	3,2
  3334     06D4  2ED6               	goto	u1251
  3335     06D5  2ED7               	goto	u1250
  3336     06D6                     u1251:
  3337     06D6  2EE9               	goto	l1940
  3338     06D7                     u1250:
  3339     06D7                     l1936:
  3340     06D7  0873               	movf	strncmp@n,w
  3341     06D8  0474               	iorwf	strncmp@n+1,w
  3342     06D9  1903               	btfsc	3,2
  3343     06DA  2EDC               	goto	u1261
  3344     06DB  2EDD               	goto	u1260
  3345     06DC                     u1261:
  3346     06DC  2EE9               	goto	l1940
  3347     06DD                     u1260:
  3348     06DD                     l1938:
  3349     06DD  0872               	movf	strncmp@r,w
  3350     06DE  0084               	movwf	4
  3351     06DF  0800               	movf	0,w
  3352     06E0  00F5               	movwf	??_strncmp
  3353     06E1  0877               	movf	strncmp@l,w
  3354     06E2  0084               	movwf	4
  3355     06E3  0800               	movf	0,w
  3356     06E4  0675               	xorwf	??_strncmp,w
  3357     06E5  1903               	skipnz
  3358     06E6  2EE8               	goto	u1271
  3359     06E7  2EE9               	goto	u1270
  3360     06E8                     u1271:
  3361     06E8  2EBA               	goto	l1928
  3362     06E9                     u1270:
  3363     06E9                     l1940:
  3364     06E9  0872               	movf	strncmp@r,w
  3365     06EA  0084               	movwf	4
  3366     06EB  0800               	movf	0,w
  3367     06EC  00F5               	movwf	??_strncmp
  3368     06ED  0877               	movf	strncmp@l,w
  3369     06EE  0084               	movwf	4
  3370     06EF  0800               	movf	0,w
  3371     06F0  00F6               	movwf	??_strncmp+1
  3372     06F1  0875               	movf	??_strncmp,w
  3373     06F2  0276               	subwf	??_strncmp+1,w
  3374     06F3  00F2               	movwf	?_strncmp
  3375     06F4  01F3               	clrf	?_strncmp+1
  3376     06F5  1C03               	skipc
  3377     06F6  03F3               	decf	?_strncmp+1,f
  3378     06F7                     l967:
  3379     06F7  0008               	return
  3380     06F8                     __end_of_strncmp:
  3381                           
  3382                           	psect	text7
  3383     0EA4                     __ptext7:	
  3384 ;; *************** function _eeprom_at24c04_read *****************
  3385 ;; Defined at:
  3386 ;;		line 22 in file "external_eeprom.c"
  3387 ;; Parameters:    Size  Location     Type
  3388 ;;  addr            1    wreg     unsigned char 
  3389 ;; Auto vars:     Size  Location     Type
  3390 ;;  addr            1    4[COMMON] unsigned char 
  3391 ;;  data            1    5[COMMON] unsigned char 
  3392 ;; Return value:  Size  Location     Type
  3393 ;;                  1    wreg      unsigned char 
  3394 ;; Registers used:
  3395 ;;		wreg, status,2, status,0, pclath, cstack
  3396 ;; Tracked objects:
  3397 ;;		On entry : 0/0
  3398 ;;		On exit  : 0/0
  3399 ;;		Unchanged: 0/0
  3400 ;; Data sizes:     COMMON   BANK0   BANK1   BANK3   BANK2
  3401 ;;      Params:         0       0       0       0       0
  3402 ;;      Locals:         2       0       0       0       0
  3403 ;;      Temps:          0       0       0       0       0
  3404 ;;      Totals:         2       0       0       0       0
  3405 ;;Total ram usage:        2 bytes
  3406 ;; Hardware stack levels used: 1
  3407 ;; Hardware stack levels required when called: 4
  3408 ;; This function calls:
  3409 ;;		_i2c_read
  3410 ;;		_i2c_rep_start
  3411 ;;		_i2c_start
  3412 ;;		_i2c_stop
  3413 ;;		_i2c_write
  3414 ;; This function is called by:
  3415 ;;		_login
  3416 ;;		_init_at24c04
  3417 ;; This function uses a non-reentrant model
  3418 ;;
  3419                           
  3420     0EA4                     _eeprom_at24c04_read:	
  3421                           ;psect for function _eeprom_at24c04_read
  3422                           
  3423                           
  3424                           ;incstack = 0
  3425                           ; Regs used in _eeprom_at24c04_read: [wreg+status,2+status,0+pclath+cstack]
  3426                           ;eeprom_at24c04_read@addr stored from wreg
  3427     0EA4  00F4               	movwf	eeprom_at24c04_read@addr
  3428     0EA5                     l2596:
  3429                           
  3430                           ;external_eeprom.c: 22: unsigned char eeprom_at24c04_read(unsigned char addr);external_e
      +                          eprom.c: 23: {;external_eeprom.c: 24:     unsigned char data;;external_eeprom.c: 26:    
      +                           i2c_start();
  3431     0EA5  120A  158A  24D5  120A  158A  	fcall	_i2c_start
  3432                           
  3433                           ;external_eeprom.c: 27:     i2c_write(0xA0);
  3434     0EAA  30A0               	movlw	160
  3435     0EAB  120A  158A  24F2  120A  158A  	fcall	_i2c_write
  3436                           
  3437                           ;external_eeprom.c: 28:     i2c_write(addr);
  3438     0EB0  0874               	movf	eeprom_at24c04_read@addr,w
  3439     0EB1  120A  158A  24F2  120A  158A  	fcall	_i2c_write
  3440                           
  3441                           ;external_eeprom.c: 29:     i2c_rep_start();
  3442     0EB6  120A  158A  24E7  120A  158A  	fcall	_i2c_rep_start
  3443                           
  3444                           ;external_eeprom.c: 30:     i2c_write(0xA1);
  3445     0EBB  30A1               	movlw	161
  3446     0EBC  120A  158A  24F2  120A  158A  	fcall	_i2c_write
  3447                           
  3448                           ;external_eeprom.c: 31:     data = i2c_read(0);
  3449     0EC1  3000               	movlw	0
  3450     0EC2  120A  118A  27DB  120A  158A  	fcall	_i2c_read
  3451     0EC7  00F5               	movwf	eeprom_at24c04_read@data
  3452                           
  3453                           ;external_eeprom.c: 32:     i2c_stop();
  3454     0EC8  120A  158A  24DE  120A  158A  	fcall	_i2c_stop
  3455     0ECD                     l2598:
  3456                           
  3457                           ;external_eeprom.c: 34:     return data;
  3458     0ECD  0875               	movf	eeprom_at24c04_read@data,w
  3459     0ECE                     l202:
  3460     0ECE  0008               	return
  3461     0ECF                     __end_of_eeprom_at24c04_read:
  3462                           
  3463                           	psect	text8
  3464     0D32                     __ptext8:	
  3465 ;; *************** function _clear_screen *****************
  3466 ;; Defined at:
  3467 ;;		line 105 in file "car_black_box.c"
  3468 ;; Parameters:    Size  Location     Type
  3469 ;;		None
  3470 ;; Auto vars:     Size  Location     Type
  3471 ;;		None
  3472 ;; Return value:  Size  Location     Type
  3473 ;;                  1    wreg      void 
  3474 ;; Registers used:
  3475 ;;		wreg, status,2, status,0, pclath, cstack
  3476 ;; Tracked objects:
  3477 ;;		On entry : 0/0
  3478 ;;		On exit  : 0/0
  3479 ;;		Unchanged: 0/0
  3480 ;; Data sizes:     COMMON   BANK0   BANK1   BANK3   BANK2
  3481 ;;      Params:         0       0       0       0       0
  3482 ;;      Locals:         0       0       0       0       0
  3483 ;;      Temps:          2       0       0       0       0
  3484 ;;      Totals:         2       0       0       0       0
  3485 ;;Total ram usage:        2 bytes
  3486 ;; Hardware stack levels used: 1
  3487 ;; Hardware stack levels required when called: 2
  3488 ;; This function calls:
  3489 ;;		_clcd_write
  3490 ;; This function is called by:
  3491 ;;		_menu_screen
  3492 ;;		_login
  3493 ;;		_main
  3494 ;; This function uses a non-reentrant model
  3495 ;;
  3496                           
  3497     0D32                     _clear_screen:	
  3498                           ;psect for function _clear_screen
  3499                           
  3500     0D32                     l2592:	
  3501                           ;incstack = 0
  3502                           ; Regs used in _clear_screen: [wreg+status,2+status,0+pclath+cstack]
  3503                           
  3504                           
  3505                           ;car_black_box.c: 106:     clcd_write(0x01, 0);
  3506     0D32  01F2               	clrf	clcd_write@mode
  3507     0D33  3001               	movlw	1
  3508     0D34  120A  158A  278F  120A  158A  	fcall	_clcd_write
  3509     0D39                     l2594:
  3510                           
  3511                           ;car_black_box.c: 107:     _delay((unsigned long)((500)*(20000000/4000000.0)));
  3512     0D39  3004               	movlw	4
  3513     0D3A  00F7               	movwf	??_clear_screen+1
  3514     0D3B  303D               	movlw	61
  3515     0D3C  00F6               	movwf	??_clear_screen
  3516     0D3D                     u2607:
  3517     0D3D  0BF6               	decfsz	??_clear_screen,f
  3518     0D3E  2D3D               	goto	u2607
  3519     0D3F  0BF7               	decfsz	??_clear_screen+1,f
  3520     0D40  2D3D               	goto	u2607
  3521     0D41  2D42               	nop2
  3522     0D42                     l85:
  3523     0D42  0008               	return
  3524     0D43                     __end_of_clear_screen:
  3525                           
  3526                           	psect	text9
  3527     06F8                     __ptext9:	
  3528 ;; *************** function _log_car_event *****************
  3529 ;; Defined at:
  3530 ;;		line 69 in file "car_black_box.c"
  3531 ;; Parameters:    Size  Location     Type
  3532 ;;  event           1    wreg     PTR unsigned char 
  3533 ;;		 -> main@event(3), 
  3534 ;;  speed           1   10[COMMON] unsigned char 
  3535 ;; Auto vars:     Size  Location     Type
  3536 ;;  event           1    2[BANK0 ] PTR unsigned char 
  3537 ;;		 -> main@event(3), 
  3538 ;; Return value:  Size  Location     Type
  3539 ;;                  1    wreg      void 
  3540 ;; Registers used:
  3541 ;;		wreg, fsr0l, fsr0h, status,2, status,0, btemp+1, pclath, cstack
  3542 ;; Tracked objects:
  3543 ;;		On entry : 0/0
  3544 ;;		On exit  : 0/0
  3545 ;;		Unchanged: 0/0
  3546 ;; Data sizes:     COMMON   BANK0   BANK1   BANK3   BANK2
  3547 ;;      Params:         1       0       0       0       0
  3548 ;;      Locals:         0       1       0       0       0
  3549 ;;      Temps:          0       2       0       0       0
  3550 ;;      Totals:         1       3       0       0       0
  3551 ;;Total ram usage:        4 bytes
  3552 ;; Hardware stack levels used: 1
  3553 ;; Hardware stack levels required when called: 6
  3554 ;; This function calls:
  3555 ;;		___awdiv
  3556 ;;		___awmod
  3557 ;;		_log_event
  3558 ;;		_strncpy
  3559 ;; This function is called by:
  3560 ;;		_main
  3561 ;; This function uses a non-reentrant model
  3562 ;;
  3563                           
  3564     06F8                     _log_car_event:	
  3565                           ;psect for function _log_car_event
  3566                           
  3567                           
  3568                           ;incstack = 0
  3569                           ; Regs used in _log_car_event: [wreg-fsr0h+status,2+status,0+btemp+1+pclath+cstack]
  3570                           ;log_car_event@event stored from wreg
  3571     06F8  1283               	bcf	3,5	;RP0=0, select bank0
  3572     06F9  1303               	bcf	3,6	;RP1=0, select bank0
  3573     06FA  00C2               	movwf	log_car_event@event
  3574     06FB                     l2708:
  3575                           
  3576                           ;car_black_box.c: 70:     strncpy(log, time, 6);
  3577     06FB  3035               	movlw	(low (_time| 0))& (0+255)
  3578     06FC  00F2               	movwf	strncpy@s
  3579     06FD  3006               	movlw	6
  3580     06FE  00F3               	movwf	strncpy@n
  3581     06FF  3000               	movlw	0
  3582     0700  00F4               	movwf	strncpy@n+1
  3583     0701  302A               	movlw	(low (_log| 0))& (0+255)
  3584     0702  120A  158A  27C5  120A  118A  	fcall	_strncpy
  3585                           
  3586                           ;car_black_box.c: 71:     strncpy(log + 6, event, 2);
  3587     0707  1283               	bcf	3,5	;RP0=0, select bank0
  3588     0708  1303               	bcf	3,6	;RP1=0, select bank0
  3589     0709  0842               	movf	log_car_event@event,w
  3590     070A  00F2               	movwf	strncpy@s
  3591     070B  3002               	movlw	2
  3592     070C  00F3               	movwf	strncpy@n
  3593     070D  3000               	movlw	0
  3594     070E  00F4               	movwf	strncpy@n+1
  3595     070F  3030               	movlw	(low ((_log| 0+6)))& (0+255)
  3596     0710  120A  158A  27C5  120A  118A  	fcall	_strncpy
  3597     0715                     l2710:
  3598                           
  3599                           ;car_black_box.c: 72:     log[8] = speed / 10 + '0';
  3600     0715  300A               	movlw	10
  3601     0716  00F2               	movwf	___awdiv@divisor
  3602     0717  3000               	movlw	0
  3603     0718  00F3               	movwf	___awdiv@divisor+1
  3604     0719  087A               	movf	log_car_event@speed,w
  3605     071A  1283               	bcf	3,5	;RP0=0, select bank0
  3606     071B  1303               	bcf	3,6	;RP1=0, select bank0
  3607     071C  00C0               	movwf	??_log_car_event
  3608     071D  01C1               	clrf	??_log_car_event+1
  3609     071E  0840               	movf	??_log_car_event,w
  3610     071F  00F4               	movwf	___awdiv@dividend
  3611     0720  0841               	movf	??_log_car_event+1,w
  3612     0721  00F5               	movwf	___awdiv@dividend+1
  3613     0722  120A  118A  24DC  120A  118A  	fcall	___awdiv
  3614     0727  0872               	movf	?___awdiv,w
  3615     0728  3E30               	addlw	48
  3616     0729  1283               	bcf	3,5	;RP0=0, select bank0
  3617     072A  1303               	bcf	3,6	;RP1=0, select bank0
  3618     072B  00B2               	movwf	_log+8
  3619     072C                     l2712:
  3620                           
  3621                           ;car_black_box.c: 73:     log[9] = speed % 10 + '0';
  3622     072C  300A               	movlw	10
  3623     072D  00F2               	movwf	___awmod@divisor
  3624     072E  3000               	movlw	0
  3625     072F  00F3               	movwf	___awmod@divisor+1
  3626     0730  087A               	movf	log_car_event@speed,w
  3627     0731  00C0               	movwf	??_log_car_event
  3628     0732  01C1               	clrf	??_log_car_event+1
  3629     0733  0840               	movf	??_log_car_event,w
  3630     0734  00F4               	movwf	___awmod@dividend
  3631     0735  0841               	movf	??_log_car_event+1,w
  3632     0736  00F5               	movwf	___awmod@dividend+1
  3633     0737  120A  118A  25A6  120A  118A  	fcall	___awmod
  3634     073C  0872               	movf	?___awmod,w
  3635     073D  3E30               	addlw	48
  3636     073E  1283               	bcf	3,5	;RP0=0, select bank0
  3637     073F  1303               	bcf	3,6	;RP1=0, select bank0
  3638     0740  00B3               	movwf	_log+9
  3639     0741                     l2714:
  3640                           
  3641                           ;car_black_box.c: 74:     log[10] = '\0';
  3642     0741  01B4               	clrf	_log+10
  3643     0742                     l2716:
  3644                           
  3645                           ;car_black_box.c: 75:     log_event();
  3646     0742  120A  158A  25FC  120A  118A  	fcall	_log_event
  3647     0747                     l71:
  3648     0747  0008               	return
  3649     0748                     __end_of_log_car_event:
  3650                           
  3651                           	psect	text10
  3652     0FC5                     __ptext10:	
  3653 ;; *************** function _strncpy *****************
  3654 ;; Defined at:
  3655 ;;		line 3 in file "C:\Program Files\Microchip\xc8\v2.46\pic\sources\c99\common\strncpy.c"
  3656 ;; Parameters:    Size  Location     Type
  3657 ;;  d               1    wreg     PTR unsigned char 
  3658 ;;		 -> log(11), 
  3659 ;;  s               1    2[COMMON] PTR const unsigned char 
  3660 ;;		 -> main@event(3), time(7), 
  3661 ;;  n               2    3[COMMON] unsigned int 
  3662 ;; Auto vars:     Size  Location     Type
  3663 ;;  d               1    5[COMMON] PTR unsigned char 
  3664 ;;		 -> log(11), 
  3665 ;;  cp              1    6[COMMON] PTR unsigned char 
  3666 ;;		 -> log(11), 
  3667 ;; Return value:  Size  Location     Type
  3668 ;;                  1    wreg      PTR unsigned char 
  3669 ;; Registers used:
  3670 ;;		wreg, fsr0l, fsr0h, status,2, status,0, btemp+1
  3671 ;; Tracked objects:
  3672 ;;		On entry : 0/0
  3673 ;;		On exit  : 0/0
  3674 ;;		Unchanged: 0/0
  3675 ;; Data sizes:     COMMON   BANK0   BANK1   BANK3   BANK2
  3676 ;;      Params:         3       0       0       0       0
  3677 ;;      Locals:         2       0       0       0       0
  3678 ;;      Temps:          0       0       0       0       0
  3679 ;;      Totals:         5       0       0       0       0
  3680 ;;Total ram usage:        5 bytes
  3681 ;; Hardware stack levels used: 1
  3682 ;; Hardware stack levels required when called: 1
  3683 ;; This function calls:
  3684 ;;		Nothing
  3685 ;; This function is called by:
  3686 ;;		_log_car_event
  3687 ;; This function uses a non-reentrant model
  3688 ;;
  3689                           
  3690     0FC5                     _strncpy:	
  3691                           ;psect for function _strncpy
  3692                           
  3693                           
  3694                           ;incstack = 0
  3695                           ; Regs used in _strncpy: [wreg-fsr0h+status,2+status,0+btemp+1]
  3696                           ;strncpy@d stored from wreg
  3697     0FC5  00F5               	movwf	strncpy@d
  3698     0FC6                     l2576:
  3699     0FC6  0875               	movf	strncpy@d,w
  3700     0FC7  00F6               	movwf	strncpy@cp
  3701     0FC8  2FE2               	goto	l2584
  3702     0FC9                     l2578:
  3703     0FC9  3001               	movlw	1
  3704     0FCA  02F3               	subwf	strncpy@n,f
  3705     0FCB  3000               	movlw	0
  3706     0FCC  1C03               	skipc
  3707     0FCD  03F4               	decf	strncpy@n+1,f
  3708     0FCE  02F4               	subwf	strncpy@n+1,f
  3709     0FCF                     l2580:
  3710     0FCF  0872               	movf	strncpy@s,w
  3711     0FD0  0084               	movwf	4
  3712     0FD1  3001               	movlw	1
  3713     0FD2  07F2               	addwf	strncpy@s,f
  3714     0FD3  1383               	bcf	3,7	;select IRP bank0
  3715     0FD4  0800               	movf	0,w
  3716     0FD5  00FF               	movwf	btemp+1
  3717     0FD6  0876               	movf	strncpy@cp,w
  3718     0FD7  0084               	movwf	4
  3719     0FD8  3001               	movlw	1
  3720     0FD9  07F6               	addwf	strncpy@cp,f
  3721     0FDA  087F               	movf	btemp+1,w
  3722     0FDB  0080               	movwf	0
  3723     0FDC  0800               	movf	0,w
  3724     0FDD  1D03               	btfss	3,2
  3725     0FDE  2FE0               	goto	u2081
  3726     0FDF  2FE1               	goto	u2080
  3727     0FE0                     u2081:
  3728     0FE0  2FE2               	goto	l2584
  3729     0FE1                     u2080:
  3730     0FE1  2FF1               	goto	l2590
  3731     0FE2                     l2584:
  3732     0FE2  0873               	movf	strncpy@n,w
  3733     0FE3  0474               	iorwf	strncpy@n+1,w
  3734     0FE4  1D03               	btfss	3,2
  3735     0FE5  2FE7               	goto	u2091
  3736     0FE6  2FE8               	goto	u2090
  3737     0FE7                     u2091:
  3738     0FE7  2FC9               	goto	l2578
  3739     0FE8                     u2090:
  3740     0FE8  2FF1               	goto	l2590
  3741     0FE9                     l2586:
  3742     0FE9  0876               	movf	strncpy@cp,w
  3743     0FEA  0084               	movwf	4
  3744     0FEB  1383               	bcf	3,7	;select IRP bank0
  3745     0FEC  0180               	clrf	0
  3746     0FED                     l2588:
  3747     0FED  3001               	movlw	1
  3748     0FEE  00FF               	movwf	btemp+1
  3749     0FEF  087F               	movf	btemp+1,w
  3750     0FF0  07F6               	addwf	strncpy@cp,f
  3751     0FF1                     l2590:
  3752     0FF1  3001               	movlw	1
  3753     0FF2  02F3               	subwf	strncpy@n,f
  3754     0FF3  3000               	movlw	0
  3755     0FF4  1C03               	skipc
  3756     0FF5  03F4               	decf	strncpy@n+1,f
  3757     0FF6  02F4               	subwf	strncpy@n+1,f
  3758     0FF7  0A73               	incf	strncpy@n,w
  3759     0FF8  1D03               	skipz
  3760     0FF9  2FFE               	goto	u2101
  3761     0FFA  0A74               	incf	strncpy@n+1,w
  3762     0FFB  1D03               	btfss	3,2
  3763     0FFC  2FFE               	goto	u2101
  3764     0FFD  2FFF               	goto	u2100
  3765     0FFE                     u2101:
  3766     0FFE  2FE9               	goto	l2586
  3767     0FFF                     u2100:
  3768     0FFF                     l982:
  3769     0FFF  0008               	return
  3770     1000                     __end_of_strncpy:
  3771                           
  3772                           	psect	text11
  3773     0DFC                     __ptext11:	
  3774 ;; *************** function _log_event *****************
  3775 ;; Defined at:
  3776 ;;		line 58 in file "car_black_box.c"
  3777 ;; Parameters:    Size  Location     Type
  3778 ;;		None
  3779 ;; Auto vars:     Size  Location     Type
  3780 ;;  addr            1    8[COMMON] unsigned char 
  3781 ;; Return value:  Size  Location     Type
  3782 ;;                  1    wreg      void 
  3783 ;; Registers used:
  3784 ;;		wreg, fsr0l, fsr0h, status,2, status,0, btemp+1, pclath, cstack
  3785 ;; Tracked objects:
  3786 ;;		On entry : 0/0
  3787 ;;		On exit  : 0/0
  3788 ;;		Unchanged: 0/0
  3789 ;; Data sizes:     COMMON   BANK0   BANK1   BANK3   BANK2
  3790 ;;      Params:         0       0       0       0       0
  3791 ;;      Locals:         1       0       0       0       0
  3792 ;;      Temps:          0       0       0       0       0
  3793 ;;      Totals:         1       0       0       0       0
  3794 ;;Total ram usage:        1 bytes
  3795 ;; Hardware stack levels used: 1
  3796 ;; Hardware stack levels required when called: 5
  3797 ;; This function calls:
  3798 ;;		___bmul
  3799 ;;		_eeprom_at24c04_str_write
  3800 ;; This function is called by:
  3801 ;;		_log_car_event
  3802 ;; This function uses a non-reentrant model
  3803 ;;
  3804                           
  3805     0DFC                     _log_event:	
  3806                           ;psect for function _log_event
  3807                           
  3808     0DFC                     l2566:	
  3809                           ;incstack = 0
  3810                           ; Regs used in _log_event: [wreg-fsr0h+status,2+status,0+btemp+1+pclath+cstack]
  3811                           
  3812                           
  3813                           ;car_black_box.c: 59:     char addr = 0x05;
  3814     0DFC  3005               	movlw	5
  3815     0DFD  00F8               	movwf	log_event@addr
  3816                           
  3817                           ;car_black_box.c: 60:     pos++;
  3818     0DFE  3001               	movlw	1
  3819     0DFF  1283               	bcf	3,5	;RP0=0, select bank0
  3820     0E00  1303               	bcf	3,6	;RP1=0, select bank0
  3821     0E01  07EB               	addwf	_pos,f
  3822     0E02  1803               	skipnc
  3823     0E03  0AEC               	incf	_pos+1,f
  3824     0E04  3000               	movlw	0
  3825     0E05  07EC               	addwf	_pos+1,f
  3826     0E06                     l2568:
  3827                           
  3828                           ;car_black_box.c: 61:     if (pos == 10) {
  3829     0E06  300A               	movlw	10
  3830     0E07  066B               	xorwf	_pos,w
  3831     0E08  046C               	iorwf	_pos+1,w
  3832     0E09  1D03               	btfss	3,2
  3833     0E0A  2E0C               	goto	u2071
  3834     0E0B  2E0D               	goto	u2070
  3835     0E0C                     u2071:
  3836     0E0C  2E0F               	goto	l2572
  3837     0E0D                     u2070:
  3838     0E0D                     l2570:
  3839                           
  3840                           ;car_black_box.c: 62:         pos = 0;
  3841     0E0D  01EB               	clrf	_pos
  3842     0E0E  01EC               	clrf	_pos+1
  3843     0E0F                     l2572:
  3844                           
  3845                           ;car_black_box.c: 64:     addr = pos * 10 + addr;
  3846     0E0F  300A               	movlw	10
  3847     0E10  00F2               	movwf	___bmul@multiplicand
  3848     0E11  086B               	movf	_pos,w
  3849     0E12  120A  158A  2590  120A  158A  	fcall	___bmul
  3850     0E17  0778               	addwf	log_event@addr,w
  3851     0E18  00F8               	movwf	log_event@addr
  3852     0E19                     l2574:
  3853                           
  3854                           ;car_black_box.c: 65:     eeprom_at24c04_str_write(addr, log);
  3855     0E19  302A               	movlw	(low (_log| 0))& (0+255)
  3856     0E1A  00F5               	movwf	eeprom_at24c04_str_write@data
  3857     0E1B  3000               	movlw	0
  3858     0E1C  00F6               	movwf	eeprom_at24c04_str_write@data+1
  3859     0E1D  0878               	movf	log_event@addr,w
  3860     0E1E  120A  158A  26CF  120A  158A  	fcall	_eeprom_at24c04_str_write
  3861     0E23                     l68:
  3862     0E23  0008               	return
  3863     0E24                     __end_of_log_event:
  3864                           
  3865                           	psect	text12
  3866     0ECF                     __ptext12:	
  3867 ;; *************** function _eeprom_at24c04_str_write *****************
  3868 ;; Defined at:
  3869 ;;		line 46 in file "external_eeprom.c"
  3870 ;; Parameters:    Size  Location     Type
  3871 ;;  addr            1    wreg     unsigned char 
  3872 ;;  data            2    5[COMMON] PTR unsigned char 
  3873 ;;		 -> STR_20(5), log(11), 
  3874 ;; Auto vars:     Size  Location     Type
  3875 ;;  addr            1    7[COMMON] unsigned char 
  3876 ;; Return value:  Size  Location     Type
  3877 ;;                  1    wreg      void 
  3878 ;; Registers used:
  3879 ;;		wreg, fsr0l, fsr0h, status,2, status,0, btemp+1, pclath, cstack
  3880 ;; Tracked objects:
  3881 ;;		On entry : 0/0
  3882 ;;		On exit  : 0/0
  3883 ;;		Unchanged: 0/0
  3884 ;; Data sizes:     COMMON   BANK0   BANK1   BANK3   BANK2
  3885 ;;      Params:         2       0       0       0       0
  3886 ;;      Locals:         1       0       0       0       0
  3887 ;;      Temps:          0       0       0       0       0
  3888 ;;      Totals:         3       0       0       0       0
  3889 ;;Total ram usage:        3 bytes
  3890 ;; Hardware stack levels used: 1
  3891 ;; Hardware stack levels required when called: 4
  3892 ;; This function calls:
  3893 ;;		_eeprom_at24c04_byte_write
  3894 ;; This function is called by:
  3895 ;;		_log_event
  3896 ;;		_main
  3897 ;; This function uses a non-reentrant model
  3898 ;;
  3899                           
  3900     0ECF                     _eeprom_at24c04_str_write:	
  3901                           ;psect for function _eeprom_at24c04_str_write
  3902                           
  3903                           
  3904                           ;incstack = 0
  3905                           ; Regs used in _eeprom_at24c04_str_write: [wreg-fsr0h+status,2+status,0+btemp+1+pclath+c
      +                          stack]
  3906                           ;eeprom_at24c04_str_write@addr stored from wreg
  3907     0ECF  00F7               	movwf	eeprom_at24c04_str_write@addr
  3908     0ED0                     l2504:
  3909                           
  3910                           ;external_eeprom.c: 46: void eeprom_at24c04_str_write(unsigned char addr, unsigned char 
      +                          *data);external_eeprom.c: 47: {;external_eeprom.c: 48:     while(*data != 0)
  3911     0ED0  2EEB               	goto	l2512
  3912     0ED1                     l2506:
  3913                           
  3914                           ;external_eeprom.c: 49:     {;external_eeprom.c: 50:         eeprom_at24c04_byte_write(a
      +                          ddr, *data);
  3915     0ED1  0876               	movf	eeprom_at24c04_str_write@data+1,w
  3916     0ED2  00FF               	movwf	btemp+1
  3917     0ED3  0875               	movf	eeprom_at24c04_str_write@data,w
  3918     0ED4  0084               	movwf	4
  3919     0ED5  120A  118A  2319  120A  158A  	fcall	stringtab
  3920     0EDA  00F3               	movwf	eeprom_at24c04_byte_write@data
  3921     0EDB  0877               	movf	eeprom_at24c04_str_write@addr,w
  3922     0EDC  120A  158A  25DE  120A  158A  	fcall	_eeprom_at24c04_byte_write
  3923     0EE1                     l2508:
  3924                           
  3925                           ;external_eeprom.c: 51:         data++;
  3926     0EE1  3001               	movlw	1
  3927     0EE2  07F5               	addwf	eeprom_at24c04_str_write@data,f
  3928     0EE3  1803               	skipnc
  3929     0EE4  0AF6               	incf	eeprom_at24c04_str_write@data+1,f
  3930     0EE5  3000               	movlw	0
  3931     0EE6  07F6               	addwf	eeprom_at24c04_str_write@data+1,f
  3932     0EE7                     l2510:
  3933                           
  3934                           ;external_eeprom.c: 52:         addr ++;
  3935     0EE7  3001               	movlw	1
  3936     0EE8  00FF               	movwf	btemp+1
  3937     0EE9  087F               	movf	btemp+1,w
  3938     0EEA  07F7               	addwf	eeprom_at24c04_str_write@addr,f
  3939     0EEB                     l2512:
  3940                           
  3941                           ;external_eeprom.c: 48:     while(*data != 0)
  3942     0EEB  0876               	movf	eeprom_at24c04_str_write@data+1,w
  3943     0EEC  1283               	bcf	3,5	;RP0=0, select bank0
  3944     0EED  1303               	bcf	3,6	;RP1=0, select bank0
  3945     0EEE  00FF               	movwf	btemp+1
  3946     0EEF  0875               	movf	eeprom_at24c04_str_write@data,w
  3947     0EF0  0084               	movwf	4
  3948     0EF1  120A  118A  2319  120A  158A  	fcall	stringtab
  3949     0EF6  3A00               	xorlw	0
  3950     0EF7  1D03               	skipz
  3951     0EF8  2EFA               	goto	u2031
  3952     0EF9  2EFB               	goto	u2030
  3953     0EFA                     u2031:
  3954     0EFA  2ED1               	goto	l2506
  3955     0EFB                     u2030:
  3956     0EFB                     l211:
  3957     0EFB  0008               	return
  3958     0EFC                     __end_of_eeprom_at24c04_str_write:
  3959                           
  3960                           	psect	text13
  3961     0DDE                     __ptext13:	
  3962 ;; *************** function _eeprom_at24c04_byte_write *****************
  3963 ;; Defined at:
  3964 ;;		line 37 in file "external_eeprom.c"
  3965 ;; Parameters:    Size  Location     Type
  3966 ;;  addr            1    wreg     unsigned char 
  3967 ;;  data            1    3[COMMON] unsigned char 
  3968 ;; Auto vars:     Size  Location     Type
  3969 ;;  addr            1    4[COMMON] unsigned char 
  3970 ;; Return value:  Size  Location     Type
  3971 ;;                  1    wreg      void 
  3972 ;; Registers used:
  3973 ;;		wreg, status,2, status,0, pclath, cstack
  3974 ;; Tracked objects:
  3975 ;;		On entry : 0/0
  3976 ;;		On exit  : 0/0
  3977 ;;		Unchanged: 0/0
  3978 ;; Data sizes:     COMMON   BANK0   BANK1   BANK3   BANK2
  3979 ;;      Params:         1       0       0       0       0
  3980 ;;      Locals:         1       0       0       0       0
  3981 ;;      Temps:          0       0       0       0       0
  3982 ;;      Totals:         2       0       0       0       0
  3983 ;;Total ram usage:        2 bytes
  3984 ;; Hardware stack levels used: 1
  3985 ;; Hardware stack levels required when called: 3
  3986 ;; This function calls:
  3987 ;;		_i2c_start
  3988 ;;		_i2c_stop
  3989 ;;		_i2c_write
  3990 ;; This function is called by:
  3991 ;;		_eeprom_at24c04_str_write
  3992 ;;		_init_at24c04
  3993 ;; This function uses a non-reentrant model
  3994 ;;
  3995                           
  3996     0DDE                     _eeprom_at24c04_byte_write:	
  3997                           ;psect for function _eeprom_at24c04_byte_write
  3998                           
  3999                           
  4000                           ;incstack = 0
  4001                           ; Regs used in _eeprom_at24c04_byte_write: [wreg+status,2+status,0+pclath+cstack]
  4002                           ;eeprom_at24c04_byte_write@addr stored from wreg
  4003     0DDE  00F4               	movwf	eeprom_at24c04_byte_write@addr
  4004     0DDF                     l2484:
  4005                           
  4006                           ;external_eeprom.c: 37: void eeprom_at24c04_byte_write(unsigned char addr, unsigned char
      +                           data);external_eeprom.c: 38: {;external_eeprom.c: 39:     i2c_start();
  4007     0DDF  120A  158A  24D5  120A  158A  	fcall	_i2c_start
  4008                           
  4009                           ;external_eeprom.c: 40:     i2c_write(0xA0);
  4010     0DE4  30A0               	movlw	160
  4011     0DE5  120A  158A  24F2  120A  158A  	fcall	_i2c_write
  4012                           
  4013                           ;external_eeprom.c: 41:     i2c_write(addr);
  4014     0DEA  0874               	movf	eeprom_at24c04_byte_write@addr,w
  4015     0DEB  120A  158A  24F2  120A  158A  	fcall	_i2c_write
  4016                           
  4017                           ;external_eeprom.c: 42:     i2c_write(data);
  4018     0DF0  0873               	movf	eeprom_at24c04_byte_write@data,w
  4019     0DF1  120A  158A  24F2  120A  158A  	fcall	_i2c_write
  4020                           
  4021                           ;external_eeprom.c: 43:     i2c_stop();
  4022     0DF6  120A  158A  24DE  120A  158A  	fcall	_i2c_stop
  4023     0DFB                     l205:
  4024     0DFB  0008               	return
  4025     0DFC                     __end_of_eeprom_at24c04_byte_write:
  4026                           
  4027                           	psect	text14
  4028     0D90                     __ptext14:	
  4029 ;; *************** function ___bmul *****************
  4030 ;; Defined at:
  4031 ;;		line 4 in file "C:\Program Files\Microchip\xc8\v2.46\pic\sources\c99\common\Umul8.c"
  4032 ;; Parameters:    Size  Location     Type
  4033 ;;  multiplier      1    wreg     unsigned char 
  4034 ;;  multiplicand    1    2[COMMON] unsigned char 
  4035 ;; Auto vars:     Size  Location     Type
  4036 ;;  multiplier      1    4[COMMON] unsigned char 
  4037 ;;  product         1    3[COMMON] unsigned char 
  4038 ;; Return value:  Size  Location     Type
  4039 ;;                  1    wreg      unsigned char 
  4040 ;; Registers used:
  4041 ;;		wreg, status,2, status,0, btemp+1
  4042 ;; Tracked objects:
  4043 ;;		On entry : 0/0
  4044 ;;		On exit  : 0/0
  4045 ;;		Unchanged: 0/0
  4046 ;; Data sizes:     COMMON   BANK0   BANK1   BANK3   BANK2
  4047 ;;      Params:         1       0       0       0       0
  4048 ;;      Locals:         2       0       0       0       0
  4049 ;;      Temps:          0       0       0       0       0
  4050 ;;      Totals:         3       0       0       0       0
  4051 ;;Total ram usage:        3 bytes
  4052 ;; Hardware stack levels used: 1
  4053 ;; Hardware stack levels required when called: 1
  4054 ;; This function calls:
  4055 ;;		Nothing
  4056 ;; This function is called by:
  4057 ;;		_log_event
  4058 ;; This function uses a non-reentrant model
  4059 ;;
  4060                           
  4061     0D90                     ___bmul:	
  4062                           ;psect for function ___bmul
  4063                           
  4064                           
  4065                           ;incstack = 0
  4066                           ; Regs used in ___bmul: [wreg+status,2+status,0+btemp+1]
  4067                           ;___bmul@multiplier stored from wreg
  4068     0D90  00F4               	movwf	___bmul@multiplier
  4069     0D91                     l2540:
  4070     0D91  01F3               	clrf	___bmul@product
  4071     0D92                     l2542:
  4072     0D92  1C74               	btfss	___bmul@multiplier,0
  4073     0D93  2D95               	goto	u2041
  4074     0D94  2D96               	goto	u2040
  4075     0D95                     u2041:
  4076     0D95  2D9A               	goto	l2546
  4077     0D96                     u2040:
  4078     0D96                     l2544:
  4079     0D96  0872               	movf	___bmul@multiplicand,w
  4080     0D97  00FF               	movwf	btemp+1
  4081     0D98  087F               	movf	btemp+1,w
  4082     0D99  07F3               	addwf	___bmul@product,f
  4083     0D9A                     l2546:
  4084     0D9A  1003               	clrc
  4085     0D9B  0DF2               	rlf	___bmul@multiplicand,f
  4086     0D9C                     l2548:
  4087     0D9C  1003               	clrc
  4088     0D9D  0CF4               	rrf	___bmul@multiplier,f
  4089     0D9E                     l2550:
  4090     0D9E  0874               	movf	___bmul@multiplier,w
  4091     0D9F  1D03               	btfss	3,2
  4092     0DA0  2DA2               	goto	u2051
  4093     0DA1  2DA3               	goto	u2050
  4094     0DA2                     u2051:
  4095     0DA2  2D92               	goto	l2542
  4096     0DA3                     u2050:
  4097     0DA3                     l2552:
  4098     0DA3  0873               	movf	___bmul@product,w
  4099     0DA4                     l527:
  4100     0DA4  0008               	return
  4101     0DA5                     __end_of___bmul:
  4102                           
  4103                           	psect	text15
  4104     0E79                     __ptext15:	
  4105 ;; *************** function _init_config *****************
  4106 ;; Defined at:
  4107 ;;		line 12 in file "main.c"
  4108 ;; Parameters:    Size  Location     Type
  4109 ;;		None
  4110 ;; Auto vars:     Size  Location     Type
  4111 ;;		None
  4112 ;; Return value:  Size  Location     Type
  4113 ;;                  1    wreg      void 
  4114 ;; Registers used:
  4115 ;;		wreg, status,2, status,0, btemp+1, pclath, cstack
  4116 ;; Tracked objects:
  4117 ;;		On entry : 0/0
  4118 ;;		On exit  : 0/0
  4119 ;;		Unchanged: 0/0
  4120 ;; Data sizes:     COMMON   BANK0   BANK1   BANK3   BANK2
  4121 ;;      Params:         0       0       0       0       0
  4122 ;;      Locals:         0       0       0       0       0
  4123 ;;      Temps:          0       0       0       0       0
  4124 ;;      Totals:         0       0       0       0       0
  4125 ;;Total ram usage:        0 bytes
  4126 ;; Hardware stack levels used: 1
  4127 ;; Hardware stack levels required when called: 6
  4128 ;; This function calls:
  4129 ;;		_init_adc
  4130 ;;		_init_clcd
  4131 ;;		_init_digital_keypad
  4132 ;;		_init_ds1307
  4133 ;;		_init_i2c
  4134 ;;		_init_timer2
  4135 ;; This function is called by:
  4136 ;;		_main
  4137 ;; This function uses a non-reentrant model
  4138 ;;
  4139                           
  4140     0E79                     _init_config:	
  4141                           ;psect for function _init_config
  4142                           
  4143     0E79                     l2860:	
  4144                           ;incstack = 0
  4145                           ; Regs used in _init_config: [wreg+status,2+status,0+btemp+1+pclath+cstack]
  4146                           
  4147                           
  4148                           ;main.c: 14: 
  4149     0E79  3000               	movlw	0
  4150     0E7A  1283               	bcf	3,5	;RP0=0, select bank0
  4151     0E7B  1303               	bcf	3,6	;RP1=0, select bank0
  4152     0E7C  00C8               	movwf	init_i2c@baud+3
  4153     0E7D  3001               	movlw	1
  4154     0E7E  00C7               	movwf	init_i2c@baud+2
  4155     0E7F  3086               	movlw	134
  4156     0E80  00C6               	movwf	init_i2c@baud+1
  4157     0E81  30A0               	movlw	160
  4158     0E82  00C5               	movwf	init_i2c@baud
  4159     0E83  120A  158A  275D  120A  158A  	fcall	_init_i2c
  4160     0E88                     l2862:
  4161                           
  4162                           ;main.c: 15: void main(void) {
  4163     0E88  120A  158A  2555  120A  158A  	fcall	_init_ds1307
  4164     0E8D                     l2864:
  4165                           
  4166                           ;main.c: 16:     init_config();
  4167     0E8D  120A  158A  24FD  120A  158A  	fcall	_init_clcd
  4168     0E92                     l2866:
  4169                           
  4170                           ;main.c: 17:     unsigned char control_flag = 0x01, reset_flag;
  4171     0E92  120A  158A  24C0  120A  158A  	fcall	_init_digital_keypad
  4172     0E97                     l2868:
  4173                           
  4174                           ;main.c: 18:     char event[3] = "ON";
  4175     0E97  120A  158A  24C6  120A  158A  	fcall	_init_adc
  4176     0E9C                     l2870:
  4177                           
  4178                           ;main.c: 19:     unsigned char speed = 0;
  4179     0E9C  120A  158A  2515  120A  158A  	fcall	_init_timer2
  4180     0EA1                     l2872:
  4181                           
  4182                           ;main.c: 20:     unsigned char gr = 0, key, menu;
  4183     0EA1  178B               	bsf	11,7	;volatile
  4184     0EA2                     l2874:
  4185                           
  4186                           ;main.c: 21:     char *gear[] = {"GN", "GR", "G1", "G2", "G3", "G4"};
  4187     0EA2  170B               	bsf	11,6	;volatile
  4188     0EA3                     l308:
  4189     0EA3  0008               	return
  4190     0EA4                     __end_of_init_config:
  4191                           
  4192                           	psect	text16
  4193     0D15                     __ptext16:	
  4194 ;; *************** function _init_timer2 *****************
  4195 ;; Defined at:
  4196 ;;		line 17 in file "timers.c"
  4197 ;; Parameters:    Size  Location     Type
  4198 ;;		None
  4199 ;; Auto vars:     Size  Location     Type
  4200 ;;		None
  4201 ;; Return value:  Size  Location     Type
  4202 ;;                  1    wreg      void 
  4203 ;; Registers used:
  4204 ;;		wreg
  4205 ;; Tracked objects:
  4206 ;;		On entry : 0/0
  4207 ;;		On exit  : 0/0
  4208 ;;		Unchanged: 0/0
  4209 ;; Data sizes:     COMMON   BANK0   BANK1   BANK3   BANK2
  4210 ;;      Params:         0       0       0       0       0
  4211 ;;      Locals:         0       0       0       0       0
  4212 ;;      Temps:          0       0       0       0       0
  4213 ;;      Totals:         0       0       0       0       0
  4214 ;;Total ram usage:        0 bytes
  4215 ;; Hardware stack levels used: 1
  4216 ;; Hardware stack levels required when called: 1
  4217 ;; This function calls:
  4218 ;;		Nothing
  4219 ;; This function is called by:
  4220 ;;		_init_config
  4221 ;; This function uses a non-reentrant model
  4222 ;;
  4223                           
  4224     0D15                     _init_timer2:	
  4225                           ;psect for function _init_timer2
  4226                           
  4227     0D15                     l1966:	
  4228                           ;incstack = 0
  4229                           ; Regs used in _init_timer2: [wreg]
  4230                           
  4231                           
  4232                           ;timers.c: 20:     T2CKPS0 = 1;
  4233     0D15  1283               	bcf	3,5	;RP0=0, select bank0
  4234     0D16  1303               	bcf	3,6	;RP1=0, select bank0
  4235     0D17  1412               	bsf	18,0	;volatile
  4236                           
  4237                           ;timers.c: 21:     T2CKPS1 = 1;
  4238     0D18  1492               	bsf	18,1	;volatile
  4239     0D19                     l1968:
  4240                           
  4241                           ;timers.c: 24:     PR2 = 250;
  4242     0D19  30FA               	movlw	250
  4243     0D1A  1683               	bsf	3,5	;RP0=1, select bank1
  4244     0D1B  1303               	bcf	3,6	;RP1=0, select bank1
  4245     0D1C  0092               	movwf	18	;volatile
  4246     0D1D                     l1970:
  4247                           
  4248                           ;timers.c: 27:     TMR2IE = 1;
  4249     0D1D  148C               	bsf	12,1	;volatile
  4250     0D1E                     l1972:
  4251                           
  4252                           ;timers.c: 30:     TMR2ON = 0;
  4253     0D1E  1283               	bcf	3,5	;RP0=0, select bank0
  4254     0D1F  1303               	bcf	3,6	;RP1=0, select bank0
  4255     0D20  1112               	bcf	18,2	;volatile
  4256     0D21                     l380:
  4257     0D21  0008               	return
  4258     0D22                     __end_of_init_timer2:
  4259                           
  4260                           	psect	text17
  4261     0F5D                     __ptext17:	
  4262 ;; *************** function _init_i2c *****************
  4263 ;; Defined at:
  4264 ;;		line 12 in file "i2c.c"
  4265 ;; Parameters:    Size  Location     Type
  4266 ;;  baud            4    5[BANK0 ] unsigned long 
  4267 ;; Auto vars:     Size  Location     Type
  4268 ;;		None
  4269 ;; Return value:  Size  Location     Type
  4270 ;;                  1    wreg      void 
  4271 ;; Registers used:
  4272 ;;		wreg, status,2, status,0, btemp+1, pclath, cstack
  4273 ;; Tracked objects:
  4274 ;;		On entry : 0/0
  4275 ;;		On exit  : 0/0
  4276 ;;		Unchanged: 0/0
  4277 ;; Data sizes:     COMMON   BANK0   BANK1   BANK3   BANK2
  4278 ;;      Params:         0       4       0       0       0
  4279 ;;      Locals:         0       0       0       0       0
  4280 ;;      Temps:          0       4       0       0       0
  4281 ;;      Totals:         0       8       0       0       0
  4282 ;;Total ram usage:        8 bytes
  4283 ;; Hardware stack levels used: 1
  4284 ;; Hardware stack levels required when called: 2
  4285 ;; This function calls:
  4286 ;;		___lldiv
  4287 ;; This function is called by:
  4288 ;;		_init_config
  4289 ;; This function uses a non-reentrant model
  4290 ;;
  4291                           
  4292     0F5D                     _init_i2c:	
  4293                           ;psect for function _init_i2c
  4294                           
  4295     0F5D                     l1960:	
  4296                           ;incstack = 0
  4297                           ; Regs used in _init_i2c: [wreg+status,2+status,0+btemp+1+pclath+cstack]
  4298                           
  4299                           
  4300                           ;i2c.c: 12: void init_i2c(unsigned long baud);i2c.c: 13: {;i2c.c: 15:     SSPM3 = 1;
  4301     0F5D  1283               	bcf	3,5	;RP0=0, select bank0
  4302     0F5E  1303               	bcf	3,6	;RP1=0, select bank0
  4303     0F5F  1594               	bsf	20,3	;volatile
  4304     0F60                     l1962:
  4305                           
  4306                           ;i2c.c: 18:     SSPADD = (unsigned char)(20000000 / (4 * baud)) - 1;
  4307     0F60  0845               	movf	init_i2c@baud,w
  4308     0F61  00C9               	movwf	??_init_i2c
  4309     0F62  0846               	movf	init_i2c@baud+1,w
  4310     0F63  00CA               	movwf	??_init_i2c+1
  4311     0F64  0847               	movf	init_i2c@baud+2,w
  4312     0F65  00CB               	movwf	??_init_i2c+2
  4313     0F66  0848               	movf	init_i2c@baud+3,w
  4314     0F67  00CC               	movwf	??_init_i2c+3
  4315     0F68  3002               	movlw	2
  4316     0F69                     u1285:
  4317     0F69  1003               	clrc
  4318     0F6A  0DC9               	rlf	??_init_i2c,f
  4319     0F6B  0DCA               	rlf	??_init_i2c+1,f
  4320     0F6C  0DCB               	rlf	??_init_i2c+2,f
  4321     0F6D  0DCC               	rlf	??_init_i2c+3,f
  4322     0F6E                     u1280:
  4323     0F6E  3EFF               	addlw	-1
  4324     0F6F  1D03               	skipz
  4325     0F70  2F69               	goto	u1285
  4326     0F71  084C               	movf	??_init_i2c+3,w
  4327     0F72  00F5               	movwf	___lldiv@divisor+3
  4328     0F73  084B               	movf	??_init_i2c+2,w
  4329     0F74  00F4               	movwf	___lldiv@divisor+2
  4330     0F75  084A               	movf	??_init_i2c+1,w
  4331     0F76  00F3               	movwf	___lldiv@divisor+1
  4332     0F77  0849               	movf	??_init_i2c,w
  4333     0F78  00F2               	movwf	___lldiv@divisor
  4334     0F79  3001               	movlw	1
  4335     0F7A  00F9               	movwf	___lldiv@dividend+3
  4336     0F7B  3031               	movlw	49
  4337     0F7C  00F8               	movwf	___lldiv@dividend+2
  4338     0F7D  302D               	movlw	45
  4339     0F7E  00F7               	movwf	___lldiv@dividend+1
  4340     0F7F  3000               	movlw	0
  4341     0F80  00F6               	movwf	___lldiv@dividend
  4342     0F81  120A  118A  2474  120A  158A  	fcall	___lldiv
  4343     0F86  0872               	movf	?___lldiv,w
  4344     0F87  3EFF               	addlw	255
  4345     0F88  1683               	bsf	3,5	;RP0=1, select bank1
  4346     0F89  1303               	bcf	3,6	;RP1=0, select bank1
  4347     0F8A  0093               	movwf	19	;volatile
  4348     0F8B                     l1964:
  4349                           
  4350                           ;i2c.c: 21:     SSPEN = 1;
  4351     0F8B  1283               	bcf	3,5	;RP0=0, select bank0
  4352     0F8C  1303               	bcf	3,6	;RP1=0, select bank0
  4353     0F8D  1694               	bsf	20,5	;volatile
  4354     0F8E                     l240:
  4355     0F8E  0008               	return
  4356     0F8F                     __end_of_init_i2c:
  4357                           
  4358                           	psect	text18
  4359     0474                     __ptext18:	
  4360 ;; *************** function ___lldiv *****************
  4361 ;; Defined at:
  4362 ;;		line 5 in file "C:\Program Files\Microchip\xc8\v2.46\pic\sources\c99\common\__lldiv.c"
  4363 ;; Parameters:    Size  Location     Type
  4364 ;;  divisor         4    2[COMMON] unsigned long 
  4365 ;;  dividend        4    6[COMMON] unsigned long 
  4366 ;; Auto vars:     Size  Location     Type
  4367 ;;  quotient        4    0[BANK0 ] unsigned long 
  4368 ;;  counter         1    4[BANK0 ] unsigned char 
  4369 ;; Return value:  Size  Location     Type
  4370 ;;                  4    2[COMMON] unsigned long 
  4371 ;; Registers used:
  4372 ;;		wreg, status,2, status,0, btemp+1
  4373 ;; Tracked objects:
  4374 ;;		On entry : 0/0
  4375 ;;		On exit  : 0/0
  4376 ;;		Unchanged: 0/0
  4377 ;; Data sizes:     COMMON   BANK0   BANK1   BANK3   BANK2
  4378 ;;      Params:         8       0       0       0       0
  4379 ;;      Locals:         0       5       0       0       0
  4380 ;;      Temps:          1       0       0       0       0
  4381 ;;      Totals:         9       5       0       0       0
  4382 ;;Total ram usage:       14 bytes
  4383 ;; Hardware stack levels used: 1
  4384 ;; Hardware stack levels required when called: 1
  4385 ;; This function calls:
  4386 ;;		Nothing
  4387 ;; This function is called by:
  4388 ;;		_init_i2c
  4389 ;;		_init_uart
  4390 ;; This function uses a non-reentrant model
  4391 ;;
  4392                           
  4393     0474                     ___lldiv:	
  4394                           ;psect for function ___lldiv
  4395                           
  4396     0474                     l1848:	
  4397                           ;incstack = 0
  4398                           ; Regs used in ___lldiv: [wreg+status,2+status,0+btemp+1]
  4399                           
  4400     0474  3000               	movlw	0
  4401     0475  1283               	bcf	3,5	;RP0=0, select bank0
  4402     0476  1303               	bcf	3,6	;RP1=0, select bank0
  4403     0477  00C3               	movwf	___lldiv@quotient+3
  4404     0478  3000               	movlw	0
  4405     0479  00C2               	movwf	___lldiv@quotient+2
  4406     047A  3000               	movlw	0
  4407     047B  00C1               	movwf	___lldiv@quotient+1
  4408     047C  3000               	movlw	0
  4409     047D  00C0               	movwf	___lldiv@quotient
  4410     047E  0875               	movf	___lldiv@divisor+3,w
  4411     047F  0474               	iorwf	___lldiv@divisor+2,w
  4412     0480  0473               	iorwf	___lldiv@divisor+1,w
  4413     0481  0472               	iorwf	___lldiv@divisor,w
  4414     0482  1903               	skipnz
  4415     0483  2C85               	goto	u1111
  4416     0484  2C86               	goto	u1110
  4417     0485                     u1111:
  4418     0485  2CD3               	goto	l1870
  4419     0486                     u1110:
  4420     0486                     l1850:
  4421     0486  01C4               	clrf	___lldiv@counter
  4422     0487  0AC4               	incf	___lldiv@counter,f
  4423     0488  2C96               	goto	l1856
  4424     0489                     l1852:
  4425     0489  3001               	movlw	1
  4426     048A  00FA               	movwf	??___lldiv
  4427     048B                     u1125:
  4428     048B  1003               	clrc
  4429     048C  0DF2               	rlf	___lldiv@divisor,f
  4430     048D  0DF3               	rlf	___lldiv@divisor+1,f
  4431     048E  0DF4               	rlf	___lldiv@divisor+2,f
  4432     048F  0DF5               	rlf	___lldiv@divisor+3,f
  4433     0490  0BFA               	decfsz	??___lldiv,f
  4434     0491  2C8B               	goto	u1125
  4435     0492                     l1854:
  4436     0492  3001               	movlw	1
  4437     0493  00FF               	movwf	btemp+1
  4438     0494  087F               	movf	btemp+1,w
  4439     0495  07C4               	addwf	___lldiv@counter,f
  4440     0496                     l1856:
  4441     0496  1FF5               	btfss	___lldiv@divisor+3,7
  4442     0497  2C99               	goto	u1131
  4443     0498  2C9A               	goto	u1130
  4444     0499                     u1131:
  4445     0499  2C89               	goto	l1852
  4446     049A                     u1130:
  4447     049A                     l1858:
  4448     049A  3001               	movlw	1
  4449     049B  00FA               	movwf	??___lldiv
  4450     049C                     u1145:
  4451     049C  1003               	clrc
  4452     049D  0DC0               	rlf	___lldiv@quotient,f
  4453     049E  0DC1               	rlf	___lldiv@quotient+1,f
  4454     049F  0DC2               	rlf	___lldiv@quotient+2,f
  4455     04A0  0DC3               	rlf	___lldiv@quotient+3,f
  4456     04A1  0BFA               	decfsz	??___lldiv,f
  4457     04A2  2C9C               	goto	u1145
  4458     04A3                     l1860:
  4459     04A3  0875               	movf	___lldiv@divisor+3,w
  4460     04A4  0279               	subwf	___lldiv@dividend+3,w
  4461     04A5  1D03               	skipz
  4462     04A6  2CB1               	goto	u1155
  4463     04A7  0874               	movf	___lldiv@divisor+2,w
  4464     04A8  0278               	subwf	___lldiv@dividend+2,w
  4465     04A9  1D03               	skipz
  4466     04AA  2CB1               	goto	u1155
  4467     04AB  0873               	movf	___lldiv@divisor+1,w
  4468     04AC  0277               	subwf	___lldiv@dividend+1,w
  4469     04AD  1D03               	skipz
  4470     04AE  2CB1               	goto	u1155
  4471     04AF  0872               	movf	___lldiv@divisor,w
  4472     04B0  0276               	subwf	___lldiv@dividend,w
  4473     04B1                     u1155:
  4474     04B1  1C03               	skipc
  4475     04B2  2CB4               	goto	u1151
  4476     04B3  2CB5               	goto	u1150
  4477     04B4                     u1151:
  4478     04B4  2CC4               	goto	l1866
  4479     04B5                     u1150:
  4480     04B5                     l1862:
  4481     04B5  0872               	movf	___lldiv@divisor,w
  4482     04B6  02F6               	subwf	___lldiv@dividend,f
  4483     04B7  0873               	movf	___lldiv@divisor+1,w
  4484     04B8  1C03               	skipc
  4485     04B9  0F73               	incfsz	___lldiv@divisor+1,w
  4486     04BA  02F7               	subwf	___lldiv@dividend+1,f
  4487     04BB  0874               	movf	___lldiv@divisor+2,w
  4488     04BC  1C03               	skipc
  4489     04BD  0F74               	incfsz	___lldiv@divisor+2,w
  4490     04BE  02F8               	subwf	___lldiv@dividend+2,f
  4491     04BF  0875               	movf	___lldiv@divisor+3,w
  4492     04C0  1C03               	skipc
  4493     04C1  0F75               	incfsz	___lldiv@divisor+3,w
  4494     04C2  02F9               	subwf	___lldiv@dividend+3,f
  4495     04C3                     l1864:
  4496     04C3  1440               	bsf	___lldiv@quotient,0
  4497     04C4                     l1866:
  4498     04C4  3001               	movlw	1
  4499     04C5                     u1165:
  4500     04C5  1003               	clrc
  4501     04C6  0CF5               	rrf	___lldiv@divisor+3,f
  4502     04C7  0CF4               	rrf	___lldiv@divisor+2,f
  4503     04C8  0CF3               	rrf	___lldiv@divisor+1,f
  4504     04C9  0CF2               	rrf	___lldiv@divisor,f
  4505     04CA  3EFF               	addlw	-1
  4506     04CB  1D03               	skipz
  4507     04CC  2CC5               	goto	u1165
  4508     04CD                     l1868:
  4509     04CD  3001               	movlw	1
  4510     04CE  02C4               	subwf	___lldiv@counter,f
  4511     04CF  1D03               	btfss	3,2
  4512     04D0  2CD2               	goto	u1171
  4513     04D1  2CD3               	goto	u1170
  4514     04D2                     u1171:
  4515     04D2  2C9A               	goto	l1858
  4516     04D3                     u1170:
  4517     04D3                     l1870:
  4518     04D3  0843               	movf	___lldiv@quotient+3,w
  4519     04D4  00F5               	movwf	?___lldiv+3
  4520     04D5  0842               	movf	___lldiv@quotient+2,w
  4521     04D6  00F4               	movwf	?___lldiv+2
  4522     04D7  0841               	movf	___lldiv@quotient+1,w
  4523     04D8  00F3               	movwf	?___lldiv+1
  4524     04D9  0840               	movf	___lldiv@quotient,w
  4525     04DA  00F2               	movwf	?___lldiv
  4526     04DB                     l537:
  4527     04DB  0008               	return
  4528     04DC                     __end_of___lldiv:
  4529                           
  4530                           	psect	text19
  4531     0D55                     __ptext19:	
  4532 ;; *************** function _init_ds1307 *****************
  4533 ;; Defined at:
  4534 ;;		line 12 in file "ds1307.c"
  4535 ;; Parameters:    Size  Location     Type
  4536 ;;		None
  4537 ;; Auto vars:     Size  Location     Type
  4538 ;;  dummy           1    6[COMMON] unsigned char 
  4539 ;; Return value:  Size  Location     Type
  4540 ;;                  1    wreg      void 
  4541 ;; Registers used:
  4542 ;;		wreg, status,2, status,0, pclath, cstack
  4543 ;; Tracked objects:
  4544 ;;		On entry : 0/0
  4545 ;;		On exit  : 0/0
  4546 ;;		Unchanged: 0/0
  4547 ;; Data sizes:     COMMON   BANK0   BANK1   BANK3   BANK2
  4548 ;;      Params:         0       0       0       0       0
  4549 ;;      Locals:         1       0       0       0       0
  4550 ;;      Temps:          0       0       0       0       0
  4551 ;;      Totals:         1       0       0       0       0
  4552 ;;Total ram usage:        1 bytes
  4553 ;; Hardware stack levels used: 1
  4554 ;; Hardware stack levels required when called: 5
  4555 ;; This function calls:
  4556 ;;		_read_ds1307
  4557 ;;		_write_ds1307
  4558 ;; This function is called by:
  4559 ;;		_init_config
  4560 ;; This function uses a non-reentrant model
  4561 ;;
  4562                           
  4563     0D55                     _init_ds1307:	
  4564                           ;psect for function _init_ds1307
  4565                           
  4566     0D55                     l2610:	
  4567                           ;incstack = 0
  4568                           ; Regs used in _init_ds1307: [wreg+status,2+status,0+pclath+cstack]
  4569                           
  4570                           
  4571                           ;ds1307.c: 14:     unsigned char dummy;;ds1307.c: 16:     dummy = read_ds1307(0x00);
  4572     0D55  3000               	movlw	0
  4573     0D56  120A  158A  264E  120A  158A  	fcall	_read_ds1307
  4574     0D5B  00F6               	movwf	init_ds1307@dummy
  4575     0D5C                     l2612:
  4576                           
  4577                           ;ds1307.c: 17:     dummy = dummy & 0x7F;
  4578     0D5C  0876               	movf	init_ds1307@dummy,w
  4579     0D5D  397F               	andlw	127
  4580     0D5E  00F6               	movwf	init_ds1307@dummy
  4581     0D5F                     l2614:
  4582                           
  4583                           ;ds1307.c: 18:     write_ds1307(0x00, dummy);
  4584     0D5F  0876               	movf	init_ds1307@dummy,w
  4585     0D60  00F3               	movwf	write_ds1307@data
  4586     0D61  3000               	movlw	0
  4587     0D62  120A  158A  25C0  120A  158A  	fcall	_write_ds1307
  4588     0D67                     l176:
  4589     0D67  0008               	return
  4590     0D68                     __end_of_init_ds1307:
  4591                           
  4592                           	psect	text20
  4593     0DC0                     __ptext20:	
  4594 ;; *************** function _write_ds1307 *****************
  4595 ;; Defined at:
  4596 ;;		line 36 in file "ds1307.c"
  4597 ;; Parameters:    Size  Location     Type
  4598 ;;  addr            1    wreg     unsigned char 
  4599 ;;  data            1    3[COMMON] unsigned char 
  4600 ;; Auto vars:     Size  Location     Type
  4601 ;;  addr            1    4[COMMON] unsigned char 
  4602 ;; Return value:  Size  Location     Type
  4603 ;;                  1    wreg      void 
  4604 ;; Registers used:
  4605 ;;		wreg, status,2, status,0, pclath, cstack
  4606 ;; Tracked objects:
  4607 ;;		On entry : 0/0
  4608 ;;		On exit  : 0/0
  4609 ;;		Unchanged: 0/0
  4610 ;; Data sizes:     COMMON   BANK0   BANK1   BANK3   BANK2
  4611 ;;      Params:         1       0       0       0       0
  4612 ;;      Locals:         1       0       0       0       0
  4613 ;;      Temps:          0       0       0       0       0
  4614 ;;      Totals:         2       0       0       0       0
  4615 ;;Total ram usage:        2 bytes
  4616 ;; Hardware stack levels used: 1
  4617 ;; Hardware stack levels required when called: 3
  4618 ;; This function calls:
  4619 ;;		_i2c_start
  4620 ;;		_i2c_stop
  4621 ;;		_i2c_write
  4622 ;; This function is called by:
  4623 ;;		_init_ds1307
  4624 ;; This function uses a non-reentrant model
  4625 ;;
  4626                           
  4627     0DC0                     _write_ds1307:	
  4628                           ;psect for function _write_ds1307
  4629                           
  4630                           
  4631                           ;incstack = 0
  4632                           ; Regs used in _write_ds1307: [wreg+status,2+status,0+pclath+cstack]
  4633                           ;write_ds1307@addr stored from wreg
  4634     0DC0  00F4               	movwf	write_ds1307@addr
  4635     0DC1                     l2538:
  4636                           
  4637                           ;ds1307.c: 36: void write_ds1307(unsigned char addr, unsigned char data);ds1307.c: 37: {
      +                          ;ds1307.c: 38:     i2c_start();
  4638     0DC1  120A  158A  24D5  120A  158A  	fcall	_i2c_start
  4639                           
  4640                           ;ds1307.c: 39:     i2c_write(0b11010000);
  4641     0DC6  30D0               	movlw	208
  4642     0DC7  120A  158A  24F2  120A  158A  	fcall	_i2c_write
  4643                           
  4644                           ;ds1307.c: 40:     i2c_write(addr);
  4645     0DCC  0874               	movf	write_ds1307@addr,w
  4646     0DCD  120A  158A  24F2  120A  158A  	fcall	_i2c_write
  4647                           
  4648                           ;ds1307.c: 41:     i2c_write(data);
  4649     0DD2  0873               	movf	write_ds1307@data,w
  4650     0DD3  120A  158A  24F2  120A  158A  	fcall	_i2c_write
  4651                           
  4652                           ;ds1307.c: 42:     i2c_stop();
  4653     0DD8  120A  158A  24DE  120A  158A  	fcall	_i2c_stop
  4654     0DDD                     l182:
  4655     0DDD  0008               	return
  4656     0DDE                     __end_of_write_ds1307:
  4657                           
  4658                           	psect	text21
  4659     0CC0                     __ptext21:	
  4660 ;; *************** function _init_digital_keypad *****************
  4661 ;; Defined at:
  4662 ;;		line 12 in file "digital_keypad.c"
  4663 ;; Parameters:    Size  Location     Type
  4664 ;;		None
  4665 ;; Auto vars:     Size  Location     Type
  4666 ;;		None
  4667 ;; Return value:  Size  Location     Type
  4668 ;;                  1    wreg      void 
  4669 ;; Registers used:
  4670 ;;		wreg, status,2
  4671 ;; Tracked objects:
  4672 ;;		On entry : 0/0
  4673 ;;		On exit  : 0/0
  4674 ;;		Unchanged: 0/0
  4675 ;; Data sizes:     COMMON   BANK0   BANK1   BANK3   BANK2
  4676 ;;      Params:         0       0       0       0       0
  4677 ;;      Locals:         0       0       0       0       0
  4678 ;;      Temps:          0       0       0       0       0
  4679 ;;      Totals:         0       0       0       0       0
  4680 ;;Total ram usage:        0 bytes
  4681 ;; Hardware stack levels used: 1
  4682 ;; Hardware stack levels required when called: 1
  4683 ;; This function calls:
  4684 ;;		Nothing
  4685 ;; This function is called by:
  4686 ;;		_init_config
  4687 ;; This function uses a non-reentrant model
  4688 ;;
  4689                           
  4690     0CC0                     _init_digital_keypad:	
  4691                           ;psect for function _init_digital_keypad
  4692                           
  4693     0CC0                     l1952:	
  4694                           ;incstack = 0
  4695                           ; Regs used in _init_digital_keypad: [wreg+status,2]
  4696                           
  4697                           
  4698                           ;digital_keypad.c: 15:     TRISB = TRISB | 0x3F;
  4699     0CC0  1683               	bsf	3,5	;RP0=1, select bank1
  4700     0CC1  1303               	bcf	3,6	;RP1=0, select bank1
  4701     0CC2  0806               	movf	6,w	;volatile
  4702     0CC3  383F               	iorlw	63
  4703     0CC4  0086               	movwf	6	;volatile
  4704     0CC5                     l149:
  4705     0CC5  0008               	return
  4706     0CC6                     __end_of_init_digital_keypad:
  4707                           
  4708                           	psect	text22
  4709     0CFD                     __ptext22:	
  4710 ;; *************** function _init_clcd *****************
  4711 ;; Defined at:
  4712 ;;		line 52 in file "clcd.c"
  4713 ;; Parameters:    Size  Location     Type
  4714 ;;		None
  4715 ;; Auto vars:     Size  Location     Type
  4716 ;;		None
  4717 ;; Return value:  Size  Location     Type
  4718 ;;                  1    wreg      void 
  4719 ;; Registers used:
  4720 ;;		wreg, status,2, status,0, pclath, cstack
  4721 ;; Tracked objects:
  4722 ;;		On entry : 0/0
  4723 ;;		On exit  : 0/0
  4724 ;;		Unchanged: 0/0
  4725 ;; Data sizes:     COMMON   BANK0   BANK1   BANK3   BANK2
  4726 ;;      Params:         0       0       0       0       0
  4727 ;;      Locals:         0       0       0       0       0
  4728 ;;      Temps:          0       0       0       0       0
  4729 ;;      Totals:         0       0       0       0       0
  4730 ;;Total ram usage:        0 bytes
  4731 ;; Hardware stack levels used: 1
  4732 ;; Hardware stack levels required when called: 3
  4733 ;; This function calls:
  4734 ;;		_init_display_controller
  4735 ;; This function is called by:
  4736 ;;		_init_config
  4737 ;; This function uses a non-reentrant model
  4738 ;;
  4739                           
  4740     0CFD                     _init_clcd:	
  4741                           ;psect for function _init_clcd
  4742                           
  4743     0CFD                     l2602:	
  4744                           ;incstack = 0
  4745                           ; Regs used in _init_clcd: [wreg+status,2+status,0+pclath+cstack]
  4746                           
  4747                           
  4748                           ;clcd.c: 55:     TRISD = 0x00;
  4749     0CFD  1683               	bsf	3,5	;RP0=1, select bank1
  4750     0CFE  1303               	bcf	3,6	;RP1=0, select bank1
  4751     0CFF  0188               	clrf	8	;volatile
  4752     0D00                     l2604:
  4753                           
  4754                           ;clcd.c: 58:     TRISE2 = 0;
  4755     0D00  1109               	bcf	9,2	;volatile
  4756     0D01                     l2606:
  4757                           
  4758                           ;clcd.c: 59:     TRISE1 = 0;
  4759     0D01  1089               	bcf	9,1	;volatile
  4760     0D02                     l2608:
  4761                           
  4762                           ;clcd.c: 61:     init_display_controller();
  4763     0D02  120A  118A  2543  120A  158A  	fcall	_init_display_controller
  4764     0D07                     l133:
  4765     0D07  0008               	return
  4766     0D08                     __end_of_init_clcd:
  4767                           
  4768                           	psect	text23
  4769     0543                     __ptext23:	
  4770 ;; *************** function _init_display_controller *****************
  4771 ;; Defined at:
  4772 ;;		line 29 in file "clcd.c"
  4773 ;; Parameters:    Size  Location     Type
  4774 ;;		None
  4775 ;; Auto vars:     Size  Location     Type
  4776 ;;		None
  4777 ;; Return value:  Size  Location     Type
  4778 ;;                  1    wreg      void 
  4779 ;; Registers used:
  4780 ;;		wreg, status,2, status,0, pclath, cstack
  4781 ;; Tracked objects:
  4782 ;;		On entry : 0/0
  4783 ;;		On exit  : 0/0
  4784 ;;		Unchanged: 0/0
  4785 ;; Data sizes:     COMMON   BANK0   BANK1   BANK3   BANK2
  4786 ;;      Params:         0       0       0       0       0
  4787 ;;      Locals:         0       0       0       0       0
  4788 ;;      Temps:          2       0       0       0       0
  4789 ;;      Totals:         2       0       0       0       0
  4790 ;;Total ram usage:        2 bytes
  4791 ;; Hardware stack levels used: 1
  4792 ;; Hardware stack levels required when called: 2
  4793 ;; This function calls:
  4794 ;;		_clcd_write
  4795 ;; This function is called by:
  4796 ;;		_init_clcd
  4797 ;; This function uses a non-reentrant model
  4798 ;;
  4799                           
  4800     0543                     _init_display_controller:	
  4801                           ;psect for function _init_display_controller
  4802                           
  4803     0543                     l2514:	
  4804                           ;incstack = 0
  4805                           ; Regs used in _init_display_controller: [wreg+status,2+status,0+pclath+cstack]
  4806                           
  4807                           
  4808                           ;clcd.c: 32:     _delay((unsigned long)((30)*(20000000/4000.0)));
  4809     0543  30C3               	movlw	195
  4810     0544  00F7               	movwf	??_init_display_controller+1
  4811     0545  30CD               	movlw	205
  4812     0546  00F6               	movwf	??_init_display_controller
  4813     0547                     u2617:
  4814     0547  0BF6               	decfsz	??_init_display_controller,f
  4815     0548  2D47               	goto	u2617
  4816     0549  0BF7               	decfsz	??_init_display_controller+1,f
  4817     054A  2D47               	goto	u2617
  4818     054B                     l2516:
  4819                           
  4820                           ;clcd.c: 35:     clcd_write(0x33, 0);
  4821     054B  01F2               	clrf	clcd_write@mode
  4822     054C  3033               	movlw	51
  4823     054D  120A  158A  278F  120A  118A  	fcall	_clcd_write
  4824     0552                     l2518:
  4825                           
  4826                           ;clcd.c: 36:     _delay((unsigned long)((4100)*(20000000/4000000.0)));
  4827     0552  301B               	movlw	27
  4828     0553  00F7               	movwf	??_init_display_controller+1
  4829     0554  309E               	movlw	158
  4830     0555  00F6               	movwf	??_init_display_controller
  4831     0556                     u2627:
  4832     0556  0BF6               	decfsz	??_init_display_controller,f
  4833     0557  2D56               	goto	u2627
  4834     0558  0BF7               	decfsz	??_init_display_controller+1,f
  4835     0559  2D56               	goto	u2627
  4836     055A  0000               	nop
  4837                           
  4838                           ;clcd.c: 37:     clcd_write(0x33, 0);
  4839     055B  01F2               	clrf	clcd_write@mode
  4840     055C  3033               	movlw	51
  4841     055D  120A  158A  278F  120A  118A  	fcall	_clcd_write
  4842     0562                     l2520:
  4843                           
  4844                           ;clcd.c: 38:     _delay((unsigned long)((100)*(20000000/4000000.0)));
  4845     0562  30A6               	movlw	166
  4846     0563  00F6               	movwf	??_init_display_controller
  4847     0564                     u2637:
  4848     0564  0BF6               	decfsz	??_init_display_controller,f
  4849     0565  2D64               	goto	u2637
  4850     0566  0000               	nop
  4851     0567                     l2522:
  4852                           
  4853                           ;clcd.c: 39:     clcd_write(0x33, 0);
  4854     0567  01F2               	clrf	clcd_write@mode
  4855     0568  3033               	movlw	51
  4856     0569  120A  158A  278F  120A  118A  	fcall	_clcd_write
  4857     056E                     l2524:
  4858                           
  4859                           ;clcd.c: 40:     _delay((unsigned long)((1)*(20000000/4000000.0)));
  4860     056E  2D6F               	nop2	;2 cycle nop
  4861     056F  2D70               	nop2	;2 cycle nop
  4862     0570  0000               	nop
  4863     0571                     l2526:
  4864                           
  4865                           ;clcd.c: 42:     clcd_write(0x02, 0);
  4866     0571  01F2               	clrf	clcd_write@mode
  4867     0572  3002               	movlw	2
  4868     0573  120A  158A  278F  120A  118A  	fcall	_clcd_write
  4869     0578                     l2528:
  4870                           
  4871                           ;clcd.c: 43:     _delay((unsigned long)((100)*(20000000/4000000.0)));
  4872     0578  30A6               	movlw	166
  4873     0579  00F6               	movwf	??_init_display_controller
  4874     057A                     u2647:
  4875     057A  0BF6               	decfsz	??_init_display_controller,f
  4876     057B  2D7A               	goto	u2647
  4877     057C  0000               	nop
  4878                           
  4879                           ;clcd.c: 44:     clcd_write(0x28, 0);
  4880     057D  01F2               	clrf	clcd_write@mode
  4881     057E  3028               	movlw	40
  4882     057F  120A  158A  278F  120A  118A  	fcall	_clcd_write
  4883     0584                     l2530:
  4884                           
  4885                           ;clcd.c: 45:     _delay((unsigned long)((100)*(20000000/4000000.0)));
  4886     0584  30A6               	movlw	166
  4887     0585  00F6               	movwf	??_init_display_controller
  4888     0586                     u2657:
  4889     0586  0BF6               	decfsz	??_init_display_controller,f
  4890     0587  2D86               	goto	u2657
  4891     0588  0000               	nop
  4892     0589                     l2532:
  4893                           
  4894                           ;clcd.c: 46:     clcd_write(0x01, 0);
  4895     0589  01F2               	clrf	clcd_write@mode
  4896     058A  3001               	movlw	1
  4897     058B  120A  158A  278F  120A  118A  	fcall	_clcd_write
  4898                           
  4899                           ;clcd.c: 47:     _delay((unsigned long)((500)*(20000000/4000000.0)));
  4900     0590  3004               	movlw	4
  4901     0591  00F7               	movwf	??_init_display_controller+1
  4902     0592  303D               	movlw	61
  4903     0593  00F6               	movwf	??_init_display_controller
  4904     0594                     u2667:
  4905     0594  0BF6               	decfsz	??_init_display_controller,f
  4906     0595  2D94               	goto	u2667
  4907     0596  0BF7               	decfsz	??_init_display_controller+1,f
  4908     0597  2D94               	goto	u2667
  4909     0598  2D99               	nop2
  4910     0599                     l2534:
  4911                           
  4912                           ;clcd.c: 48:     clcd_write(0x0C, 0);
  4913     0599  01F2               	clrf	clcd_write@mode
  4914     059A  300C               	movlw	12
  4915     059B  120A  158A  278F  120A  118A  	fcall	_clcd_write
  4916     05A0                     l2536:
  4917                           
  4918                           ;clcd.c: 49:     _delay((unsigned long)((100)*(20000000/4000000.0)));
  4919     05A0  30A6               	movlw	166
  4920     05A1  00F6               	movwf	??_init_display_controller
  4921     05A2                     u2677:
  4922     05A2  0BF6               	decfsz	??_init_display_controller,f
  4923     05A3  2DA2               	goto	u2677
  4924     05A4  0000               	nop
  4925     05A5                     l130:
  4926     05A5  0008               	return
  4927     05A6                     __end_of_init_display_controller:
  4928                           
  4929                           	psect	text24
  4930     0CC6                     __ptext24:	
  4931 ;; *************** function _init_adc *****************
  4932 ;; Defined at:
  4933 ;;		line 11 in file "adc.c"
  4934 ;; Parameters:    Size  Location     Type
  4935 ;;		None
  4936 ;; Auto vars:     Size  Location     Type
  4937 ;;		None
  4938 ;; Return value:  Size  Location     Type
  4939 ;;                  1    wreg      void 
  4940 ;; Registers used:
  4941 ;;		None
  4942 ;; Tracked objects:
  4943 ;;		On entry : 0/0
  4944 ;;		On exit  : 0/0
  4945 ;;		Unchanged: 0/0
  4946 ;; Data sizes:     COMMON   BANK0   BANK1   BANK3   BANK2
  4947 ;;      Params:         0       0       0       0       0
  4948 ;;      Locals:         0       0       0       0       0
  4949 ;;      Temps:          0       0       0       0       0
  4950 ;;      Totals:         0       0       0       0       0
  4951 ;;Total ram usage:        0 bytes
  4952 ;; Hardware stack levels used: 1
  4953 ;; Hardware stack levels required when called: 1
  4954 ;; This function calls:
  4955 ;;		Nothing
  4956 ;; This function is called by:
  4957 ;;		_init_config
  4958 ;; This function uses a non-reentrant model
  4959 ;;
  4960                           
  4961     0CC6                     _init_adc:	
  4962                           ;psect for function _init_adc
  4963                           
  4964     0CC6                     l1874:	
  4965                           ;incstack = 0
  4966                           ; Regs used in _init_adc: []
  4967                           
  4968                           
  4969                           ;adc.c: 14:     ADFM = 1;
  4970     0CC6  1683               	bsf	3,5	;RP0=1, select bank1
  4971     0CC7  1303               	bcf	3,6	;RP1=0, select bank1
  4972     0CC8  179F               	bsf	31,7	;volatile
  4973                           
  4974                           ;adc.c: 17:     ADON = 1;
  4975     0CC9  1283               	bcf	3,5	;RP0=0, select bank0
  4976     0CCA  1303               	bcf	3,6	;RP1=0, select bank0
  4977     0CCB  141F               	bsf	31,0	;volatile
  4978     0CCC                     l15:
  4979     0CCC  0008               	return
  4980     0CCD                     __end_of_init_adc:
  4981                           
  4982                           	psect	text25
  4983     05FF                     __ptext25:	
  4984 ;; *************** function _display_dashboard *****************
  4985 ;; Defined at:
  4986 ;;		line 48 in file "car_black_box.c"
  4987 ;; Parameters:    Size  Location     Type
  4988 ;;  event           1    wreg     PTR unsigned char 
  4989 ;;		 -> main@event(3), 
  4990 ;;  speed           1    1[BANK0 ] unsigned char 
  4991 ;; Auto vars:     Size  Location     Type
  4992 ;;  event           1    4[BANK0 ] PTR unsigned char 
  4993 ;;		 -> main@event(3), 
  4994 ;; Return value:  Size  Location     Type
  4995 ;;                  1    wreg      void 
  4996 ;; Registers used:
  4997 ;;		wreg, fsr0l, fsr0h, status,2, status,0, btemp+1, pclath, cstack
  4998 ;; Tracked objects:
  4999 ;;		On entry : 0/0
  5000 ;;		On exit  : 0/0
  5001 ;;		Unchanged: 0/0
  5002 ;; Data sizes:     COMMON   BANK0   BANK1   BANK3   BANK2
  5003 ;;      Params:         0       1       0       0       0
  5004 ;;      Locals:         0       1       0       0       0
  5005 ;;      Temps:          0       2       0       0       0
  5006 ;;      Totals:         0       4       0       0       0
  5007 ;;Total ram usage:        4 bytes
  5008 ;; Hardware stack levels used: 1
  5009 ;; Hardware stack levels required when called: 7
  5010 ;; This function calls:
  5011 ;;		___awdiv
  5012 ;;		___awmod
  5013 ;;		_clcd_print
  5014 ;;		_clcd_putch
  5015 ;;		_display_time
  5016 ;; This function is called by:
  5017 ;;		_main
  5018 ;; This function uses a non-reentrant model
  5019 ;;
  5020                           
  5021     05FF                     _display_dashboard:	
  5022                           ;psect for function _display_dashboard
  5023                           
  5024                           
  5025                           ;incstack = 0
  5026                           ; Regs used in _display_dashboard: [wreg-fsr0h+status,2+status,0+btemp+1+pclath+cstack]
  5027                           ;display_dashboard@event stored from wreg
  5028     05FF  1283               	bcf	3,5	;RP0=0, select bank0
  5029     0600  1303               	bcf	3,6	;RP1=0, select bank0
  5030     0601  00C4               	movwf	display_dashboard@event
  5031     0602                     l2698:
  5032                           
  5033                           ;car_black_box.c: 51:     clcd_print("TIME     E  SP", (0x80 + 2));
  5034     0602  3011               	movlw	(low ((STR_6-__stringbase)| (0+32768)))& (0+255)
  5035     0603  00F6               	movwf	clcd_print@str
  5036     0604  3080               	movlw	128
  5037     0605  00F7               	movwf	clcd_print@str+1
  5038     0606  3082               	movlw	130
  5039     0607  00F8               	movwf	clcd_print@addr
  5040     0608  120A  158A  26FC  120A  118A  	fcall	_clcd_print
  5041     060D                     l2700:
  5042                           
  5043                           ;car_black_box.c: 52:     display_time();
  5044     060D  120A  118A  2656  120A  118A  	fcall	_display_time
  5045     0612                     l2702:
  5046                           
  5047                           ;car_black_box.c: 53:     clcd_print(event, (0xC0 + 11));
  5048     0612  1283               	bcf	3,5	;RP0=0, select bank0
  5049     0613  1303               	bcf	3,6	;RP1=0, select bank0
  5050     0614  0844               	movf	display_dashboard@event,w
  5051     0615  00F6               	movwf	clcd_print@str
  5052     0616  3000               	movlw	0
  5053     0617  00F7               	movwf	clcd_print@str+1
  5054     0618  30CB               	movlw	203
  5055     0619  00F8               	movwf	clcd_print@addr
  5056     061A  120A  158A  26FC  120A  118A  	fcall	_clcd_print
  5057     061F                     l2704:
  5058                           
  5059                           ;car_black_box.c: 54:     clcd_putch(speed / 10 + '0', (0xC0 + 14));
  5060     061F  30CE               	movlw	206
  5061     0620  00FA               	movwf	clcd_putch@addr
  5062     0621  300A               	movlw	10
  5063     0622  00F2               	movwf	___awdiv@divisor
  5064     0623  3000               	movlw	0
  5065     0624  00F3               	movwf	___awdiv@divisor+1
  5066     0625  1283               	bcf	3,5	;RP0=0, select bank0
  5067     0626  1303               	bcf	3,6	;RP1=0, select bank0
  5068     0627  0841               	movf	display_dashboard@speed,w
  5069     0628  00C2               	movwf	??_display_dashboard
  5070     0629  01C3               	clrf	??_display_dashboard+1
  5071     062A  0842               	movf	??_display_dashboard,w
  5072     062B  00F4               	movwf	___awdiv@dividend
  5073     062C  0843               	movf	??_display_dashboard+1,w
  5074     062D  00F5               	movwf	___awdiv@dividend+1
  5075     062E  120A  118A  24DC  120A  118A  	fcall	___awdiv
  5076     0633  0872               	movf	?___awdiv,w
  5077     0634  3E30               	addlw	48
  5078     0635  120A  158A  257B  120A  118A  	fcall	_clcd_putch
  5079     063A                     l2706:
  5080                           
  5081                           ;car_black_box.c: 55:     clcd_putch(speed % 10 + '0', (0xC0 + 15));
  5082     063A  30CF               	movlw	207
  5083     063B  00FA               	movwf	clcd_putch@addr
  5084     063C  300A               	movlw	10
  5085     063D  00F2               	movwf	___awmod@divisor
  5086     063E  3000               	movlw	0
  5087     063F  00F3               	movwf	___awmod@divisor+1
  5088     0640  1283               	bcf	3,5	;RP0=0, select bank0
  5089     0641  1303               	bcf	3,6	;RP1=0, select bank0
  5090     0642  0841               	movf	display_dashboard@speed,w
  5091     0643  00C2               	movwf	??_display_dashboard
  5092     0644  01C3               	clrf	??_display_dashboard+1
  5093     0645  0842               	movf	??_display_dashboard,w
  5094     0646  00F4               	movwf	___awmod@dividend
  5095     0647  0843               	movf	??_display_dashboard+1,w
  5096     0648  00F5               	movwf	___awmod@dividend+1
  5097     0649  120A  118A  25A6  120A  118A  	fcall	___awmod
  5098     064E  0872               	movf	?___awmod,w
  5099     064F  3E30               	addlw	48
  5100     0650  120A  158A  257B  120A  118A  	fcall	_clcd_putch
  5101     0655                     l64:
  5102     0655  0008               	return
  5103     0656                     __end_of_display_dashboard:
  5104                           
  5105                           	psect	text26
  5106     0656                     __ptext26:	
  5107 ;; *************** function _display_time *****************
  5108 ;; Defined at:
  5109 ;;		line 35 in file "car_black_box.c"
  5110 ;; Parameters:    Size  Location     Type
  5111 ;;		None
  5112 ;; Auto vars:     Size  Location     Type
  5113 ;;		None
  5114 ;; Return value:  Size  Location     Type
  5115 ;;                  1    wreg      void 
  5116 ;; Registers used:
  5117 ;;		wreg, status,2, status,0, pclath, cstack
  5118 ;; Tracked objects:
  5119 ;;		On entry : 0/0
  5120 ;;		On exit  : 0/0
  5121 ;;		Unchanged: 0/0
  5122 ;; Data sizes:     COMMON   BANK0   BANK1   BANK3   BANK2
  5123 ;;      Params:         0       0       0       0       0
  5124 ;;      Locals:         0       0       0       0       0
  5125 ;;      Temps:          0       0       0       0       0
  5126 ;;      Totals:         0       0       0       0       0
  5127 ;;Total ram usage:        0 bytes
  5128 ;; Hardware stack levels used: 1
  5129 ;; Hardware stack levels required when called: 6
  5130 ;; This function calls:
  5131 ;;		_clcd_putch
  5132 ;;		_get_time
  5133 ;; This function is called by:
  5134 ;;		_display_dashboard
  5135 ;; This function uses a non-reentrant model
  5136 ;;
  5137                           
  5138     0656                     _display_time:	
  5139                           ;psect for function _display_time
  5140                           
  5141     0656                     l2556:	
  5142                           ;incstack = 0
  5143                           ; Regs used in _display_time: [wreg+status,2+status,0+pclath+cstack]
  5144                           
  5145                           
  5146                           ;car_black_box.c: 36:     get_time();
  5147     0656  120A  118A  2748  120A  118A  	fcall	_get_time
  5148                           
  5149                           ;car_black_box.c: 38:     clcd_putch(time[0], (0xC0 + 1));
  5150     065B  30C1               	movlw	193
  5151     065C  00FA               	movwf	clcd_putch@addr
  5152     065D  1283               	bcf	3,5	;RP0=0, select bank0
  5153     065E  1303               	bcf	3,6	;RP1=0, select bank0
  5154     065F  0835               	movf	_time,w
  5155     0660  120A  158A  257B  120A  118A  	fcall	_clcd_putch
  5156                           
  5157                           ;car_black_box.c: 39:     clcd_putch(time[1], (0xC0 + 2));
  5158     0665  30C2               	movlw	194
  5159     0666  00FA               	movwf	clcd_putch@addr
  5160     0667  1283               	bcf	3,5	;RP0=0, select bank0
  5161     0668  1303               	bcf	3,6	;RP1=0, select bank0
  5162     0669  0836               	movf	_time+1,w
  5163     066A  120A  158A  257B  120A  118A  	fcall	_clcd_putch
  5164                           
  5165                           ;car_black_box.c: 40:     clcd_putch(':', (0xC0 + 3));
  5166     066F  30C3               	movlw	195
  5167     0670  00FA               	movwf	clcd_putch@addr
  5168     0671  303A               	movlw	58
  5169     0672  120A  158A  257B  120A  118A  	fcall	_clcd_putch
  5170                           
  5171                           ;car_black_box.c: 41:     clcd_putch(time[2], (0xC0 + 4));
  5172     0677  30C4               	movlw	196
  5173     0678  00FA               	movwf	clcd_putch@addr
  5174     0679  1283               	bcf	3,5	;RP0=0, select bank0
  5175     067A  1303               	bcf	3,6	;RP1=0, select bank0
  5176     067B  0837               	movf	_time+2,w
  5177     067C  120A  158A  257B  120A  118A  	fcall	_clcd_putch
  5178                           
  5179                           ;car_black_box.c: 42:     clcd_putch(time[3], (0xC0 + 5));
  5180     0681  30C5               	movlw	197
  5181     0682  00FA               	movwf	clcd_putch@addr
  5182     0683  1283               	bcf	3,5	;RP0=0, select bank0
  5183     0684  1303               	bcf	3,6	;RP1=0, select bank0
  5184     0685  0838               	movf	_time+3,w
  5185     0686  120A  158A  257B  120A  118A  	fcall	_clcd_putch
  5186                           
  5187                           ;car_black_box.c: 43:     clcd_putch(':', (0xC0 + 6));
  5188     068B  30C6               	movlw	198
  5189     068C  00FA               	movwf	clcd_putch@addr
  5190     068D  303A               	movlw	58
  5191     068E  120A  158A  257B  120A  118A  	fcall	_clcd_putch
  5192                           
  5193                           ;car_black_box.c: 44:     clcd_putch(time[4], (0xC0 + 7));
  5194     0693  30C7               	movlw	199
  5195     0694  00FA               	movwf	clcd_putch@addr
  5196     0695  1283               	bcf	3,5	;RP0=0, select bank0
  5197     0696  1303               	bcf	3,6	;RP1=0, select bank0
  5198     0697  0839               	movf	_time+4,w
  5199     0698  120A  158A  257B  120A  118A  	fcall	_clcd_putch
  5200                           
  5201                           ;car_black_box.c: 45:     clcd_putch(time[5], (0xC0 + 8));
  5202     069D  30C8               	movlw	200
  5203     069E  00FA               	movwf	clcd_putch@addr
  5204     069F  1283               	bcf	3,5	;RP0=0, select bank0
  5205     06A0  1303               	bcf	3,6	;RP1=0, select bank0
  5206     06A1  083A               	movf	_time+5,w
  5207     06A2  120A  158A  257B  120A  118A  	fcall	_clcd_putch
  5208     06A7                     l61:
  5209     06A7  0008               	return
  5210     06A8                     __end_of_display_time:
  5211                           
  5212                           	psect	text27
  5213     0748                     __ptext27:	
  5214 ;; *************** function _get_time *****************
  5215 ;; Defined at:
  5216 ;;		line 16 in file "car_black_box.c"
  5217 ;; Parameters:    Size  Location     Type
  5218 ;;		None
  5219 ;; Auto vars:     Size  Location     Type
  5220 ;;		None
  5221 ;; Return value:  Size  Location     Type
  5222 ;;                  1    wreg      void 
  5223 ;; Registers used:
  5224 ;;		wreg, status,2, status,0, pclath, cstack
  5225 ;; Tracked objects:
  5226 ;;		On entry : 0/0
  5227 ;;		On exit  : 0/0
  5228 ;;		Unchanged: 0/0
  5229 ;; Data sizes:     COMMON   BANK0   BANK1   BANK3   BANK2
  5230 ;;      Params:         0       0       0       0       0
  5231 ;;      Locals:         0       0       0       0       0
  5232 ;;      Temps:          1       0       0       0       0
  5233 ;;      Totals:         1       0       0       0       0
  5234 ;;Total ram usage:        1 bytes
  5235 ;; Hardware stack levels used: 1
  5236 ;; Hardware stack levels required when called: 5
  5237 ;; This function calls:
  5238 ;;		_read_ds1307
  5239 ;; This function is called by:
  5240 ;;		_display_time
  5241 ;; This function uses a non-reentrant model
  5242 ;;
  5243                           
  5244     0748                     _get_time:	
  5245                           ;psect for function _get_time
  5246                           
  5247     0748                     l2486:	
  5248                           ;incstack = 0
  5249                           ; Regs used in _get_time: [wreg+status,2+status,0+pclath+cstack]
  5250                           
  5251                           
  5252                           ;car_black_box.c: 17:     clock_reg[0] = read_ds1307(0x02);
  5253     0748  3002               	movlw	2
  5254     0749  120A  158A  264E  120A  118A  	fcall	_read_ds1307
  5255     074E  1283               	bcf	3,5	;RP0=0, select bank0
  5256     074F  1303               	bcf	3,6	;RP1=0, select bank0
  5257     0750  00A0               	movwf	_clock_reg
  5258                           
  5259                           ;car_black_box.c: 18:     clock_reg[1] = read_ds1307(0x01);
  5260     0751  3001               	movlw	1
  5261     0752  120A  158A  264E  120A  118A  	fcall	_read_ds1307
  5262     0757  1283               	bcf	3,5	;RP0=0, select bank0
  5263     0758  1303               	bcf	3,6	;RP1=0, select bank0
  5264     0759  00A1               	movwf	_clock_reg+1
  5265                           
  5266                           ;car_black_box.c: 19:     clock_reg[2] = read_ds1307(0x00);
  5267     075A  3000               	movlw	0
  5268     075B  120A  158A  264E  120A  118A  	fcall	_read_ds1307
  5269     0760  1283               	bcf	3,5	;RP0=0, select bank0
  5270     0761  1303               	bcf	3,6	;RP1=0, select bank0
  5271     0762  00A2               	movwf	_clock_reg+2
  5272     0763                     l2488:
  5273                           
  5274                           ;car_black_box.c: 21:     time[0] = ((clock_reg[0] >> 4) & 0x03) + '0';
  5275     0763  0820               	movf	_clock_reg,w
  5276     0764  00F6               	movwf	??_get_time
  5277     0765  3004               	movlw	4
  5278     0766                     u2005:
  5279     0766  1003               	clrc
  5280     0767  0CF6               	rrf	??_get_time,f
  5281     0768  3EFF               	addlw	-1
  5282     0769  1D03               	skipz
  5283     076A  2F66               	goto	u2005
  5284     076B  0876               	movf	??_get_time,w
  5285     076C  3903               	andlw	3
  5286     076D  3E30               	addlw	48
  5287     076E  00B5               	movwf	_time
  5288     076F                     l2490:
  5289                           
  5290                           ;car_black_box.c: 22:     time[1] = (clock_reg[0] & 0x0F) + '0';
  5291     076F  0820               	movf	_clock_reg,w
  5292     0770  390F               	andlw	15
  5293     0771  3E30               	addlw	48
  5294     0772  00B6               	movwf	_time+1
  5295     0773                     l2492:
  5296                           
  5297                           ;car_black_box.c: 26:     time[2] = ((clock_reg[1] >> 4) & 0x07) + '0';
  5298     0773  0821               	movf	_clock_reg+1,w
  5299     0774  00F6               	movwf	??_get_time
  5300     0775  3004               	movlw	4
  5301     0776                     u2015:
  5302     0776  1003               	clrc
  5303     0777  0CF6               	rrf	??_get_time,f
  5304     0778  3EFF               	addlw	-1
  5305     0779  1D03               	skipz
  5306     077A  2F76               	goto	u2015
  5307     077B  0876               	movf	??_get_time,w
  5308     077C  3907               	andlw	7
  5309     077D  3E30               	addlw	48
  5310     077E  00B7               	movwf	_time+2
  5311     077F                     l2494:
  5312                           
  5313                           ;car_black_box.c: 27:     time[3] = (clock_reg[1] & 0x0F) + '0';
  5314     077F  0821               	movf	_clock_reg+1,w
  5315     0780  390F               	andlw	15
  5316     0781  3E30               	addlw	48
  5317     0782  00B8               	movwf	_time+3
  5318     0783                     l2496:
  5319                           
  5320                           ;car_black_box.c: 30:     time[4] = ((clock_reg[2] >> 4) & 0x07) + '0';
  5321     0783  0822               	movf	_clock_reg+2,w
  5322     0784  00F6               	movwf	??_get_time
  5323     0785  3004               	movlw	4
  5324     0786                     u2025:
  5325     0786  1003               	clrc
  5326     0787  0CF6               	rrf	??_get_time,f
  5327     0788  3EFF               	addlw	-1
  5328     0789  1D03               	skipz
  5329     078A  2F86               	goto	u2025
  5330     078B  0876               	movf	??_get_time,w
  5331     078C  3907               	andlw	7
  5332     078D  3E30               	addlw	48
  5333     078E  00B9               	movwf	_time+4
  5334     078F                     l2498:
  5335                           
  5336                           ;car_black_box.c: 31:     time[5] = (clock_reg[2] & 0x0F) + '0';
  5337     078F  0822               	movf	_clock_reg+2,w
  5338     0790  390F               	andlw	15
  5339     0791  3E30               	addlw	48
  5340     0792  00BA               	movwf	_time+5
  5341     0793                     l2500:
  5342                           
  5343                           ;car_black_box.c: 32:     time[6] = '\0';
  5344     0793  01BB               	clrf	_time+6
  5345     0794                     l58:
  5346     0794  0008               	return
  5347     0795                     __end_of_get_time:
  5348                           
  5349                           	psect	text28
  5350     0E4E                     __ptext28:	
  5351 ;; *************** function _read_ds1307 *****************
  5352 ;; Defined at:
  5353 ;;		line 21 in file "ds1307.c"
  5354 ;; Parameters:    Size  Location     Type
  5355 ;;  addr            1    wreg     unsigned char 
  5356 ;; Auto vars:     Size  Location     Type
  5357 ;;  addr            1    4[COMMON] unsigned char 
  5358 ;;  data            1    5[COMMON] unsigned char 
  5359 ;; Return value:  Size  Location     Type
  5360 ;;                  1    wreg      unsigned char 
  5361 ;; Registers used:
  5362 ;;		wreg, status,2, status,0, pclath, cstack
  5363 ;; Tracked objects:
  5364 ;;		On entry : 0/0
  5365 ;;		On exit  : 0/0
  5366 ;;		Unchanged: 0/0
  5367 ;; Data sizes:     COMMON   BANK0   BANK1   BANK3   BANK2
  5368 ;;      Params:         0       0       0       0       0
  5369 ;;      Locals:         2       0       0       0       0
  5370 ;;      Temps:          0       0       0       0       0
  5371 ;;      Totals:         2       0       0       0       0
  5372 ;;Total ram usage:        2 bytes
  5373 ;; Hardware stack levels used: 1
  5374 ;; Hardware stack levels required when called: 4
  5375 ;; This function calls:
  5376 ;;		_i2c_read
  5377 ;;		_i2c_rep_start
  5378 ;;		_i2c_start
  5379 ;;		_i2c_stop
  5380 ;;		_i2c_write
  5381 ;; This function is called by:
  5382 ;;		_get_time
  5383 ;;		_init_ds1307
  5384 ;; This function uses a non-reentrant model
  5385 ;;
  5386                           
  5387     0E4E                     _read_ds1307:	
  5388                           ;psect for function _read_ds1307
  5389                           
  5390                           
  5391                           ;incstack = 0
  5392                           ; Regs used in _read_ds1307: [wreg+status,2+status,0+pclath+cstack]
  5393                           ;read_ds1307@addr stored from wreg
  5394     0E4E  00F4               	movwf	read_ds1307@addr
  5395     0E4F                     l2458:
  5396                           
  5397                           ;ds1307.c: 21: unsigned char read_ds1307(unsigned char addr);ds1307.c: 22: {;ds1307.c: 2
      +                          3:     unsigned char data;;ds1307.c: 25:     i2c_start();
  5398     0E4F  120A  158A  24D5  120A  158A  	fcall	_i2c_start
  5399                           
  5400                           ;ds1307.c: 26:     i2c_write(0b11010000);
  5401     0E54  30D0               	movlw	208
  5402     0E55  120A  158A  24F2  120A  158A  	fcall	_i2c_write
  5403                           
  5404                           ;ds1307.c: 27:     i2c_write(addr);
  5405     0E5A  0874               	movf	read_ds1307@addr,w
  5406     0E5B  120A  158A  24F2  120A  158A  	fcall	_i2c_write
  5407                           
  5408                           ;ds1307.c: 28:     i2c_rep_start();
  5409     0E60  120A  158A  24E7  120A  158A  	fcall	_i2c_rep_start
  5410                           
  5411                           ;ds1307.c: 29:     i2c_write(0b11010001);
  5412     0E65  30D1               	movlw	209
  5413     0E66  120A  158A  24F2  120A  158A  	fcall	_i2c_write
  5414                           
  5415                           ;ds1307.c: 30:     data = i2c_read(0);
  5416     0E6B  3000               	movlw	0
  5417     0E6C  120A  118A  27DB  120A  158A  	fcall	_i2c_read
  5418     0E71  00F5               	movwf	read_ds1307@data
  5419                           
  5420                           ;ds1307.c: 31:     i2c_stop();
  5421     0E72  120A  158A  24DE  120A  158A  	fcall	_i2c_stop
  5422     0E77                     l2460:
  5423                           
  5424                           ;ds1307.c: 33:     return data;
  5425     0E77  0875               	movf	read_ds1307@data,w
  5426     0E78                     l179:
  5427     0E78  0008               	return
  5428     0E79                     __end_of_read_ds1307:
  5429                           
  5430                           	psect	text29
  5431     0CF2                     __ptext29:	
  5432 ;; *************** function _i2c_write *****************
  5433 ;; Defined at:
  5434 ;;		line 73 in file "i2c.c"
  5435 ;; Parameters:    Size  Location     Type
  5436 ;;  data            1    wreg     unsigned char 
  5437 ;; Auto vars:     Size  Location     Type
  5438 ;;  data            1    2[COMMON] unsigned char 
  5439 ;; Return value:  Size  Location     Type
  5440 ;;                  2  167[None  ] int 
  5441 ;; Registers used:
  5442 ;;		wreg, status,2, status,0, pclath, cstack
  5443 ;; Tracked objects:
  5444 ;;		On entry : 0/0
  5445 ;;		On exit  : 0/0
  5446 ;;		Unchanged: 0/0
  5447 ;; Data sizes:     COMMON   BANK0   BANK1   BANK3   BANK2
  5448 ;;      Params:         0       0       0       0       0
  5449 ;;      Locals:         1       0       0       0       0
  5450 ;;      Temps:          0       0       0       0       0
  5451 ;;      Totals:         1       0       0       0       0
  5452 ;;Total ram usage:        1 bytes
  5453 ;; Hardware stack levels used: 1
  5454 ;; Hardware stack levels required when called: 2
  5455 ;; This function calls:
  5456 ;;		_i2c_wait_for_idle
  5457 ;; This function is called by:
  5458 ;;		_read_ds1307
  5459 ;;		_write_ds1307
  5460 ;;		_eeprom_at24c04_read
  5461 ;;		_eeprom_at24c04_byte_write
  5462 ;; This function uses a non-reentrant model
  5463 ;;
  5464                           
  5465     0CF2                     _i2c_write:	
  5466                           ;psect for function _i2c_write
  5467                           
  5468                           
  5469                           ;incstack = 0
  5470                           ; Regs used in _i2c_write: [wreg+status,2+status,0+pclath+cstack]
  5471                           ;i2c_write@data stored from wreg
  5472     0CF2  00F2               	movwf	i2c_write@data
  5473     0CF3                     l2434:
  5474                           
  5475                           ;i2c.c: 73: int i2c_write(unsigned char data);i2c.c: 74: {;i2c.c: 75:     i2c_wait_for_i
      +                          dle();
  5476     0CF3  120A  158A  2508  120A  158A  	fcall	_i2c_wait_for_idle
  5477     0CF8                     l2436:
  5478                           
  5479                           ;i2c.c: 76:     SSPBUF = data;
  5480     0CF8  0872               	movf	i2c_write@data,w
  5481     0CF9  1283               	bcf	3,5	;RP0=0, select bank0
  5482     0CFA  1303               	bcf	3,6	;RP1=0, select bank0
  5483     0CFB  0093               	movwf	19	;volatile
  5484     0CFC                     l2438:
  5485     0CFC                     l263:	
  5486                           ;i2c.c: 78:     return !ACKSTAT;;	Return value of _i2c_write is never used
  5487                           
  5488     0CFC  0008               	return
  5489     0CFD                     __end_of_i2c_write:
  5490                           
  5491                           	psect	text30
  5492     0CE7                     __ptext30:	
  5493 ;; *************** function _i2c_rep_start *****************
  5494 ;; Defined at:
  5495 ;;		line 36 in file "i2c.c"
  5496 ;; Parameters:    Size  Location     Type
  5497 ;;		None
  5498 ;; Auto vars:     Size  Location     Type
  5499 ;;		None
  5500 ;; Return value:  Size  Location     Type
  5501 ;;                  1    wreg      void 
  5502 ;; Registers used:
  5503 ;;		wreg, status,2, status,0, pclath, cstack
  5504 ;; Tracked objects:
  5505 ;;		On entry : 0/0
  5506 ;;		On exit  : 0/0
  5507 ;;		Unchanged: 0/0
  5508 ;; Data sizes:     COMMON   BANK0   BANK1   BANK3   BANK2
  5509 ;;      Params:         0       0       0       0       0
  5510 ;;      Locals:         0       0       0       0       0
  5511 ;;      Temps:          0       0       0       0       0
  5512 ;;      Totals:         0       0       0       0       0
  5513 ;;Total ram usage:        0 bytes
  5514 ;; Hardware stack levels used: 1
  5515 ;; Hardware stack levels required when called: 3
  5516 ;; This function calls:
  5517 ;;		_i2c_start
  5518 ;;		_i2c_stop
  5519 ;; This function is called by:
  5520 ;;		_read_ds1307
  5521 ;;		_eeprom_at24c04_read
  5522 ;; This function uses a non-reentrant model
  5523 ;;
  5524                           
  5525     0CE7                     _i2c_rep_start:	
  5526                           ;psect for function _i2c_rep_start
  5527                           
  5528     0CE7                     l2442:	
  5529                           ;incstack = 0
  5530                           ; Regs used in _i2c_rep_start: [wreg+status,2+status,0+pclath+cstack]
  5531                           
  5532                           
  5533                           ;i2c.c: 38:     i2c_stop();
  5534     0CE7  120A  158A  24DE  120A  158A  	fcall	_i2c_stop
  5535                           
  5536                           ;i2c.c: 39:     i2c_start();
  5537     0CEC  120A  158A  24D5  120A  158A  	fcall	_i2c_start
  5538     0CF1                     l252:
  5539     0CF1  0008               	return
  5540     0CF2                     __end_of_i2c_rep_start:
  5541                           
  5542                           	psect	text31
  5543     0CDE                     __ptext31:	
  5544 ;; *************** function _i2c_stop *****************
  5545 ;; Defined at:
  5546 ;;		line 43 in file "i2c.c"
  5547 ;; Parameters:    Size  Location     Type
  5548 ;;		None
  5549 ;; Auto vars:     Size  Location     Type
  5550 ;;		None
  5551 ;; Return value:  Size  Location     Type
  5552 ;;                  1    wreg      void 
  5553 ;; Registers used:
  5554 ;;		wreg, status,2, status,0, pclath, cstack
  5555 ;; Tracked objects:
  5556 ;;		On entry : 0/0
  5557 ;;		On exit  : 0/0
  5558 ;;		Unchanged: 0/0
  5559 ;; Data sizes:     COMMON   BANK0   BANK1   BANK3   BANK2
  5560 ;;      Params:         0       0       0       0       0
  5561 ;;      Locals:         0       0       0       0       0
  5562 ;;      Temps:          0       0       0       0       0
  5563 ;;      Totals:         0       0       0       0       0
  5564 ;;Total ram usage:        0 bytes
  5565 ;; Hardware stack levels used: 1
  5566 ;; Hardware stack levels required when called: 2
  5567 ;; This function calls:
  5568 ;;		_i2c_wait_for_idle
  5569 ;; This function is called by:
  5570 ;;		_read_ds1307
  5571 ;;		_write_ds1307
  5572 ;;		_eeprom_at24c04_read
  5573 ;;		_eeprom_at24c04_byte_write
  5574 ;;		_i2c_rep_start
  5575 ;; This function uses a non-reentrant model
  5576 ;;
  5577                           
  5578     0CDE                     _i2c_stop:	
  5579                           ;psect for function _i2c_stop
  5580                           
  5581     0CDE                     l2430:	
  5582                           ;incstack = 0
  5583                           ; Regs used in _i2c_stop: [wreg+status,2+status,0+pclath+cstack]
  5584                           
  5585                           
  5586                           ;i2c.c: 45:     i2c_wait_for_idle();
  5587     0CDE  120A  158A  2508  120A  158A  	fcall	_i2c_wait_for_idle
  5588     0CE3                     l2432:
  5589                           
  5590                           ;i2c.c: 46:     PEN = 1;
  5591     0CE3  1683               	bsf	3,5	;RP0=1, select bank1
  5592     0CE4  1303               	bcf	3,6	;RP1=0, select bank1
  5593     0CE5  1511               	bsf	17,2	;volatile
  5594     0CE6                     l255:
  5595     0CE6  0008               	return
  5596     0CE7                     __end_of_i2c_stop:
  5597                           
  5598                           	psect	text32
  5599     0CD5                     __ptext32:	
  5600 ;; *************** function _i2c_start *****************
  5601 ;; Defined at:
  5602 ;;		line 30 in file "i2c.c"
  5603 ;; Parameters:    Size  Location     Type
  5604 ;;		None
  5605 ;; Auto vars:     Size  Location     Type
  5606 ;;		None
  5607 ;; Return value:  Size  Location     Type
  5608 ;;                  1    wreg      void 
  5609 ;; Registers used:
  5610 ;;		wreg, status,2, status,0, pclath, cstack
  5611 ;; Tracked objects:
  5612 ;;		On entry : 0/0
  5613 ;;		On exit  : 0/0
  5614 ;;		Unchanged: 0/0
  5615 ;; Data sizes:     COMMON   BANK0   BANK1   BANK3   BANK2
  5616 ;;      Params:         0       0       0       0       0
  5617 ;;      Locals:         0       0       0       0       0
  5618 ;;      Temps:          0       0       0       0       0
  5619 ;;      Totals:         0       0       0       0       0
  5620 ;;Total ram usage:        0 bytes
  5621 ;; Hardware stack levels used: 1
  5622 ;; Hardware stack levels required when called: 2
  5623 ;; This function calls:
  5624 ;;		_i2c_wait_for_idle
  5625 ;; This function is called by:
  5626 ;;		_read_ds1307
  5627 ;;		_write_ds1307
  5628 ;;		_eeprom_at24c04_read
  5629 ;;		_eeprom_at24c04_byte_write
  5630 ;;		_i2c_rep_start
  5631 ;; This function uses a non-reentrant model
  5632 ;;
  5633                           
  5634     0CD5                     _i2c_start:	
  5635                           ;psect for function _i2c_start
  5636                           
  5637     0CD5                     l2426:	
  5638                           ;incstack = 0
  5639                           ; Regs used in _i2c_start: [wreg+status,2+status,0+pclath+cstack]
  5640                           
  5641                           
  5642                           ;i2c.c: 32:     i2c_wait_for_idle();
  5643     0CD5  120A  158A  2508  120A  158A  	fcall	_i2c_wait_for_idle
  5644     0CDA                     l2428:
  5645                           
  5646                           ;i2c.c: 33:     SEN = 1;
  5647     0CDA  1683               	bsf	3,5	;RP0=1, select bank1
  5648     0CDB  1303               	bcf	3,6	;RP1=0, select bank1
  5649     0CDC  1411               	bsf	17,0	;volatile
  5650     0CDD                     l249:
  5651     0CDD  0008               	return
  5652     0CDE                     __end_of_i2c_start:
  5653                           
  5654                           	psect	text33
  5655     07DB                     __ptext33:	
  5656 ;; *************** function _i2c_read *****************
  5657 ;; Defined at:
  5658 ;;		line 49 in file "i2c.c"
  5659 ;; Parameters:    Size  Location     Type
  5660 ;;  ack             1    wreg     unsigned char 
  5661 ;; Auto vars:     Size  Location     Type
  5662 ;;  ack             1    2[COMMON] unsigned char 
  5663 ;;  data            1    3[COMMON] unsigned char 
  5664 ;; Return value:  Size  Location     Type
  5665 ;;                  1    wreg      unsigned char 
  5666 ;; Registers used:
  5667 ;;		wreg, status,2, status,0, pclath, cstack
  5668 ;; Tracked objects:
  5669 ;;		On entry : 0/0
  5670 ;;		On exit  : 0/0
  5671 ;;		Unchanged: 0/0
  5672 ;; Data sizes:     COMMON   BANK0   BANK1   BANK3   BANK2
  5673 ;;      Params:         0       0       0       0       0
  5674 ;;      Locals:         2       0       0       0       0
  5675 ;;      Temps:          0       0       0       0       0
  5676 ;;      Totals:         2       0       0       0       0
  5677 ;;Total ram usage:        2 bytes
  5678 ;; Hardware stack levels used: 1
  5679 ;; Hardware stack levels required when called: 2
  5680 ;; This function calls:
  5681 ;;		_i2c_wait_for_idle
  5682 ;; This function is called by:
  5683 ;;		_read_ds1307
  5684 ;;		_eeprom_at24c04_read
  5685 ;; This function uses a non-reentrant model
  5686 ;;
  5687                           
  5688     07DB                     _i2c_read:	
  5689                           ;psect for function _i2c_read
  5690                           
  5691                           
  5692                           ;incstack = 0
  5693                           ; Regs used in _i2c_read: [wreg+status,2+status,0+pclath+cstack]
  5694                           ;i2c_read@ack stored from wreg
  5695     07DB  00F2               	movwf	i2c_read@ack
  5696     07DC                     l2444:
  5697                           
  5698                           ;i2c.c: 49: unsigned char i2c_read(unsigned char ack);i2c.c: 50: {;i2c.c: 51:     unsign
      +                          ed char data;;i2c.c: 53:     i2c_wait_for_idle();
  5699     07DC  120A  158A  2508  120A  118A  	fcall	_i2c_wait_for_idle
  5700     07E1                     l2446:
  5701                           
  5702                           ;i2c.c: 54:     RCEN = 1;
  5703     07E1  1683               	bsf	3,5	;RP0=1, select bank1
  5704     07E2  1303               	bcf	3,6	;RP1=0, select bank1
  5705     07E3  1591               	bsf	17,3	;volatile
  5706                           
  5707                           ;i2c.c: 56:     i2c_wait_for_idle();
  5708     07E4  120A  158A  2508  120A  118A  	fcall	_i2c_wait_for_idle
  5709     07E9                     l2448:
  5710                           
  5711                           ;i2c.c: 57:     data = SSPBUF;
  5712     07E9  1283               	bcf	3,5	;RP0=0, select bank0
  5713     07EA  1303               	bcf	3,6	;RP1=0, select bank0
  5714     07EB  0813               	movf	19,w	;volatile
  5715     07EC  00F3               	movwf	i2c_read@data
  5716     07ED                     l2450:
  5717                           
  5718                           ;i2c.c: 59:     if (ack == 1)
  5719     07ED  0372               	decf	i2c_read@ack,w
  5720     07EE  1D03               	btfss	3,2
  5721     07EF  2FF1               	goto	u1961
  5722     07F0  2FF2               	goto	u1960
  5723     07F1                     u1961:
  5724     07F1  2FF6               	goto	l258
  5725     07F2                     u1960:
  5726     07F2                     l2452:
  5727                           
  5728                           ;i2c.c: 60:     {;i2c.c: 61:         ACKDT = 1;
  5729     07F2  1683               	bsf	3,5	;RP0=1, select bank1
  5730     07F3  1303               	bcf	3,6	;RP1=0, select bank1
  5731     07F4  1691               	bsf	17,5	;volatile
  5732                           
  5733                           ;i2c.c: 62:     }
  5734     07F5  2FF9               	goto	l259
  5735     07F6                     l258:	
  5736                           ;i2c.c: 63:     else
  5737                           
  5738                           
  5739                           ;i2c.c: 64:     {;i2c.c: 65:         ACKDT = 0;
  5740     07F6  1683               	bsf	3,5	;RP0=1, select bank1
  5741     07F7  1303               	bcf	3,6	;RP1=0, select bank1
  5742     07F8  1291               	bcf	17,5	;volatile
  5743     07F9                     l259:	
  5744                           ;i2c.c: 66:     }
  5745                           
  5746                           
  5747                           ;i2c.c: 68:     ACKEN = 1;
  5748     07F9  1611               	bsf	17,4	;volatile
  5749     07FA                     l2454:
  5750                           
  5751                           ;i2c.c: 70:     return data;
  5752     07FA  0873               	movf	i2c_read@data,w
  5753     07FB                     l260:
  5754     07FB  0008               	return
  5755     07FC                     __end_of_i2c_read:
  5756                           
  5757                           	psect	text34
  5758     0D08                     __ptext34:	
  5759 ;; *************** function _i2c_wait_for_idle *****************
  5760 ;; Defined at:
  5761 ;;		line 24 in file "i2c.c"
  5762 ;; Parameters:    Size  Location     Type
  5763 ;;		None
  5764 ;; Auto vars:     Size  Location     Type
  5765 ;;		None
  5766 ;; Return value:  Size  Location     Type
  5767 ;;                  1    wreg      void 
  5768 ;; Registers used:
  5769 ;;		wreg, status,2
  5770 ;; Tracked objects:
  5771 ;;		On entry : 0/0
  5772 ;;		On exit  : 0/0
  5773 ;;		Unchanged: 0/0
  5774 ;; Data sizes:     COMMON   BANK0   BANK1   BANK3   BANK2
  5775 ;;      Params:         0       0       0       0       0
  5776 ;;      Locals:         0       0       0       0       0
  5777 ;;      Temps:          0       0       0       0       0
  5778 ;;      Totals:         0       0       0       0       0
  5779 ;;Total ram usage:        0 bytes
  5780 ;; Hardware stack levels used: 1
  5781 ;; Hardware stack levels required when called: 1
  5782 ;; This function calls:
  5783 ;;		Nothing
  5784 ;; This function is called by:
  5785 ;;		_i2c_start
  5786 ;;		_i2c_stop
  5787 ;;		_i2c_read
  5788 ;;		_i2c_write
  5789 ;; This function uses a non-reentrant model
  5790 ;;
  5791                           
  5792     0D08                     _i2c_wait_for_idle:	
  5793                           ;psect for function _i2c_wait_for_idle
  5794                           
  5795     0D08                     l2422:	
  5796                           ;incstack = 0
  5797                           ; Regs used in _i2c_wait_for_idle: [wreg+status,2]
  5798                           
  5799     0D08                     l243:	
  5800                           ;i2c.c: 27:     while (R_nW || (SSPCON2 & 0x1F));
  5801                           
  5802     0D08  1683               	bsf	3,5	;RP0=1, select bank1
  5803     0D09  1303               	bcf	3,6	;RP1=0, select bank1
  5804     0D0A  1914               	btfsc	20,2	;volatile
  5805     0D0B  2D0D               	goto	u1941
  5806     0D0C  2D0E               	goto	u1940
  5807     0D0D                     u1941:
  5808     0D0D  2D08               	goto	l243
  5809     0D0E                     u1940:
  5810     0D0E                     l2424:
  5811     0D0E  0811               	movf	17,w	;volatile
  5812     0D0F  391F               	andlw	31
  5813     0D10  1D03               	btfss	3,2
  5814     0D11  2D13               	goto	u1951
  5815     0D12  2D14               	goto	u1950
  5816     0D13                     u1951:
  5817     0D13  2D08               	goto	l243
  5818     0D14                     u1950:
  5819     0D14                     l246:
  5820     0D14  0008               	return
  5821     0D15                     __end_of_i2c_wait_for_idle:
  5822                           
  5823                           	psect	text35
  5824     0D7B                     __ptext35:	
  5825 ;; *************** function _clcd_putch *****************
  5826 ;; Defined at:
  5827 ;;		line 64 in file "clcd.c"
  5828 ;; Parameters:    Size  Location     Type
  5829 ;;  data            1    wreg     const unsigned char 
  5830 ;;  addr            1   10[COMMON] unsigned char 
  5831 ;; Auto vars:     Size  Location     Type
  5832 ;;  data            1    0[BANK0 ] const unsigned char 
  5833 ;; Return value:  Size  Location     Type
  5834 ;;                  1    wreg      void 
  5835 ;; Registers used:
  5836 ;;		wreg, status,2, status,0, pclath, cstack
  5837 ;; Tracked objects:
  5838 ;;		On entry : 0/0
  5839 ;;		On exit  : 0/0
  5840 ;;		Unchanged: 0/0
  5841 ;; Data sizes:     COMMON   BANK0   BANK1   BANK3   BANK2
  5842 ;;      Params:         1       0       0       0       0
  5843 ;;      Locals:         0       1       0       0       0
  5844 ;;      Temps:          0       0       0       0       0
  5845 ;;      Totals:         1       1       0       0       0
  5846 ;;Total ram usage:        2 bytes
  5847 ;; Hardware stack levels used: 1
  5848 ;; Hardware stack levels required when called: 2
  5849 ;; This function calls:
  5850 ;;		_clcd_write
  5851 ;; This function is called by:
  5852 ;;		_display_time
  5853 ;;		_display_dashboard
  5854 ;;		_menu_screen
  5855 ;;		_login
  5856 ;; This function uses a non-reentrant model
  5857 ;;
  5858                           
  5859     0D7B                     _clcd_putch:	
  5860                           ;psect for function _clcd_putch
  5861                           
  5862                           
  5863                           ;incstack = 0
  5864                           ; Regs used in _clcd_putch: [wreg+status,2+status,0+pclath+cstack]
  5865                           ;clcd_putch@data stored from wreg
  5866     0D7B  1283               	bcf	3,5	;RP0=0, select bank0
  5867     0D7C  1303               	bcf	3,6	;RP1=0, select bank0
  5868     0D7D  00C0               	movwf	clcd_putch@data
  5869     0D7E                     l2502:
  5870                           
  5871                           ;clcd.c: 64: void clcd_putch(const char data, unsigned char addr);clcd.c: 65: {;clcd.c: 
      +                          66:     clcd_write(addr, 0);
  5872     0D7E  01F2               	clrf	clcd_write@mode
  5873     0D7F  087A               	movf	clcd_putch@addr,w
  5874     0D80  120A  158A  278F  120A  158A  	fcall	_clcd_write
  5875                           
  5876                           ;clcd.c: 67:     clcd_write(data, 1);
  5877     0D85  01F2               	clrf	clcd_write@mode
  5878     0D86  0AF2               	incf	clcd_write@mode,f
  5879     0D87  1283               	bcf	3,5	;RP0=0, select bank0
  5880     0D88  1303               	bcf	3,6	;RP1=0, select bank0
  5881     0D89  0840               	movf	clcd_putch@data,w
  5882     0D8A  120A  158A  278F  120A  158A  	fcall	_clcd_write
  5883     0D8F                     l136:
  5884     0D8F  0008               	return
  5885     0D90                     __end_of_clcd_putch:
  5886                           
  5887                           	psect	text36
  5888     0EFC                     __ptext36:	
  5889 ;; *************** function _clcd_print *****************
  5890 ;; Defined at:
  5891 ;;		line 70 in file "clcd.c"
  5892 ;; Parameters:    Size  Location     Type
  5893 ;;  str             2    6[COMMON] PTR const unsigned char 
  5894 ;;		 -> STR_22(15), main@event(3), STR_13(15), STR_12(5), 
  5895 ;;		 -> STR_11(9), STR_10(16), STR_9(14), STR_8(15), 
  5896 ;;		 -> STR_7(14), STR_6(15), STR_5(14), STR_4(9), 
  5897 ;;		 -> STR_3(13), STR_2(10), STR_1(9), 
  5898 ;;  addr            1    8[COMMON] unsigned char 
  5899 ;; Auto vars:     Size  Location     Type
  5900 ;;		None
  5901 ;; Return value:  Size  Location     Type
  5902 ;;                  1    wreg      void 
  5903 ;; Registers used:
  5904 ;;		wreg, fsr0l, fsr0h, status,2, status,0, btemp+1, pclath, cstack
  5905 ;; Tracked objects:
  5906 ;;		On entry : 0/0
  5907 ;;		On exit  : 0/0
  5908 ;;		Unchanged: 0/0
  5909 ;; Data sizes:     COMMON   BANK0   BANK1   BANK3   BANK2
  5910 ;;      Params:         3       0       0       0       0
  5911 ;;      Locals:         0       0       0       0       0
  5912 ;;      Temps:          0       0       0       0       0
  5913 ;;      Totals:         3       0       0       0       0
  5914 ;;Total ram usage:        3 bytes
  5915 ;; Hardware stack levels used: 1
  5916 ;; Hardware stack levels required when called: 2
  5917 ;; This function calls:
  5918 ;;		_clcd_write
  5919 ;; This function is called by:
  5920 ;;		_display_dashboard
  5921 ;;		_menu_screen
  5922 ;;		_login
  5923 ;;		_main
  5924 ;; This function uses a non-reentrant model
  5925 ;;
  5926                           
  5927     0EFC                     _clcd_print:	
  5928                           ;psect for function _clcd_print
  5929                           
  5930     0EFC                     l2558:	
  5931                           ;incstack = 0
  5932                           ; Regs used in _clcd_print: [wreg-fsr0h+status,2+status,0+btemp+1+pclath+cstack]
  5933                           
  5934                           
  5935                           ;clcd.c: 70: void clcd_print(const char *str, unsigned char addr);clcd.c: 71: {;clcd.c: 
      +                          72:     clcd_write(addr, 0);
  5936     0EFC  01F2               	clrf	clcd_write@mode
  5937     0EFD  0878               	movf	clcd_print@addr,w
  5938     0EFE  120A  158A  278F  120A  158A  	fcall	_clcd_write
  5939                           
  5940                           ;clcd.c: 74:     while (*str != '\0')
  5941     0F03  2F1A               	goto	l2564
  5942     0F04                     l2560:
  5943                           
  5944                           ;clcd.c: 75:     {;clcd.c: 76:         clcd_write(*str, 1);
  5945     0F04  01F2               	clrf	clcd_write@mode
  5946     0F05  0AF2               	incf	clcd_write@mode,f
  5947     0F06  0877               	movf	clcd_print@str+1,w
  5948     0F07  00FF               	movwf	btemp+1
  5949     0F08  0876               	movf	clcd_print@str,w
  5950     0F09  0084               	movwf	4
  5951     0F0A  120A  118A  2319  120A  158A  	fcall	stringtab
  5952     0F0F  120A  158A  278F  120A  158A  	fcall	_clcd_write
  5953     0F14                     l2562:
  5954                           
  5955                           ;clcd.c: 77:         str++;
  5956     0F14  3001               	movlw	1
  5957     0F15  07F6               	addwf	clcd_print@str,f
  5958     0F16  1803               	skipnc
  5959     0F17  0AF7               	incf	clcd_print@str+1,f
  5960     0F18  3000               	movlw	0
  5961     0F19  07F7               	addwf	clcd_print@str+1,f
  5962     0F1A                     l2564:
  5963                           
  5964                           ;clcd.c: 74:     while (*str != '\0')
  5965     0F1A  0877               	movf	clcd_print@str+1,w
  5966     0F1B  1283               	bcf	3,5	;RP0=0, select bank0
  5967     0F1C  1303               	bcf	3,6	;RP1=0, select bank0
  5968     0F1D  00FF               	movwf	btemp+1
  5969     0F1E  0876               	movf	clcd_print@str,w
  5970     0F1F  0084               	movwf	4
  5971     0F20  120A  118A  2319  120A  158A  	fcall	stringtab
  5972     0F25  3A00               	xorlw	0
  5973     0F26  1D03               	skipz
  5974     0F27  2F29               	goto	u2061
  5975     0F28  2F2A               	goto	u2060
  5976     0F29                     u2061:
  5977     0F29  2F04               	goto	l2560
  5978     0F2A                     u2060:
  5979     0F2A                     l142:
  5980     0F2A  0008               	return
  5981     0F2B                     __end_of_clcd_print:
  5982                           
  5983                           	psect	text37
  5984     0F8F                     __ptext37:	
  5985 ;; *************** function _clcd_write *****************
  5986 ;; Defined at:
  5987 ;;		line 12 in file "clcd.c"
  5988 ;; Parameters:    Size  Location     Type
  5989 ;;  byte            1    wreg     unsigned char 
  5990 ;;  mode            1    2[COMMON] unsigned char 
  5991 ;; Auto vars:     Size  Location     Type
  5992 ;;  byte            1    5[COMMON] unsigned char 
  5993 ;; Return value:  Size  Location     Type
  5994 ;;                  1    wreg      void 
  5995 ;; Registers used:
  5996 ;;		wreg, status,2, status,0
  5997 ;; Tracked objects:
  5998 ;;		On entry : 0/0
  5999 ;;		On exit  : 0/0
  6000 ;;		Unchanged: 0/0
  6001 ;; Data sizes:     COMMON   BANK0   BANK1   BANK3   BANK2
  6002 ;;      Params:         1       0       0       0       0
  6003 ;;      Locals:         1       0       0       0       0
  6004 ;;      Temps:          2       0       0       0       0
  6005 ;;      Totals:         4       0       0       0       0
  6006 ;;Total ram usage:        4 bytes
  6007 ;; Hardware stack levels used: 1
  6008 ;; Hardware stack levels required when called: 1
  6009 ;; This function calls:
  6010 ;;		Nothing
  6011 ;; This function is called by:
  6012 ;;		_clear_screen
  6013 ;;		_login
  6014 ;;		_init_display_controller
  6015 ;;		_clcd_putch
  6016 ;;		_clcd_print
  6017 ;;		_main
  6018 ;; This function uses a non-reentrant model
  6019 ;;
  6020                           
  6021     0F8F                     _clcd_write:	
  6022                           ;psect for function _clcd_write
  6023                           
  6024                           
  6025                           ;incstack = 0
  6026                           ; Regs used in _clcd_write: [wreg+status,2+status,0]
  6027                           ;clcd_write@byte stored from wreg
  6028     0F8F  00F5               	movwf	clcd_write@byte
  6029     0F90                     l2464:
  6030                           
  6031                           ;clcd.c: 12:  void clcd_write(unsigned char byte, unsigned char mode);clcd.c: 13: {;clcd
      +                          .c: 14:     RE2 =(__bit) mode;
  6032     0F90  1872               	btfsc	clcd_write@mode,0
  6033     0F91  2F93               	goto	u1971
  6034     0F92  2F97               	goto	u1970
  6035     0F93                     u1971:
  6036     0F93  1283               	bcf	3,5	;RP0=0, select bank0
  6037     0F94  1303               	bcf	3,6	;RP1=0, select bank0
  6038     0F95  1509               	bsf	9,2	;volatile
  6039     0F96  2F9A               	goto	u1984
  6040     0F97                     u1970:
  6041     0F97  1283               	bcf	3,5	;RP0=0, select bank0
  6042     0F98  1303               	bcf	3,6	;RP1=0, select bank0
  6043     0F99  1109               	bcf	9,2	;volatile
  6044     0F9A                     u1984:
  6045     0F9A                     l2466:
  6046                           
  6047                           ;clcd.c: 16:     PORTD = byte & 0xF0;
  6048     0F9A  0875               	movf	clcd_write@byte,w
  6049     0F9B  39F0               	andlw	240
  6050     0F9C  0088               	movwf	8	;volatile
  6051     0F9D                     l2468:
  6052                           
  6053                           ;clcd.c: 17:     RE1 = 1;
  6054     0F9D  1489               	bsf	9,1	;volatile
  6055     0F9E                     l2470:
  6056                           
  6057                           ;clcd.c: 18:     _delay((unsigned long)((100)*(20000000/4000000.0)));
  6058     0F9E  30A6               	movlw	166
  6059     0F9F  00F3               	movwf	??_clcd_write
  6060     0FA0                     u2687:
  6061     0FA0  0BF3               	decfsz	??_clcd_write,f
  6062     0FA1  2FA0               	goto	u2687
  6063     0FA2  0000               	nop
  6064     0FA3                     l2472:
  6065                           
  6066                           ;clcd.c: 19:     RE1 = 0;
  6067     0FA3  1283               	bcf	3,5	;RP0=0, select bank0
  6068     0FA4  1303               	bcf	3,6	;RP1=0, select bank0
  6069     0FA5  1089               	bcf	9,1	;volatile
  6070     0FA6                     l2474:
  6071                           
  6072                           ;clcd.c: 21:     PORTD = (byte & 0x0F) << (unsigned char) 4;
  6073     0FA6  0875               	movf	clcd_write@byte,w
  6074     0FA7  390F               	andlw	15
  6075     0FA8  00F3               	movwf	??_clcd_write
  6076     0FA9  3003               	movlw	3
  6077     0FAA                     u1995:
  6078     0FAA  1003               	clrc
  6079     0FAB  0DF3               	rlf	??_clcd_write,f
  6080     0FAC  3EFF               	addlw	-1
  6081     0FAD  1D03               	skipz
  6082     0FAE  2FAA               	goto	u1995
  6083     0FAF  1003               	clrc
  6084     0FB0  0D73               	rlf	??_clcd_write,w
  6085     0FB1  0088               	movwf	8	;volatile
  6086     0FB2                     l2476:
  6087                           
  6088                           ;clcd.c: 22:     RE1 = 1;
  6089     0FB2  1489               	bsf	9,1	;volatile
  6090     0FB3                     l2478:
  6091                           
  6092                           ;clcd.c: 23:     _delay((unsigned long)((100)*(20000000/4000000.0)));
  6093     0FB3  30A6               	movlw	166
  6094     0FB4  00F3               	movwf	??_clcd_write
  6095     0FB5                     u2697:
  6096     0FB5  0BF3               	decfsz	??_clcd_write,f
  6097     0FB6  2FB5               	goto	u2697
  6098     0FB7  0000               	nop
  6099     0FB8                     l2480:
  6100                           
  6101                           ;clcd.c: 24:     RE1 = 0;
  6102     0FB8  1283               	bcf	3,5	;RP0=0, select bank0
  6103     0FB9  1303               	bcf	3,6	;RP1=0, select bank0
  6104     0FBA  1089               	bcf	9,1	;volatile
  6105     0FBB                     l2482:
  6106                           
  6107                           ;clcd.c: 26:     _delay((unsigned long)((4100)*(20000000/4000000.0)));
  6108     0FBB  301B               	movlw	27
  6109     0FBC  00F4               	movwf	??_clcd_write+1
  6110     0FBD  309E               	movlw	158
  6111     0FBE  00F3               	movwf	??_clcd_write
  6112     0FBF                     u2707:
  6113     0FBF  0BF3               	decfsz	??_clcd_write,f
  6114     0FC0  2FBF               	goto	u2707
  6115     0FC1  0BF4               	decfsz	??_clcd_write+1,f
  6116     0FC2  2FBF               	goto	u2707
  6117     0FC3  0000               	nop
  6118     0FC4                     l127:
  6119     0FC4  0008               	return
  6120     0FC5                     __end_of_clcd_write:
  6121                           
  6122                           	psect	text38
  6123     05A6                     __ptext38:	
  6124 ;; *************** function ___awmod *****************
  6125 ;; Defined at:
  6126 ;;		line 5 in file "C:\Program Files\Microchip\xc8\v2.46\pic\sources\c99\common\awmod.c"
  6127 ;; Parameters:    Size  Location     Type
  6128 ;;  divisor         2    2[COMMON] int 
  6129 ;;  dividend        2    4[COMMON] int 
  6130 ;; Auto vars:     Size  Location     Type
  6131 ;;  sign            1    7[COMMON] unsigned char 
  6132 ;;  counter         1    6[COMMON] unsigned char 
  6133 ;; Return value:  Size  Location     Type
  6134 ;;                  2    2[COMMON] int 
  6135 ;; Registers used:
  6136 ;;		wreg, status,2, status,0, btemp+1
  6137 ;; Tracked objects:
  6138 ;;		On entry : 0/0
  6139 ;;		On exit  : 0/0
  6140 ;;		Unchanged: 0/0
  6141 ;; Data sizes:     COMMON   BANK0   BANK1   BANK3   BANK2
  6142 ;;      Params:         4       0       0       0       0
  6143 ;;      Locals:         2       0       0       0       0
  6144 ;;      Temps:          0       0       0       0       0
  6145 ;;      Totals:         6       0       0       0       0
  6146 ;;Total ram usage:        6 bytes
  6147 ;; Hardware stack levels used: 1
  6148 ;; Hardware stack levels required when called: 1
  6149 ;; This function calls:
  6150 ;;		Nothing
  6151 ;; This function is called by:
  6152 ;;		_display_dashboard
  6153 ;;		_log_car_event
  6154 ;;		_login
  6155 ;; This function uses a non-reentrant model
  6156 ;;
  6157                           
  6158     05A6                     ___awmod:	
  6159                           ;psect for function ___awmod
  6160                           
  6161     05A6                     l2660:	
  6162                           ;incstack = 0
  6163                           ; Regs used in ___awmod: [wreg+status,2+status,0+btemp+1]
  6164                           
  6165     05A6  01F7               	clrf	___awmod@sign
  6166     05A7                     l2662:
  6167     05A7  1FF5               	btfss	___awmod@dividend+1,7
  6168     05A8  2DAA               	goto	u2211
  6169     05A9  2DAB               	goto	u2210
  6170     05AA                     u2211:
  6171     05AA  2DB2               	goto	l2668
  6172     05AB                     u2210:
  6173     05AB                     l2664:
  6174     05AB  09F4               	comf	___awmod@dividend,f
  6175     05AC  09F5               	comf	___awmod@dividend+1,f
  6176     05AD  0AF4               	incf	___awmod@dividend,f
  6177     05AE  1903               	skipnz
  6178     05AF  0AF5               	incf	___awmod@dividend+1,f
  6179     05B0                     l2666:
  6180     05B0  01F7               	clrf	___awmod@sign
  6181     05B1  0AF7               	incf	___awmod@sign,f
  6182     05B2                     l2668:
  6183     05B2  1FF3               	btfss	___awmod@divisor+1,7
  6184     05B3  2DB5               	goto	u2221
  6185     05B4  2DB6               	goto	u2220
  6186     05B5                     u2221:
  6187     05B5  2DBB               	goto	l2672
  6188     05B6                     u2220:
  6189     05B6                     l2670:
  6190     05B6  09F2               	comf	___awmod@divisor,f
  6191     05B7  09F3               	comf	___awmod@divisor+1,f
  6192     05B8  0AF2               	incf	___awmod@divisor,f
  6193     05B9  1903               	skipnz
  6194     05BA  0AF3               	incf	___awmod@divisor+1,f
  6195     05BB                     l2672:
  6196     05BB  0872               	movf	___awmod@divisor,w
  6197     05BC  0473               	iorwf	___awmod@divisor+1,w
  6198     05BD  1903               	btfsc	3,2
  6199     05BE  2DC0               	goto	u2231
  6200     05BF  2DC1               	goto	u2230
  6201     05C0                     u2231:
  6202     05C0  2DF0               	goto	l2690
  6203     05C1                     u2230:
  6204     05C1                     l2674:
  6205     05C1  01F6               	clrf	___awmod@counter
  6206     05C2  0AF6               	incf	___awmod@counter,f
  6207     05C3  2DCF               	goto	l2680
  6208     05C4                     l2676:
  6209     05C4  3001               	movlw	1
  6210     05C5                     u2245:
  6211     05C5  1003               	clrc
  6212     05C6  0DF2               	rlf	___awmod@divisor,f
  6213     05C7  0DF3               	rlf	___awmod@divisor+1,f
  6214     05C8  3EFF               	addlw	-1
  6215     05C9  1D03               	skipz
  6216     05CA  2DC5               	goto	u2245
  6217     05CB                     l2678:
  6218     05CB  3001               	movlw	1
  6219     05CC  00FF               	movwf	btemp+1
  6220     05CD  087F               	movf	btemp+1,w
  6221     05CE  07F6               	addwf	___awmod@counter,f
  6222     05CF                     l2680:
  6223     05CF  1FF3               	btfss	___awmod@divisor+1,7
  6224     05D0  2DD2               	goto	u2251
  6225     05D1  2DD3               	goto	u2250
  6226     05D2                     u2251:
  6227     05D2  2DC4               	goto	l2676
  6228     05D3                     u2250:
  6229     05D3                     l2682:
  6230     05D3  0873               	movf	___awmod@divisor+1,w
  6231     05D4  0275               	subwf	___awmod@dividend+1,w
  6232     05D5  1D03               	skipz
  6233     05D6  2DD9               	goto	u2265
  6234     05D7  0872               	movf	___awmod@divisor,w
  6235     05D8  0274               	subwf	___awmod@dividend,w
  6236     05D9                     u2265:
  6237     05D9  1C03               	skipc
  6238     05DA  2DDC               	goto	u2261
  6239     05DB  2DDD               	goto	u2260
  6240     05DC                     u2261:
  6241     05DC  2DE3               	goto	l2686
  6242     05DD                     u2260:
  6243     05DD                     l2684:
  6244     05DD  0872               	movf	___awmod@divisor,w
  6245     05DE  02F4               	subwf	___awmod@dividend,f
  6246     05DF  0873               	movf	___awmod@divisor+1,w
  6247     05E0  1C03               	skipc
  6248     05E1  03F5               	decf	___awmod@dividend+1,f
  6249     05E2  02F5               	subwf	___awmod@dividend+1,f
  6250     05E3                     l2686:
  6251     05E3  3001               	movlw	1
  6252     05E4                     u2275:
  6253     05E4  1003               	clrc
  6254     05E5  0CF3               	rrf	___awmod@divisor+1,f
  6255     05E6  0CF2               	rrf	___awmod@divisor,f
  6256     05E7  3EFF               	addlw	-1
  6257     05E8  1D03               	skipz
  6258     05E9  2DE4               	goto	u2275
  6259     05EA                     l2688:
  6260     05EA  3001               	movlw	1
  6261     05EB  02F6               	subwf	___awmod@counter,f
  6262     05EC  1D03               	btfss	3,2
  6263     05ED  2DEF               	goto	u2281
  6264     05EE  2DF0               	goto	u2280
  6265     05EF                     u2281:
  6266     05EF  2DD3               	goto	l2682
  6267     05F0                     u2280:
  6268     05F0                     l2690:
  6269     05F0  0877               	movf	___awmod@sign,w
  6270     05F1  1903               	btfsc	3,2
  6271     05F2  2DF4               	goto	u2291
  6272     05F3  2DF5               	goto	u2290
  6273     05F4                     u2291:
  6274     05F4  2DFA               	goto	l2694
  6275     05F5                     u2290:
  6276     05F5                     l2692:
  6277     05F5  09F4               	comf	___awmod@dividend,f
  6278     05F6  09F5               	comf	___awmod@dividend+1,f
  6279     05F7  0AF4               	incf	___awmod@dividend,f
  6280     05F8  1903               	skipnz
  6281     05F9  0AF5               	incf	___awmod@dividend+1,f
  6282     05FA                     l2694:
  6283     05FA  0875               	movf	___awmod@dividend+1,w
  6284     05FB  00F3               	movwf	?___awmod+1
  6285     05FC  0874               	movf	___awmod@dividend,w
  6286     05FD  00F2               	movwf	?___awmod
  6287     05FE                     l667:
  6288     05FE  0008               	return
  6289     05FF                     __end_of___awmod:
  6290                           
  6291                           	psect	text39
  6292     04DC                     __ptext39:	
  6293 ;; *************** function ___awdiv *****************
  6294 ;; Defined at:
  6295 ;;		line 5 in file "C:\Program Files\Microchip\xc8\v2.46\pic\sources\c99\common\awdiv.c"
  6296 ;; Parameters:    Size  Location     Type
  6297 ;;  divisor         2    2[COMMON] int 
  6298 ;;  dividend        2    4[COMMON] int 
  6299 ;; Auto vars:     Size  Location     Type
  6300 ;;  quotient        2    8[COMMON] int 
  6301 ;;  sign            1    7[COMMON] unsigned char 
  6302 ;;  counter         1    6[COMMON] unsigned char 
  6303 ;; Return value:  Size  Location     Type
  6304 ;;                  2    2[COMMON] int 
  6305 ;; Registers used:
  6306 ;;		wreg, status,2, status,0, btemp+1
  6307 ;; Tracked objects:
  6308 ;;		On entry : 0/0
  6309 ;;		On exit  : 0/0
  6310 ;;		Unchanged: 0/0
  6311 ;; Data sizes:     COMMON   BANK0   BANK1   BANK3   BANK2
  6312 ;;      Params:         4       0       0       0       0
  6313 ;;      Locals:         4       0       0       0       0
  6314 ;;      Temps:          0       0       0       0       0
  6315 ;;      Totals:         8       0       0       0       0
  6316 ;;Total ram usage:        8 bytes
  6317 ;; Hardware stack levels used: 1
  6318 ;; Hardware stack levels required when called: 1
  6319 ;; This function calls:
  6320 ;;		Nothing
  6321 ;; This function is called by:
  6322 ;;		_display_dashboard
  6323 ;;		_log_car_event
  6324 ;;		_login
  6325 ;; This function uses a non-reentrant model
  6326 ;;
  6327                           
  6328     04DC                     ___awdiv:	
  6329                           ;psect for function ___awdiv
  6330                           
  6331     04DC                     l2616:	
  6332                           ;incstack = 0
  6333                           ; Regs used in ___awdiv: [wreg+status,2+status,0+btemp+1]
  6334                           
  6335     04DC  01F7               	clrf	___awdiv@sign
  6336     04DD                     l2618:
  6337     04DD  1FF3               	btfss	___awdiv@divisor+1,7
  6338     04DE  2CE0               	goto	u2111
  6339     04DF  2CE1               	goto	u2110
  6340     04E0                     u2111:
  6341     04E0  2CE8               	goto	l2624
  6342     04E1                     u2110:
  6343     04E1                     l2620:
  6344     04E1  09F2               	comf	___awdiv@divisor,f
  6345     04E2  09F3               	comf	___awdiv@divisor+1,f
  6346     04E3  0AF2               	incf	___awdiv@divisor,f
  6347     04E4  1903               	skipnz
  6348     04E5  0AF3               	incf	___awdiv@divisor+1,f
  6349     04E6                     l2622:
  6350     04E6  01F7               	clrf	___awdiv@sign
  6351     04E7  0AF7               	incf	___awdiv@sign,f
  6352     04E8                     l2624:
  6353     04E8  1FF5               	btfss	___awdiv@dividend+1,7
  6354     04E9  2CEB               	goto	u2121
  6355     04EA  2CEC               	goto	u2120
  6356     04EB                     u2121:
  6357     04EB  2CF5               	goto	l2630
  6358     04EC                     u2120:
  6359     04EC                     l2626:
  6360     04EC  09F4               	comf	___awdiv@dividend,f
  6361     04ED  09F5               	comf	___awdiv@dividend+1,f
  6362     04EE  0AF4               	incf	___awdiv@dividend,f
  6363     04EF  1903               	skipnz
  6364     04F0  0AF5               	incf	___awdiv@dividend+1,f
  6365     04F1                     l2628:
  6366     04F1  3001               	movlw	1
  6367     04F2  00FF               	movwf	btemp+1
  6368     04F3  087F               	movf	btemp+1,w
  6369     04F4  06F7               	xorwf	___awdiv@sign,f
  6370     04F5                     l2630:
  6371     04F5  01F8               	clrf	___awdiv@quotient
  6372     04F6  01F9               	clrf	___awdiv@quotient+1
  6373     04F7                     l2632:
  6374     04F7  0872               	movf	___awdiv@divisor,w
  6375     04F8  0473               	iorwf	___awdiv@divisor+1,w
  6376     04F9  1903               	btfsc	3,2
  6377     04FA  2CFC               	goto	u2131
  6378     04FB  2CFD               	goto	u2130
  6379     04FC                     u2131:
  6380     04FC  2D34               	goto	l2652
  6381     04FD                     u2130:
  6382     04FD                     l2634:
  6383     04FD  01F6               	clrf	___awdiv@counter
  6384     04FE  0AF6               	incf	___awdiv@counter,f
  6385     04FF  2D0B               	goto	l2640
  6386     0500                     l2636:
  6387     0500  3001               	movlw	1
  6388     0501                     u2145:
  6389     0501  1003               	clrc
  6390     0502  0DF2               	rlf	___awdiv@divisor,f
  6391     0503  0DF3               	rlf	___awdiv@divisor+1,f
  6392     0504  3EFF               	addlw	-1
  6393     0505  1D03               	skipz
  6394     0506  2D01               	goto	u2145
  6395     0507                     l2638:
  6396     0507  3001               	movlw	1
  6397     0508  00FF               	movwf	btemp+1
  6398     0509  087F               	movf	btemp+1,w
  6399     050A  07F6               	addwf	___awdiv@counter,f
  6400     050B                     l2640:
  6401     050B  1FF3               	btfss	___awdiv@divisor+1,7
  6402     050C  2D0E               	goto	u2151
  6403     050D  2D0F               	goto	u2150
  6404     050E                     u2151:
  6405     050E  2D00               	goto	l2636
  6406     050F                     u2150:
  6407     050F                     l2642:
  6408     050F  3001               	movlw	1
  6409     0510                     u2165:
  6410     0510  1003               	clrc
  6411     0511  0DF8               	rlf	___awdiv@quotient,f
  6412     0512  0DF9               	rlf	___awdiv@quotient+1,f
  6413     0513  3EFF               	addlw	-1
  6414     0514  1D03               	skipz
  6415     0515  2D10               	goto	u2165
  6416     0516  0873               	movf	___awdiv@divisor+1,w
  6417     0517  0275               	subwf	___awdiv@dividend+1,w
  6418     0518  1D03               	skipz
  6419     0519  2D1C               	goto	u2175
  6420     051A  0872               	movf	___awdiv@divisor,w
  6421     051B  0274               	subwf	___awdiv@dividend,w
  6422     051C                     u2175:
  6423     051C  1C03               	skipc
  6424     051D  2D1F               	goto	u2171
  6425     051E  2D20               	goto	u2170
  6426     051F                     u2171:
  6427     051F  2D27               	goto	l2648
  6428     0520                     u2170:
  6429     0520                     l2644:
  6430     0520  0872               	movf	___awdiv@divisor,w
  6431     0521  02F4               	subwf	___awdiv@dividend,f
  6432     0522  0873               	movf	___awdiv@divisor+1,w
  6433     0523  1C03               	skipc
  6434     0524  03F5               	decf	___awdiv@dividend+1,f
  6435     0525  02F5               	subwf	___awdiv@dividend+1,f
  6436     0526                     l2646:
  6437     0526  1478               	bsf	___awdiv@quotient,0
  6438     0527                     l2648:
  6439     0527  3001               	movlw	1
  6440     0528                     u2185:
  6441     0528  1003               	clrc
  6442     0529  0CF3               	rrf	___awdiv@divisor+1,f
  6443     052A  0CF2               	rrf	___awdiv@divisor,f
  6444     052B  3EFF               	addlw	-1
  6445     052C  1D03               	skipz
  6446     052D  2D28               	goto	u2185
  6447     052E                     l2650:
  6448     052E  3001               	movlw	1
  6449     052F  02F6               	subwf	___awdiv@counter,f
  6450     0530  1D03               	btfss	3,2
  6451     0531  2D33               	goto	u2191
  6452     0532  2D34               	goto	u2190
  6453     0533                     u2191:
  6454     0533  2D0F               	goto	l2642
  6455     0534                     u2190:
  6456     0534                     l2652:
  6457     0534  0877               	movf	___awdiv@sign,w
  6458     0535  1903               	btfsc	3,2
  6459     0536  2D38               	goto	u2201
  6460     0537  2D39               	goto	u2200
  6461     0538                     u2201:
  6462     0538  2D3E               	goto	l2656
  6463     0539                     u2200:
  6464     0539                     l2654:
  6465     0539  09F8               	comf	___awdiv@quotient,f
  6466     053A  09F9               	comf	___awdiv@quotient+1,f
  6467     053B  0AF8               	incf	___awdiv@quotient,f
  6468     053C  1903               	skipnz
  6469     053D  0AF9               	incf	___awdiv@quotient+1,f
  6470     053E                     l2656:
  6471     053E  0879               	movf	___awdiv@quotient+1,w
  6472     053F  00F3               	movwf	?___awdiv+1
  6473     0540  0878               	movf	___awdiv@quotient,w
  6474     0541  00F2               	movwf	?___awdiv
  6475     0542                     l654:
  6476     0542  0008               	return
  6477     0543                     __end_of___awdiv:
  6478                           
  6479                           	psect	text40
  6480     0795                     __ptext40:	
  6481 ;; *************** function ___lwdiv *****************
  6482 ;; Defined at:
  6483 ;;		line 5 in file "C:\Program Files\Microchip\xc8\v2.46\pic\sources\c99\common\lwdiv.c"
  6484 ;; Parameters:    Size  Location     Type
  6485 ;;  divisor         2    6[COMMON] unsigned int 
  6486 ;;  dividend        2    8[COMMON] unsigned int 
  6487 ;; Auto vars:     Size  Location     Type
  6488 ;;  quotient        2    0[BANK0 ] unsigned int 
  6489 ;;  counter         1    2[BANK0 ] unsigned char 
  6490 ;; Return value:  Size  Location     Type
  6491 ;;                  2    6[COMMON] unsigned int 
  6492 ;; Registers used:
  6493 ;;		wreg, status,2, status,0, btemp+1
  6494 ;; Tracked objects:
  6495 ;;		On entry : 0/0
  6496 ;;		On exit  : 0/0
  6497 ;;		Unchanged: 0/0
  6498 ;; Data sizes:     COMMON   BANK0   BANK1   BANK3   BANK2
  6499 ;;      Params:         4       0       0       0       0
  6500 ;;      Locals:         0       3       0       0       0
  6501 ;;      Temps:          0       0       0       0       0
  6502 ;;      Totals:         4       3       0       0       0
  6503 ;;Total ram usage:        7 bytes
  6504 ;; Hardware stack levels used: 1
  6505 ;; Hardware stack levels required when called: 1
  6506 ;; This function calls:
  6507 ;;		Nothing
  6508 ;; This function is called by:
  6509 ;;		_main
  6510 ;; This function uses a non-reentrant model
  6511 ;;
  6512                           
  6513     0795                     ___lwdiv:	
  6514                           ;psect for function ___lwdiv
  6515                           
  6516     0795                     l2272:	
  6517                           ;incstack = 0
  6518                           ; Regs used in ___lwdiv: [wreg+status,2+status,0+btemp+1]
  6519                           
  6520     0795  1283               	bcf	3,5	;RP0=0, select bank0
  6521     0796  1303               	bcf	3,6	;RP1=0, select bank0
  6522     0797  01C0               	clrf	___lwdiv@quotient
  6523     0798  01C1               	clrf	___lwdiv@quotient+1
  6524     0799                     l2274:
  6525     0799  0876               	movf	___lwdiv@divisor,w
  6526     079A  0477               	iorwf	___lwdiv@divisor+1,w
  6527     079B  1903               	btfsc	3,2
  6528     079C  2F9E               	goto	u1721
  6529     079D  2F9F               	goto	u1720
  6530     079E                     u1721:
  6531     079E  2FD6               	goto	l2294
  6532     079F                     u1720:
  6533     079F                     l2276:
  6534     079F  01C2               	clrf	___lwdiv@counter
  6535     07A0  0AC2               	incf	___lwdiv@counter,f
  6536     07A1  2FAD               	goto	l2282
  6537     07A2                     l2278:
  6538     07A2  3001               	movlw	1
  6539     07A3                     u1735:
  6540     07A3  1003               	clrc
  6541     07A4  0DF6               	rlf	___lwdiv@divisor,f
  6542     07A5  0DF7               	rlf	___lwdiv@divisor+1,f
  6543     07A6  3EFF               	addlw	-1
  6544     07A7  1D03               	skipz
  6545     07A8  2FA3               	goto	u1735
  6546     07A9                     l2280:
  6547     07A9  3001               	movlw	1
  6548     07AA  00FF               	movwf	btemp+1
  6549     07AB  087F               	movf	btemp+1,w
  6550     07AC  07C2               	addwf	___lwdiv@counter,f
  6551     07AD                     l2282:
  6552     07AD  1FF7               	btfss	___lwdiv@divisor+1,7
  6553     07AE  2FB0               	goto	u1741
  6554     07AF  2FB1               	goto	u1740
  6555     07B0                     u1741:
  6556     07B0  2FA2               	goto	l2278
  6557     07B1                     u1740:
  6558     07B1                     l2284:
  6559     07B1  3001               	movlw	1
  6560     07B2                     u1755:
  6561     07B2  1003               	clrc
  6562     07B3  0DC0               	rlf	___lwdiv@quotient,f
  6563     07B4  0DC1               	rlf	___lwdiv@quotient+1,f
  6564     07B5  3EFF               	addlw	-1
  6565     07B6  1D03               	skipz
  6566     07B7  2FB2               	goto	u1755
  6567     07B8  0877               	movf	___lwdiv@divisor+1,w
  6568     07B9  0279               	subwf	___lwdiv@dividend+1,w
  6569     07BA  1D03               	skipz
  6570     07BB  2FBE               	goto	u1765
  6571     07BC  0876               	movf	___lwdiv@divisor,w
  6572     07BD  0278               	subwf	___lwdiv@dividend,w
  6573     07BE                     u1765:
  6574     07BE  1C03               	skipc
  6575     07BF  2FC1               	goto	u1761
  6576     07C0  2FC2               	goto	u1760
  6577     07C1                     u1761:
  6578     07C1  2FC9               	goto	l2290
  6579     07C2                     u1760:
  6580     07C2                     l2286:
  6581     07C2  0876               	movf	___lwdiv@divisor,w
  6582     07C3  02F8               	subwf	___lwdiv@dividend,f
  6583     07C4  0877               	movf	___lwdiv@divisor+1,w
  6584     07C5  1C03               	skipc
  6585     07C6  03F9               	decf	___lwdiv@dividend+1,f
  6586     07C7  02F9               	subwf	___lwdiv@dividend+1,f
  6587     07C8                     l2288:
  6588     07C8  1440               	bsf	___lwdiv@quotient,0
  6589     07C9                     l2290:
  6590     07C9  3001               	movlw	1
  6591     07CA                     u1775:
  6592     07CA  1003               	clrc
  6593     07CB  0CF7               	rrf	___lwdiv@divisor+1,f
  6594     07CC  0CF6               	rrf	___lwdiv@divisor,f
  6595     07CD  3EFF               	addlw	-1
  6596     07CE  1D03               	skipz
  6597     07CF  2FCA               	goto	u1775
  6598     07D0                     l2292:
  6599     07D0  3001               	movlw	1
  6600     07D1  02C2               	subwf	___lwdiv@counter,f
  6601     07D2  1D03               	btfss	3,2
  6602     07D3  2FD5               	goto	u1781
  6603     07D4  2FD6               	goto	u1780
  6604     07D5                     u1781:
  6605     07D5  2FB1               	goto	l2284
  6606     07D6                     u1780:
  6607     07D6                     l2294:
  6608     07D6  0841               	movf	___lwdiv@quotient+1,w
  6609     07D7  00F7               	movwf	?___lwdiv+1
  6610     07D8  0840               	movf	___lwdiv@quotient,w
  6611     07D9  00F6               	movwf	?___lwdiv
  6612     07DA                     l781:
  6613     07DA  0008               	return
  6614     07DB                     __end_of___lwdiv:
  6615                           
  6616                           	psect	text41
  6617     0F2B                     __ptext41:	
  6618 ;; *************** function _isr *****************
  6619 ;; Defined at:
  6620 ;;		line 4 in file "isr.c"
  6621 ;; Parameters:    Size  Location     Type
  6622 ;;		None
  6623 ;; Auto vars:     Size  Location     Type
  6624 ;;		None
  6625 ;; Return value:  Size  Location     Type
  6626 ;;                  1    wreg      void 
  6627 ;; Registers used:
  6628 ;;		wreg, status,2, status,0
  6629 ;; Tracked objects:
  6630 ;;		On entry : 0/0
  6631 ;;		On exit  : 0/0
  6632 ;;		Unchanged: 0/0
  6633 ;; Data sizes:     COMMON   BANK0   BANK1   BANK3   BANK2
  6634 ;;      Params:         0       0       0       0       0
  6635 ;;      Locals:         0       0       0       0       0
  6636 ;;      Temps:          2       0       0       0       0
  6637 ;;      Totals:         2       0       0       0       0
  6638 ;;Total ram usage:        2 bytes
  6639 ;; Hardware stack levels used: 1
  6640 ;; This function calls:
  6641 ;;		Nothing
  6642 ;; This function is called by:
  6643 ;;		Interrupt level 1
  6644 ;; This function uses a non-reentrant model
  6645 ;;
  6646                           
  6647     0F2B                     _isr:	
  6648                           ;psect for function _isr
  6649                           
  6650     0F2B                     i1l2402:
  6651                           
  6652                           ;isr.c: 6:     static unsigned int count = 0;;isr.c: 8:     if (TMR2IF == 1)
  6653     0F2B  1283               	bcf	3,5	;RP0=0, select bank0
  6654     0F2C  1303               	bcf	3,6	;RP1=0, select bank0
  6655     0F2D  1C8C               	btfss	12,1	;volatile
  6656     0F2E  2F30               	goto	u188_21
  6657     0F2F  2F31               	goto	u188_20
  6658     0F30                     u188_21:
  6659     0F30  2F56               	goto	i1l356
  6660     0F31                     u188_20:
  6661     0F31                     i1l2404:
  6662                           
  6663                           ;isr.c: 9:     {;isr.c: 10:         if (++count == 1250)
  6664     0F31  3001               	movlw	1
  6665     0F32  07A3               	addwf	isr@count,f
  6666     0F33  1803               	skipnc
  6667     0F34  0AA4               	incf	isr@count+1,f
  6668     0F35  3000               	movlw	0
  6669     0F36  07A4               	addwf	isr@count+1,f
  6670     0F37  30E2               	movlw	226
  6671     0F38  0623               	xorwf	isr@count,w
  6672     0F39  3004               	movlw	4
  6673     0F3A  1903               	skipnz
  6674     0F3B  0624               	xorwf	isr@count+1,w
  6675     0F3C  1D03               	btfss	3,2
  6676     0F3D  2F3F               	goto	u189_21
  6677     0F3E  2F40               	goto	u189_20
  6678     0F3F                     u189_21:
  6679     0F3F  2F55               	goto	i1l2416
  6680     0F40                     u189_20:
  6681     0F40                     i1l2406:
  6682                           
  6683                           ;isr.c: 11:         {;isr.c: 12:             if(sec > 0){
  6684     0F40  0829               	movf	_sec,w
  6685     0F41  1903               	btfsc	3,2
  6686     0F42  2F44               	goto	u190_21
  6687     0F43  2F45               	goto	u190_20
  6688     0F44                     u190_21:
  6689     0F44  2F47               	goto	i1l354
  6690     0F45                     u190_20:
  6691     0F45                     i1l2408:
  6692                           
  6693                           ;isr.c: 13:               sec --;
  6694     0F45  3001               	movlw	1
  6695     0F46  02A9               	subwf	_sec,f
  6696     0F47                     i1l354:	
  6697                           ;isr.c: 14:             }
  6698                           
  6699                           
  6700                           ;isr.c: 15:             if(sec == 0 && ret_time > 0){
  6701     0F47  0829               	movf	_sec,w
  6702     0F48  1D03               	btfss	3,2
  6703     0F49  2F4B               	goto	u191_21
  6704     0F4A  2F4C               	goto	u191_20
  6705     0F4B                     u191_21:
  6706     0F4B  2F53               	goto	i1l2414
  6707     0F4C                     u191_20:
  6708     0F4C                     i1l2410:
  6709     0F4C  0828               	movf	_ret_time,w
  6710     0F4D  1903               	btfsc	3,2
  6711     0F4E  2F50               	goto	u192_21
  6712     0F4F  2F51               	goto	u192_20
  6713     0F50                     u192_21:
  6714     0F50  2F53               	goto	i1l2414
  6715     0F51                     u192_20:
  6716     0F51                     i1l2412:
  6717                           
  6718                           ;isr.c: 16:                 ret_time --;
  6719     0F51  3001               	movlw	1
  6720     0F52  02A8               	subwf	_ret_time,f
  6721     0F53                     i1l2414:
  6722                           
  6723                           ;isr.c: 18:             count = 0;
  6724     0F53  01A3               	clrf	isr@count
  6725     0F54  01A4               	clrf	isr@count+1
  6726     0F55                     i1l2416:
  6727                           
  6728                           ;isr.c: 23:         TMR2IF = 0;
  6729     0F55  108C               	bcf	12,1	;volatile
  6730     0F56                     i1l356:
  6731     0F56  0871               	movf	??_isr+1,w
  6732     0F57  008A               	movwf	10
  6733     0F58  0E70               	swapf	??_isr,w
  6734     0F59  0083               	movwf	3
  6735     0F5A  0EFE               	swapf	btemp,f
  6736     0F5B  0E7E               	swapf	btemp,w
  6737     0F5C  0009               	retfie
  6738     0F5D                     __end_of_isr:
  6739     007E                     btemp	set	126	;btemp
  6740     007E                     wtemp0	set	126
  6741                           
  6742                           	psect	intentry
  6743     0004                     __pintentry:	
  6744                           ;incstack = 0
  6745                           ; Regs used in _isr: [wreg+status,2+status,0]
  6746                           
  6747     0004                     interrupt_function:
  6748     007E                     saved_w	set	btemp
  6749     0004  00FE               	movwf	btemp
  6750     0005  0E03               	swapf	3,w
  6751     0006  00F0               	movwf	??_isr
  6752     0007  080A               	movf	10,w
  6753     0008  00F1               	movwf	??_isr+1
  6754     0009  120A  158A  2F2B   	ljmp	_isr
  6755                           
  6756                           	psect	config
  6757                           
  6758                           ;Config register CONFIG @ 0x2007
  6759                           ;	Oscillator Selection bits
  6760                           ;	FOSC = 0x3, unprogrammed default
  6761                           ;	Watchdog Timer Enable bit
  6762                           ;	WDTE = OFF, WDT disabled
  6763                           ;	Power-up Timer Enable bit
  6764                           ;	PWRTE = 0x1, unprogrammed default
  6765                           ;	Brown-out Reset Enable bit
  6766                           ;	BOREN = 0x1, unprogrammed default
  6767                           ;	Low-Voltage (Single-Supply) In-Circuit Serial Programming Enable bit
  6768                           ;	LVP = 0x1, unprogrammed default
  6769                           ;	Data EEPROM Memory Code Protection bit
  6770                           ;	CPD = 0x1, unprogrammed default
  6771                           ;	Flash Program Memory Write Enable bits
  6772                           ;	WRT = 0x3, unprogrammed default
  6773                           ;	In-Circuit Debugger Mode bit
  6774                           ;	DEBUG = 0x1, unprogrammed default
  6775                           ;	Flash Program Memory Code Protection bit
  6776                           ;	CP = 0x1, unprogrammed default
  6777     2007                     	org	8199
  6778     2007  3FFB               	dw	16379

Data Sizes:
    Strings     184
    Constant    0
    Data        17
    BSS         32
    Persistent  0
    Stack       0

Auto Spaces:
    Space          Size  Autos    Used
    COMMON           14     11      12
    BANK0            80     29      77
    BANK1            80      0       0
    BANK3            96      0       0
    BANK2            96      0       0

Pointer List with Targets:

    clcd_print@str	PTR const unsigned char  size(2) Largest target is 16
		 -> main@event(BANK0[3]), STR_1(CODE[9]), STR_10(CODE[16]), STR_11(CODE[9]), 
		 -> STR_12(CODE[5]), STR_13(CODE[15]), STR_2(CODE[10]), STR_22(CODE[15]), 
		 -> STR_3(CODE[13]), STR_4(CODE[9]), STR_5(CODE[14]), STR_6(CODE[15]), 
		 -> STR_7(CODE[14]), STR_8(CODE[15]), STR_9(CODE[14]), 

    display_dashboard@event	PTR unsigned char  size(1) Largest target is 3
		 -> main@event(BANK0[3]), 

    eeprom_at24c04_str_write@data	PTR unsigned char  size(2) Largest target is 11
		 -> log(BANK0[11]), STR_20(CODE[5]), 

    log_car_event@event	PTR unsigned char  size(1) Largest target is 3
		 -> main@event(BANK0[3]), 

    main@F1211	PTR unsigned char [6] size(1) Largest target is 3
		 -> STR_14(CODE[3]), STR_15(CODE[3]), STR_16(CODE[3]), STR_17(CODE[3]), 
		 -> STR_18(CODE[3]), STR_19(CODE[3]), 

    main@gear	PTR unsigned char [6] size(1) Largest target is 3
		 -> STR_14(CODE[3]), STR_15(CODE[3]), STR_16(CODE[3]), STR_17(CODE[3]), 
		 -> STR_18(CODE[3]), STR_19(CODE[3]), 

    menu	PTR unsigned char [5] size(1) Largest target is 14
		 -> STR_1(CODE[9]), STR_2(CODE[10]), STR_3(CODE[13]), STR_4(CODE[9]), 
		 -> STR_5(CODE[14]), 

    sp__strcpy	PTR unsigned char  size(1) Largest target is 3
		 -> main@event(BANK0[3]), 

    sp__strncpy	PTR unsigned char  size(1) Largest target is 11
		 -> log(BANK0[11]), 

    strcpy@d	PTR unsigned char  size(1) Largest target is 3
		 -> main@event(BANK0[3]), 

    strcpy@dest	PTR unsigned char  size(1) Largest target is 3
		 -> main@event(BANK0[3]), 

    strcpy@src	PTR const unsigned char  size(1) Largest target is 3
		 -> STR_14(CODE[3]), STR_15(CODE[3]), STR_16(CODE[3]), STR_17(CODE[3]), 
		 -> STR_18(CODE[3]), STR_19(CODE[3]), STR_21(CODE[3]), 

    strncmp@l	PTR const unsigned char  size(1) Largest target is 4
		 -> login@u_password(BANK0[4]), 

    strncmp@r	PTR const unsigned char  size(1) Largest target is 4
		 -> login@s_password(BANK0[4]), 

    strncpy@cp	PTR unsigned char  size(1) Largest target is 11
		 -> log(BANK0[11]), 

    strncpy@d	PTR unsigned char  size(1) Largest target is 11
		 -> log(BANK0[11]), 

    strncpy@s	PTR const unsigned char  size(1) Largest target is 7
		 -> main@event(BANK0[3]), time(BANK0[7]), 


Critical Paths under _main in COMMON

    _main->_log_car_event
    _menu_screen->_clcd_putch
    _login->_clcd_putch
    _eeprom_at24c04_read->_i2c_read
    _clear_screen->_clcd_write
    _log_car_event->___awdiv
    _log_event->_eeprom_at24c04_str_write
    _eeprom_at24c04_str_write->_eeprom_at24c04_byte_write
    _eeprom_at24c04_byte_write->_i2c_write
    _init_i2c->___lldiv
    _init_ds1307->_read_ds1307
    _write_ds1307->_i2c_write
    _init_clcd->_init_display_controller
    _init_display_controller->_clcd_write
    _display_dashboard->_clcd_putch
    _display_time->_clcd_putch
    _get_time->_read_ds1307
    _read_ds1307->_i2c_read
    _clcd_putch->___awdiv
    _clcd_print->_clcd_write
    ___lwdiv->_read_adc

Critical Paths under _isr in COMMON

    None.

Critical Paths under _main in BANK0

    _menu_screen->_clcd_putch
    _login->_clcd_putch
    _init_config->_init_i2c
    _init_i2c->___lldiv
    _display_dashboard->_clcd_putch
    _display_time->_clcd_putch

Critical Paths under _isr in BANK0

    None.

Critical Paths under _main in BANK1

    None.

Critical Paths under _isr in BANK1

    None.

Critical Paths under _main in BANK3

    None.

Critical Paths under _isr in BANK3

    None.

Critical Paths under _main in BANK2

    None.

Critical Paths under _isr in BANK2

    None.

Call Graph Tables:

 ---------------------------------------------------------------------------------
 (Depth) Function   	        Calls       Base Space   Used Autos Params    Refs
 ---------------------------------------------------------------------------------
 (0) _main                                                17    17      0   54826
                                             13 BANK0     16    16      0
                            ___lwdiv
                         _clcd_print
                         _clcd_write
                       _clear_screen
                  _display_dashboard
           _eeprom_at24c04_str_write
                        _init_config
                      _log_car_event
                              _login
                        _menu_screen
                           _read_adc
                _read_digital_keypad
                             _strcpy
 ---------------------------------------------------------------------------------
 (2) _strcpy                                               3     2      1     400
                                              2 COMMON     3     2      1
 ---------------------------------------------------------------------------------
 (1) _read_digital_keypad                                  2     2      0      22
                                              2 COMMON     2     2      0
 ---------------------------------------------------------------------------------
 (1) _read_adc                                             4     2      2      23
                                              2 COMMON     4     2      2
 ---------------------------------------------------------------------------------
 (1) _menu_screen                                          2     1      1    9800
                                              1 BANK0      2     1      1
                         _clcd_print
                         _clcd_putch
                       _clear_screen
 ---------------------------------------------------------------------------------
 (1) _login                                               11    10      1   14296
                                              1 BANK0     11    10      1
                            ___awdiv
                            ___awmod
                         _clcd_print
                         _clcd_putch
                         _clcd_write
                       _clear_screen
                _eeprom_at24c04_read
                            _strncmp
 ---------------------------------------------------------------------------------
 (2) _strncmp                                              6     3      3     364
                                              2 COMMON     6     3      3
 ---------------------------------------------------------------------------------
 (2) _eeprom_at24c04_read                                  2     2      0     161
                                              4 COMMON     2     2      0
                           _i2c_read
                      _i2c_rep_start
                          _i2c_start
                           _i2c_stop
                          _i2c_write
 ---------------------------------------------------------------------------------
 (2) _clear_screen                                         2     2      0    1803
                                              6 COMMON     2     2      0
                         _clcd_write
 ---------------------------------------------------------------------------------
 (1) _log_car_event                                        4     3      1    4035
                                             10 COMMON     1     0      1
                                              0 BANK0      3     3      0
                            ___awdiv
                            ___awmod
                          _log_event
                            _strncpy
 ---------------------------------------------------------------------------------
 (2) _strncpy                                              5     2      3     634
                                              2 COMMON     5     2      3
 ---------------------------------------------------------------------------------
 (2) _log_event                                            1     1      0     846
                                              8 COMMON     1     1      0
                             ___bmul
           _eeprom_at24c04_str_write
 ---------------------------------------------------------------------------------
 (3) _eeprom_at24c04_str_write                             3     1      2     552
                                              5 COMMON     3     1      2
          _eeprom_at24c04_byte_write
 ---------------------------------------------------------------------------------
 (4) _eeprom_at24c04_byte_write                            2     1      1     273
                                              3 COMMON     2     1      1
                          _i2c_start
                           _i2c_stop
                          _i2c_write
 ---------------------------------------------------------------------------------
 (3) ___bmul                                               3     2      1     226
                                              2 COMMON     3     2      1
 ---------------------------------------------------------------------------------
 (1) _init_config                                          0     0      0    2779
                           _init_adc
                          _init_clcd
                _init_digital_keypad
                        _init_ds1307
                           _init_i2c
                        _init_timer2
 ---------------------------------------------------------------------------------
 (2) _init_timer2                                          0     0      0       0
 ---------------------------------------------------------------------------------
 (2) _init_i2c                                             8     4      4     564
                                              5 BANK0      8     4      4
                            ___lldiv
 ---------------------------------------------------------------------------------
 (3) ___lldiv                                             14     6      8     466
                                              2 COMMON     9     1      8
                                              0 BANK0      5     5      0
 ---------------------------------------------------------------------------------
 (2) _init_ds1307                                          1     1      0     412
                                              6 COMMON     1     1      0
                        _read_ds1307
                       _write_ds1307
 ---------------------------------------------------------------------------------
 (3) _write_ds1307                                         2     1      1     183
                                              3 COMMON     2     1      1
                          _i2c_start
                           _i2c_stop
                          _i2c_write
 ---------------------------------------------------------------------------------
 (2) _init_digital_keypad                                  0     0      0       0
 ---------------------------------------------------------------------------------
 (2) _init_clcd                                            0     0      0    1803
            _init_display_controller
 ---------------------------------------------------------------------------------
 (3) _init_display_controller                              2     2      0    1803
                                              6 COMMON     2     2      0
                         _clcd_write
 ---------------------------------------------------------------------------------
 (2) _init_adc                                             0     0      0       0
 ---------------------------------------------------------------------------------
 (1) _display_dashboard                                    4     3      1   13547
                                              1 BANK0      4     3      1
                            ___awdiv
                            ___awmod
                         _clcd_print
                         _clcd_putch
                       _display_time
 ---------------------------------------------------------------------------------
 (2) _display_time                                         0     0      0    3556
                         _clcd_putch
                           _get_time
 ---------------------------------------------------------------------------------
 (3) _get_time                                             1     1      0     161
                                              6 COMMON     1     1      0
                        _read_ds1307
 ---------------------------------------------------------------------------------
 (3) _read_ds1307                                          2     2      0     161
                                              4 COMMON     2     2      0
                           _i2c_read
                      _i2c_rep_start
                          _i2c_start
                           _i2c_stop
                          _i2c_write
 ---------------------------------------------------------------------------------
 (3) _i2c_write                                            1     1      0      31
                                              2 COMMON     1     1      0
                  _i2c_wait_for_idle
 ---------------------------------------------------------------------------------
 (3) _i2c_rep_start                                        0     0      0       0
                          _i2c_start
                           _i2c_stop
 ---------------------------------------------------------------------------------
 (3) _i2c_stop                                             0     0      0       0
                  _i2c_wait_for_idle
 ---------------------------------------------------------------------------------
 (3) _i2c_start                                            0     0      0       0
                  _i2c_wait_for_idle
 ---------------------------------------------------------------------------------
 (3) _i2c_read                                             2     2      0      65
                                              2 COMMON     2     2      0
                  _i2c_wait_for_idle
 ---------------------------------------------------------------------------------
 (4) _i2c_wait_for_idle                                    0     0      0       0
 ---------------------------------------------------------------------------------
 (2) _clcd_putch                                           2     1      1    3395
                                             10 COMMON     1     0      1
                                              0 BANK0      1     1      0
                            ___awdiv (ARG)
                            ___awmod (ARG)
                         _clcd_write
 ---------------------------------------------------------------------------------
 (2) _clcd_print                                           3     0      3    4419
                                              6 COMMON     3     0      3
                         _clcd_write
 ---------------------------------------------------------------------------------
 (3) _clcd_write                                           4     3      1    1803
                                              2 COMMON     4     3      1
 ---------------------------------------------------------------------------------
 (2) ___awmod                                              6     2      4     973
                                              2 COMMON     6     2      4
 ---------------------------------------------------------------------------------
 (2) ___awdiv                                              8     4      4     985
                                              2 COMMON     8     4      4
 ---------------------------------------------------------------------------------
 (1) ___lwdiv                                              7     3      4     314
                                              6 COMMON     4     0      4
                                              0 BANK0      3     3      0
                           _read_adc (ARG)
 ---------------------------------------------------------------------------------
 Estimated maximum stack depth 4
 ---------------------------------------------------------------------------------
 (Depth) Function   	        Calls       Base Space   Used Autos Params    Refs
 ---------------------------------------------------------------------------------
 (8) _isr                                                  2     2      0       0
                                              0 COMMON     2     2      0
 ---------------------------------------------------------------------------------
 Estimated maximum stack depth 8
 ---------------------------------------------------------------------------------

 Call Graph Graphs:

 _main (ROOT)
   ___lwdiv
     _read_adc (ARG)
   _clcd_print
     _clcd_write
   _clcd_write
   _clear_screen
     _clcd_write
   _display_dashboard
     ___awdiv
     ___awmod
     _clcd_print
     _clcd_putch
       ___awdiv (ARG)
       ___awmod (ARG)
       _clcd_write (ARG)
     _display_time
       _clcd_putch
       _get_time
         _read_ds1307
           _i2c_read
             _i2c_wait_for_idle
           _i2c_rep_start
             _i2c_start
               _i2c_wait_for_idle
             _i2c_stop
               _i2c_wait_for_idle
           _i2c_start
           _i2c_stop
           _i2c_write
             _i2c_wait_for_idle
   _eeprom_at24c04_str_write
     _eeprom_at24c04_byte_write
       _i2c_start
       _i2c_stop
       _i2c_write
   _init_config
     _init_adc
     _init_clcd
       _init_display_controller
         _clcd_write
     _init_digital_keypad
     _init_ds1307
       _read_ds1307
       _write_ds1307
         _i2c_start
         _i2c_stop
         _i2c_write
     _init_i2c
       ___lldiv
     _init_timer2
   _log_car_event
     ___awdiv
     ___awmod
     _log_event
       ___bmul
       _eeprom_at24c04_str_write
     _strncpy
   _login
     ___awdiv
     ___awmod
     _clcd_print
     _clcd_putch
     _clcd_write
     _clear_screen
     _eeprom_at24c04_read
       _i2c_read
       _i2c_rep_start
       _i2c_start
       _i2c_stop
       _i2c_write
     _strncmp
   _menu_screen
     _clcd_print
     _clcd_putch
     _clear_screen
   _read_adc
   _read_digital_keypad
   _strcpy

 _isr (ROOT)

 Address spaces:
Name               Size   Autos  Total    Cost      Usage
BANK3               60      0       0       9        0.0%
BITBANK3            60      0       0       8        0.0%
SFR3                 0      0       0       4        0.0%
BITSFR3              0      0       0       4        0.0%
BANK2               60      0       0      11        0.0%
BITBANK2            60      0       0      10        0.0%
SFR2                 0      0       0       5        0.0%
BITSFR2              0      0       0       5        0.0%
BANK1               50      0       0       7        0.0%
BITBANK1            50      0       0       6        0.0%
SFR1                 0      0       0       2        0.0%
BITSFR1              0      0       0       2        0.0%
BANK0               50     1D      4D       5       96.2%
BITBANK0            50      0       0       4        0.0%
SFR0                 0      0       0       1        0.0%
BITSFR0              0      0       0       1        0.0%
COMMON               E      B       C       1       85.7%
BITCOMMON            E      0       0       0        0.0%
CODE                 0      0       0       0        0.0%
DATA                 0      0      59      12        0.0%
ABS                  0      0      59       3        0.0%
NULL                 0      0       0       0        0.0%
STACK                0      0       0       2        0.0%
EEDATA             100      0       0       0        0.0%


Microchip Technology PIC Macro Assembler V2.46 build 20240104201356 
Symbol Table                                                                                   Tue May 20 01:52:48 2025

                                pc 0002                     ___bmul@product 0073  
                   clcd_print@addr 0078                                 l21 0D54  
                               l15 0CCC                                 l18 0D46  
                               l61 06A7                                 l71 0747  
                               l64 0655                                 l58 0794  
                               l82 0473                                 l68 0E23  
                               l85 0D42                                 l96 01B9  
                               _GO 00FA                       ___awdiv@sign 0077  
                               fsr 0004                                l130 05A5  
                              l202 0ECE                                l211 0EFB  
                              l133 0D07                                l205 0DFB  
                              l142 0F2A                                l127 0FC4  
                              l136 0D8F                                l240 0F8E  
                              l320 02BB                                l243 0D08  
                              l155 0E4D                                l260 07FB  
                              l252 0CF1                                l308 0EA3  
                              l149 0CC5                                l246 0D14  
                              l182 0DDD                                l255 0CE6  
                              l263 0CFC                                l176 0D67  
                              l249 0CDD                                l258 07F6  
                              l259 07F9                                l179 0E78  
                              l380 0D21                                l527 0DA4  
                              l537 04DB                                l654 0542  
                              l667 05FE                                l781 07DA  
                              l963 0DBF                                l982 0FFF  
                              l967 06F7                                _GIE 005F  
                              _RE1 0049                                _RE2 004A  
                              _PR2 0092                                _PEN 048A  
                              _SEN 0488                                _PSA 040B  
                    ?_display_time 0070                      log_event@addr 0078  
                              _log 002A                                _sec 0029  
                              _isr 0F2B                     clcd_putch@addr 007A  
                              _pos 006B                                fsr0 0004  
                   clcd_putch@data 0040                                indf 0000  
                     ___awmod@sign 0077   __end_of_eeprom_at24c04_str_write 0EFC  
               log_car_event@event 0042                 log_car_event@speed 007A  
                             l2056 0D43                               l2232 0E2F  
                             l2224 0E25              ??_read_digital_keypad 0072  
                             l2058 0D4A                               l2234 0E3A  
                             l2226 0E2A                               l2500 0793  
                             l2236 0E3F                               l2244 0E41  
                             l2502 0D7E                               l2422 0D08  
                             l2430 0CDE                               l2510 0EE7  
                             l2246 0E4A                               l2270 0DA8  
                             l2280 07A9                               l2272 0795  
                             l2424 0D0E                               l2432 0CE3  
                             l2520 0562                               l2512 0EEB  
                             l2504 0ED0                               l2248 0E4C  
                             l2290 07C9                               l2282 07AD  
                             l2274 0799                               l2450 07ED  
                             l2426 0CD5                               l2442 0CE7  
                             l2434 0CF3                               l2530 0584  
                             l2522 0567                               l2514 0543  
                             l2602 0CFD                               l2610 0D55  
                             l2506 0ED1                               l2292 07D0  
                             l2284 07B1                               l2276 079F  
                             l2620 04E1                               l2452 07F2  
                             l2444 07DC                               l2428 0CDA  
                             l2436 0CF8                               l2460 0E77  
                             l2700 060D                               l2532 0589  
                             l2524 056E                               l2516 054B  
                             l2604 0D00                               l2612 0D5C  
                             l2540 0D91                               l2508 0EE1  
                             l2268 0DA6                               l2286 07C2  
                             l2278 07A2                               l2294 07D6  
                             l2630 04F5                               l2622 04E6  
                             l2470 0F9E                               l2454 07FA  
                             l2446 07E1                               l2438 0CFC  
                             l2702 0612                               l2534 0599  
                             l2526 0571                               l2518 0552  
                             l2606 0D01                               l2614 0D5F  
                             l2550 0D9E                               l2542 0D92  
                             l2710 0715                               l2288 07C8  
                             l2640 050B                               l2632 04F7  
                             l2624 04E8                               l2616 04DC  
                             l2480 0FB8                               l2472 0FA3  
                             l2464 0F90                               l2560 0F04  
                             l2448 07E9                               l2704 061F  
                             l2536 05A0                               l2528 0578  
                             l2608 0D02                               l2552 0DA3  
                             l2544 0D96                               l2712 072C  
                             l2720 03EA                               l2650 052E  
                             l2642 050F                               l2634 04FD  
                             l2626 04EC                               l2618 04DD  
                             l2482 0FBB                               l2474 0FA6  
                             l2466 0F9A                               l2562 0F14  
                             l2458 0E4F                               l2490 076F  
                             l2706 063A                               l2538 0DC1  
                             l1850 0486                               l2546 0D9A  
                             l2570 0E0D                               l2714 0741  
                             l1930 06C2                               l1922 06A9  
                             l2810 00CE                               l2802 009A  
                             l2730 0401                               l2722 03EB  
                             l2644 0520                               l2636 0500  
                             l2652 0534                               l2628 04F1  
                             l2660 05A6                               l2476 0FB2  
                             l2468 0F9D                               l2564 0F1A  
                             l2492 0773                               l2556 0656  
                             l1860 04A3                               l1852 0489  
                             l2548 0D9C                               l2484 0DDF  
                             l2572 0E0F                               l2580 0FCF  
                             l2716 0742                               l2708 06FB  
                             l1940 06E9                               l1924 06B7  
                             l1932 06C8                               l2812 00D3  
                             l2804 00A7                               l2740 0417  
                             l2732 0407                               l2724 03F1  
                             l2900 01F8                               l2654 0539  
                             l2646 0526                               l2638 0507  
                             l2670 05B6                               l2662 05A7  
                             l2478 0FB3                               l2558 0EFC  
                             l2494 077F                               l2486 0748  
                             l1862 04B5                               l1854 0492  
                             l1870 04D3                               l2574 0E19  
                             l2566 0DFC                               l2590 0FF1  
                             l1934 06D0                               l2830 0109  
                             l2814 00DE                               l2822 00EE  
                             l2806 00AF                               l2742 043B  
                             l2734 040C                               l2726 03F7  
                             l2718 03E4                               l2910 0226  
                             l2902 0202                               l2656 053E  
                             l2648 0527                               l2680 05CF  
                             l2672 05BB                               l2664 05AB  
                             l2496 0783                               l2488 0763  
                             l1952 0CC0                               l1864 04C3  
                             l1856 0496                               l1848 0474  
                             l1960 0F5D                               l2568 0E06  
                             l2584 0FE2                               l2576 0FC6  
                             l2592 0D32                               l1936 06D7  
                             l1928 06BA                               l2840 0154  
                             l2832 0114                               l2824 00F2  
                             l2816 00EC                               l2808 00BC  
                             l2760 0040                               l2752 0032  
                             l2744 0444                               l2728 03FB  
                             l2920 0257                               l2912 0239  
                             l2904 0218                               l2682 05D3  
                             l2674 05C1                               l2690 05F0  
                             l2666 05B0                               l2498 078F  
                             l1874 0CC6                               l1866 04C4  
                             l1858 049A                               l1962 0F60  
                             l1970 0D1D                               l2586 0FE9  
                             l2578 0FC9                               l2594 0D39  
                             l1938 06DD                               l2850 019B  
                             l2842 0159                               l2834 011F  
                             l2826 00F7                               l2770 004F  
                             l2754 0037                               l2762 0042  
                             l2746 0468                               l2738 040F  
                             l2930 0279                               l2914 023F  
                             l2922 0260                               l2906 021E  
                             l2692 05F5                               l2684 05DD  
                             l2676 05C4                               l2668 05B2  
                             l1868 04CD                               l1964 0F8B  
                             l1972 0D1E                               l2860 0E79  
                             l2588 0FED                               l2596 0EA5  
                             l2852 01A6                               l2844 018D  
                             l2828 00FE                               l2836 012E  
                             l2772 0055                               l2780 006D  
                             l2764 0047                               l2756 003C  
                             l2748 0470                               l2940 0297  
                             l2924 0266                               l2932 0284  
                             l2916 0245                               l2908 0220  
                             l2694 05FA                               l2686 05E3  
                             l2678 05CB                               l1966 0D15  
                             l2870 0E9C                               l2862 0E88  
                             l2598 0ECD                               l2854 01AD  
                             l2846 0194                               l2838 0133  
                             l2782 0073                               l2774 005B  
                             l2758 003E                               l2950 02B9  
                             l2942 029C                               l2934 028A  
                             l2926 026B                               l2918 0251  
                             l2688 05EA                               l1968 0D19  
                             l2872 0EA1                               l2864 0E8D  
                             l2856 01B4                               l2848 0196  
                             l2784 0079                               l2792 0089  
                             l2776 0064                               l2768 0049  
                             l2960 02D9                               l2952 02BC  
                             l2944 02A7                               l2936 0290  
                             l2928 026D                               l2698 0602  
                             l2874 0EA2                               l2866 0E92  
                             l2858 01B7                               l2794 008F  
                             l2786 007F                               l2778 006A  
                             l2970 02ED                               l2962 02E5  
                             l2954 02C5                               l2946 02AE  
                             l2938 0295                               l2890 01C9  
                             l2882 01BA                               l2868 0E97  
                             l2796 0096                               l2972 02FC  
                             l2964 02E8                               l2956 02CA  
                             l2948 02B5                               l2892 01CA  
                             l2884 01BF                               l2966 02EA  
                             l2958 02D5                               l2894 01DE  
                             l2886 01C3                               l2976 0305  
                             l2896 01E5                               l2888 01C9  
                             l2978 0312                               l2898 01EF  
                             _ADFM 04FF                               ?_isr 0070  
                             _ADON 00F8                               STR_1 03B0  
                             STR_2 039D                               STR_3 0390  
                             STR_4 03A7                               STR_5 0374  
                             STR_6 0339                               STR_7 0366  
                             STR_8 0348                               STR_9 0382  
                             _CREN 00C4                               _T0CS 040D  
                             u1110 0486                               u1111 0485  
                             u1130 049A                               u1131 0499  
                             u2100 0FFF                               u2005 0766  
                             u1125 048B                               u2101 0FFE  
                             u2110 04E1                               u1150 04B5  
                             u2030 0EFB                               u1230 06B7  
                             u2111 04E0                               u2015 0776  
                             u1151 04B4                               u2031 0EFA  
                             u1231 06B6                               u2200 0539  
                             u2120 04EC                               u2040 0D96  
                             u1240 06D0                               u2201 0538  
                             u2121 04EB                               u2025 0786  
                             u1145 049C                               u2041 0D95  
                             u1241 06CF                               u2130 04FD  
                             u2210 05AB                               u1170 04D3  
                             u2050 0DA3                               u1250 06D7  
                             u2131 04FC                               u2211 05AA  
                             u1171 04D2                               u1155 04B1  
                             u2051 0DA2                               u1251 06D6  
                             u2220 05B6                               u2060 0F2A  
                             u1260 06DD                               u2300 03EA  
                             u2221 05B5                               u2061 0F29  
                             u1165 04C5                               u1261 06DC  
                             u2301 03E9                               u2150 050F  
                             u2230 05C1                               u2070 0E0D  
                             u1270 06E9                               u2310 03F1  
                             u2151 050E                               u2231 05C0  
                             u2071 0E0C                               u1271 06E8  
                             u2311 03F0                               u1280 0F6E  
                             u2080 0FE1                               u2400 0073  
                             u2320 03F7                               u2145 0501  
                             u2081 0FE0                               u2401 0072  
                             u2321 03F6                               u2170 0520  
                             u2250 05D3                               u2090 0FE8  
                             u2410 0079                               u2330 0407  
                             u2171 051F                               u2251 05D2  
                             u2091 0FE7                               u2411 0078  
                             u2331 0406                               u2260 05DD  
                             u2420 008F                               u2340 040C  
                             u1700 0E4A                               u2500 023F  
                             u2165 0510                               u2261 05DC  
                             u2245 05C5                               u1285 0F69  
                             u2421 008E                               u2341 040B  
                             u1701 0E49                               u2501 023E  
                             u2190 0534                               u2430 00BC  
                             u2350 0417                               u1710 0DBF  
                             u2510 0245                               u2191 0533  
                             u2175 051C                               u2431 00BB  
                             u2351 0416                               u1711 0DBE  
                             u2511 0244                               u1720 079F  
                             u2280 05F0                               u2440 00CE  
                             u2360 0037                               u1480 0D4A  
                             u2520 0266                               u1721 079E  
                             u2185 0528                               u2281 05EF  
                             u2265 05D9                               u2441 00CD  
                             u2361 0036                               u1481 0D49  
                             u2521 0265                               u2290 05F5  
                             u2450 00FE                               u2370 0047  
                             u2530 026B                               u2291 05F4  
                             u2275 05E4                               u2451 00FD  
                             u2435 00B8                               u2371 0046  
                             u2531 026A                               u1740 07B1  
                             u2460 0133                               u2380 004F  
                             u2540 028A                               u1741 07B0  
                             u2461 0132                               u2381 004E  
                             u2541 0289                               u2470 0194  
                             u2390 0055                               u1670 0E2A  
                             u2550 0290                               u1735 07A3  
                             u2607 0D3D                               u2471 0193  
                             u2391 0054                               u1671 0E29  
                             u2551 028F                               u1760 07C2  
                             u1680 0E3A                               u2560 0295  
                             u2480 021E                               u1761 07C1  
                             u2617 0547                               u1681 0E39  
                             u2561 0294                               u2481 021D  
                             u1690 0E3F                               u2490 0226  
                             u1755 07B2                               u2707 0FBF  
                             u2627 0556                               u1691 0E3E  
                             u2491 0225                               u1780 07D6  
                             u1940 0D0E                               u1781 07D5  
                             u1765 07BE                               u1941 0D0D  
                             u2637 0564                               u1950 0D14  
                             u1775 07CA                               u1951 0D13  
                             u2647 057A                               u1960 07F2  
                             u1961 07F1                               u2657 0586  
                             u2577 01FE                               u1970 0F97  
                             u1971 0F93                               u2667 0594  
                             u2587 00E6                               _PEIE 005E  
                             u2677 05A2                               u2597 0127  
                             u2687 0FA0                               u1984 0F9A  
                             u2697 0FB5                               u1995 0FAA  
                             _RCEN 048B                               _RCIF 0065  
                             _TMR0 0001                               _SPEN 00C7  
                             _TXIF 0064                               _R_nW 04A2  
                             _main 01BA                               _menu 0063  
                             _time 0035                               btemp 007E  
                             start 000C                     menu_screen@key 0042  
                ___bmul@multiplier 0074                     clcd_write@byte 0075  
                   clcd_write@mode 0072                      _i2c_rep_start 0CE7  
                            ??_isr 0070                       ?_init_ds1307 0070  
          eeprom_at24c04_read@addr 0074            eeprom_at24c04_read@data 0075  
                            ?_main 0070                       ?_read_ds1307 0070  
                            _ACKEN 048C                              _ACKDT 048D  
                   ??_display_time 007B                    __end_of___awdiv 0543  
                            STR_10 0329                              STR_11 03B9  
                            STR_12 03C7                              STR_20 03C2  
                            STR_21 03CC                              STR_13 0357  
                            STR_22 0357                              STR_14 03DB  
                            STR_15 03DE                              STR_16 03CF  
                            STR_17 03D2                              STR_18 03D5  
                            STR_19 03D8                    __end_of___awmod 05FF  
                  __end_of___lldiv 04DC                        i2c_read@ack 0072  
                  ___awdiv@divisor 0072                    __end_of___lwdiv 07DB  
                            i1l354 0F47                              i1l356 0F56  
                     ?_init_config 0070                    ___awdiv@counter 0076  
                            _RCREG 001A                              _SPBRG 0099  
                            _PORTB 0006                              _PORTD 0008  
                            _SSPM3 00A3                              _TRISB 0086  
                            _TRISD 0088                              _SSPEN 00A5  
                            _TXREG 0019                       ?_init_timer2 0070  
                            _nDONE 00FA               __end_of_clear_screen 0D43  
                            _login 002F                       ?_menu_screen 0041  
                            pclath 000A                              status 0003  
                            wtemp0 007E                    __end_of_strncmp 06F8  
                  __end_of_strncpy 1000                   init_ds1307@dummy 0076  
                  __initialization 000F                     ?_i2c_rep_start 0070  
                     __end_of_main 0319                   __end_of_i2c_read 07FC  
                 __end_of_i2c_stop 0CE7                             ??_main 004D  
                           _ADRESH 001E                             ?_login 0041  
                           _ADRESL 009E                   ___awdiv@dividend 0074  
                     i2c_read@data 0073                             i1l2410 0F4C  
                           i1l2402 0F2B                             i1l2412 0F51  
                           i1l2404 0F31                             i1l2414 0F53  
                           i1l2406 0F40                             i1l2408 0F45  
                           i1l2416 0F55                             u190_20 0F45  
                           u190_21 0F44                             u191_20 0F4C  
                           u191_21 0F4B                             u192_20 0F51  
                           u192_21 0F50                       _write_ds1307 0DC0  
                           u188_20 0F31                             u188_21 0F30  
                           u189_20 0F40                             u189_21 0F3F  
                           _TMR0IE 005D                             _TMR2IE 0461  
                           _TMR2IF 0061                             _TMR2ON 0092  
                           _SSPADD 0093                             _TRISE1 0449  
                           _TRISE2 044A                             _SSPBUF 0013  
      __end_of_init_digital_keypad 0CC6          ?_eeprom_at24c04_str_write 0075  
                 __end_of_get_time 0795                             ___bmul 0D90  
          _init_display_controller 0543                          ??___awdiv 0076  
                        ??___awmod 0076                          ??___lldiv 007A  
                        ??___lwdiv 007A                   __end_of_init_i2c 0F8F  
                 __end_of_init_adc 0CCD                   __end_of_read_adc 0D55  
                 ___awdiv@quotient 0078                    ___awmod@divisor 0072  
                  ___awmod@counter 0076                             main@gr 005A  
                           _strcpy 0DA5                       __pdataCOMMON 007B  
                           login@i 0026                             login@j 004A  
                           saved_w 007E                          ??_strncmp 0075  
                        ??_strncpy 0075            __end_of__initialization 002B  
             __end_of_display_time 06A8                    ??_i2c_rep_start 0072  
              ___bmul@multiplicand 0072                    login@s_password 0045  
                   __pcstackCOMMON 0070                       __pidataBANK0 0D22  
       ?_eeprom_at24c04_byte_write 0073                      __end_of_login 01BA  
                  login@u_password 003C                    login@reset_flag 0041  
                __end_of_i2c_start 0CDE                  __end_of_i2c_write 0CFD  
                _i2c_wait_for_idle 0D08                            ??_login 0042  
               ?_i2c_wait_for_idle 0070                         __pbssBANK0 0020  
                        ?_i2c_read 0070                          ?_i2c_stop 0070  
        ??_init_display_controller 0076                         _clcd_print 0EFC  
              ??_i2c_wait_for_idle 0072                         _clcd_putch 0D7B  
                       _clcd_write 0F8F                         __pmaintext 01BA  
                  read_ds1307@addr 0074                      _log_car_event 06F8  
                  read_ds1307@data 0075                       _clear_screen 0D32  
                          ?___bmul 0072                         __pintentry 0004  
                          _ACKSTAT 048E      eeprom_at24c04_byte_write@addr 0074  
    eeprom_at24c04_byte_write@data 0073                            ?_strcpy 0072  
                          _T2CKPS0 0090                            _T2CKPS1 0091  
      __end_of_read_digital_keypad 0E4E          __end_of_i2c_wait_for_idle 0D15  
                     init_i2c@baud 0045                            _SSPCON2 0091  
                        ?_get_time 0070                         __stringtab 0319  
                       ??_i2c_read 0072                         ??_i2c_stop 0072  
                        ?_init_i2c 0045                          ?_init_adc 0070  
                        ?_read_adc 0072                     ?_log_car_event 007A  
                          ___awdiv 04DC                            ___awmod 05A6  
                          ___lldiv 0474                            ___lwdiv 0795  
                 main@control_flag 0059                            __ptext1 0DA5  
                          __ptext2 0E24                            __ptext3 0D43  
                          __ptext4 03E1                            __ptext5 002F  
                          __ptext6 06A8                            __ptext7 0EA4  
                          __ptext8 0D32                            __ptext9 06F8  
  __end_of_init_display_controller 05A6                  __end_of_init_clcd 0D08  
                 ___awmod@dividend 0074                     main@reset_flag 0058  
                __end_of_log_event 0E24             display_dashboard@event 0044  
           display_dashboard@speed 0041                            main@key 005C  
                          clrloop0 0CCE                         ??_get_time 0076  
                          _strncmp 06A8                            _strncpy 0FC5  
             end_of_initialization 002B                         ??_init_i2c 0049  
                       ??_init_adc 0072                         ??_read_adc 0074  
              _eeprom_at24c04_read 0EA4                        ?_clcd_print 0076  
                      ?_clcd_putch 007A                    ___lldiv@divisor 0072  
                      ?_clcd_write 0072                    ___lldiv@counter 0044  
                          strcpy@d 0073               ?_eeprom_at24c04_read 0070  
                     _display_time 0656                      i2c_write@data 0072  
                    clcd_print@str 0076                    ??_log_car_event 0040  
      ??_eeprom_at24c04_byte_write 0074                     __end_of___bmul 0DA5  
                    __pidataCOMMON 07FC              ??_eeprom_at24c04_read 0074  
                   __end_of_strcpy 0DC0                start_initialization 000F  
                        _i2c_start 0CD5                        __end_of_isr 0F5D  
                        _i2c_write 0CF2           _eeprom_at24c04_str_write 0ECF  
            __end_of_i2c_rep_start 0CF2                           ??___bmul 0073  
                       init_fetch0 0D68                      ??_init_ds1307 0076  
                      __pdataBANK0 005D                      ??_read_ds1307 0074  
                         ??_strcpy 0073                      ??_init_config 007B  
                    ??_init_timer2 0072                          ___latbits 0002  
                    __pcstackBANK0 0040                         ?_i2c_start 0070  
                       ?_i2c_write 0070          _eeprom_at24c04_byte_write 0DDE  
                    ??_menu_screen 007B                   ___lwdiv@dividend 0078  
                         ?___awdiv 0072                           ?___awmod 0072  
                _display_dashboard 05FF                           ?___lldiv 0072  
                         ?___lwdiv 0076                          _clock_reg 0020  
               ?_display_dashboard 0041                          __pstrings 0319  
              __end_of_init_ds1307 0D68                read_adc@adc_reg_val 0074  
              ??_display_dashboard 0042                __end_of_read_ds1307 0E79  
                 ___lwdiv@quotient 0040                          _init_clcd 0CFD  
              __end_of_init_config 0EA4                           ?_strncmp 0072  
                         ?_strncpy 0072                          _log_event 0DFC  
                    ?_write_ds1307 0073                __end_of_init_timer2 0D22  
         ?_init_display_controller 0070                  interrupt_function 0004  
                        clear_ram0 0CCD                       ??_clcd_print 0079  
                     ??_clcd_putch 007B                __end_of_menu_screen 0474  
                     ??_clcd_write 0073          __end_of_display_dashboard 0656  
                        main@F1211 005D                          main@F1205 0068  
                      __stringbase 0328                          main@event 0055  
                        main@speed 005B                        ??_i2c_start 0072  
               __end_of_clcd_print 0F2B                        ??_i2c_write 0072  
               __end_of_clcd_putch 0D90                 __end_of_clcd_write 0FC5  
                       ?_init_clcd 0070                     ??_write_ds1307 0074  
                       ?_log_event 0070                _init_digital_keypad 0CC0  
                         _i2c_read 07DB                           _i2c_stop 0CDE  
             ?_init_digital_keypad 0070                        _init_ds1307 0D55  
               __end_of__stringtab 0329                        _read_ds1307 0E4E  
                      _init_config 0E79                        _init_timer2 0D15  
       ??_eeprom_at24c04_str_write 0077                    ___lwdiv@divisor 0076  
                  ___lwdiv@counter 0042       eeprom_at24c04_str_write@addr 0077  
                         __ptext10 0FC5                           __ptext11 0DFC  
                         __ptext20 0DC0                           __ptext12 0ECF  
                         __ptext21 0CC0                           __ptext13 0DDE  
                         __ptext30 0CE7                           __ptext22 0CFD  
                         __ptext14 0D90                           __ptext31 0CDE  
                         __ptext23 0543                           __ptext15 0E79  
                         __ptext40 0795                           __ptext32 0CD5  
                         __ptext24 0CC6                           __ptext16 0D15  
                         __ptext41 0F2B                           __ptext33 07DB  
                         __ptext25 05FF                           __ptext17 0F5D  
                         __ptext34 0D08                           __ptext26 0656  
                         __ptext18 0474                           __ptext35 0D7B  
                         __ptext27 0748                           __ptext19 0D55  
                         __ptext36 0EFC                           __ptext28 0E4E  
                         __ptext37 0F8F                           __ptext29 0CF2  
                         __ptext38 05A6       eeprom_at24c04_str_write@data 0075  
                         __ptext39 04DC                  login@attempt_left 0025  
                         _get_time 0748                        _menu_screen 03E1  
                       strcpy@dest 0074                           _init_i2c 0F5D  
                         _init_adc 0CC6                           _read_adc 0D43  
          read_digital_keypad@mode 0073            read_digital_keypad@once 007B  
            __end_of_log_car_event 0748                           _ret_time 0028  
                    ?_clear_screen 0070        __end_of_eeprom_at24c04_read 0ECF  
            ??_init_digital_keypad 0072                           main@gear 004F  
                         isr@count 0023                           init_ram0 0D6C  
                      ??_init_clcd 0078                           login@key 0049  
                      ??_log_event 0078                           intlevel1 0000  
                 ___lldiv@dividend 0076                          strcpy@src 0072  
                        stringcode 0323                     ??_clear_screen 0076  
                        strncpy@cp 0076  __end_of_eeprom_at24c04_byte_write 0DFC  
             __end_of_write_ds1307 0DDE                _read_digital_keypad 0E24  
                 ___lldiv@quotient 0040                           strncmp@l 0077  
                         strncmp@n 0073                           strncmp@r 0072  
                         stringdir 0323                           stringtab 0319  
                         strncpy@d 0075                           strncpy@n 0073  
                         strncpy@s 0072               ?_read_digital_keypad 0070  
                 write_ds1307@addr 0074                   write_ds1307@data 0073  
            menu_screen@reset_flag 0041                menu_screen@menu_pos 0027  
